; Listing generated by Microsoft (R) Optimizing Compiler Version 19.43.34808.0 

include listing.inc

INCLUDELIB OLDNAMES

PUBLIC	??_C@_0BC@EOODALEL@Unknown?5exception@		; `string'
PUBLIC	??_C@_0BF@KINCDENJ@bad?5array?5new?5length@	; `string'
PUBLIC	??_C@_0BA@JFNIOLAK@string?5too?5long@		; `string'
PUBLIC	??_C@_00CNPNBAHC@@				; `string'
PUBLIC	??_C@_0FF@NBCDBPNL@assets?1models?1Ingenuity?5?$CIhelico@ ; `string'
PUBLIC	??_C@_0BO@OGDBEOJA@Ingenuity?5?$CIblender?5exort?$CJ?4obj@ ; `string'
PUBLIC	??_C@_0CN@FIFPKJAL@assets?1models?1Wooden?5barrel?5?$CIha@ ; `string'
PUBLIC	??_C@_0P@EKPGKJGE@Barrel_OBJ?4obj@		; `string'
PUBLIC	??_C@_06HIGCFHGK@barrel@			; `string'
PUBLIC	??_C@_0DD@JKCHEIMP@Error?3?5Could?5not?5convert?5assimp@ ; `string'
PUBLIC	??_C@_06LHNPGOPG@Barrel@			; `string'
PUBLIC	??_C@_0CC@HMKEIJC@barrel_BaseColor?5?9?5Inverted_Y?4b@ ; `string'
PUBLIC	??_C@_0BP@HJIJFDPL@barrel_Normal?5?9?5Inverted_Y?4bmp@ ; `string'
PUBLIC	??_C@_0BE@HCMOGKHN@Barrel_half_OBJ?4obj@	; `string'
PUBLIC	??_C@_0M@JELGIHBC@Barrel_half@			; `string'
PUBLIC	??_C@_0BH@EJHGDGKO@Barrel_quarter_OBJ?4obj@	; `string'
PUBLIC	??_C@_0P@CHLBPKIK@Barrel_quarter@		; `string'
PUBLIC	??_C@_0BF@DOFILDML@assets?1models?1Ground@	; `string'
PUBLIC	??_C@_0L@HPMEFGPM@Ground?4obj@			; `string'
PUBLIC	??_C@_06KBIODPAH@Ground@			; `string'
PUBLIC	??_C@_0P@NEOHOGMD@Ground_OBJ?4obj@		; `string'
PUBLIC	??_C@_0BK@GMDIBHOK@brown_mud_dry_diff_8k?4bmp@	; `string'
PUBLIC	??_C@_0CA@LJPDPDAC@assets?1models?1FBX_Wooden_assets@ ; `string'
PUBLIC	??_C@_0BD@OAGKCKBB@Wooden_objects?4obj@		; `string'
PUBLIC	??_C@_07BJILMHDM@table_3@			; `string'
PUBLIC	??_C@_09KIIGNBLB@Table?4obj@			; `string'
PUBLIC	??_C@_05LFBINIGO@Table@				; `string'
PUBLIC	??_C@_0BK@NKFBNOG@Table_Clean_2K_Albedo?4bmp@	; `string'
PUBLIC	??_C@_0BK@NOODFGOO@Table_Clean_2K_Normal?4bmp@	; `string'
PUBLIC	??_C@_07HJNHCICF@chair_3@			; `string'
PUBLIC	??_C@_09DDDOHBM@Chair?4obj@			; `string'
PUBLIC	??_C@_05LHCGGBKP@Chair@				; `string'
PUBLIC	??_C@_0BK@PJKLKIGP@Chair_Clean_2K_Albedo?4bmp@	; `string'
PUBLIC	??_C@_0BK@CKONODGH@Chair_Clean_2K_Normal?4bmp@	; `string'
PUBLIC	??_C@_0BI@OMLGCMLK@Wooden_half_objects?4obj@	; `string'
PUBLIC	??_C@_0O@KOALFHOO@HalfTable?4obj@		; `string'
PUBLIC	??_C@_09EOAHAPCD@HalfTable@			; `string'
PUBLIC	??_C@_0O@FLOGBED@HalfChair?4obj@		; `string'
PUBLIC	??_C@_09EMDJLGOC@HalfChair@			; `string'
PUBLIC	??_C@_0BL@DIOPLOFD@Wooden_quarter_objects?4obj@	; `string'
PUBLIC	??_C@_0BB@HGFLBOGE@QuarterTable?4obj@		; `string'
PUBLIC	??_C@_0N@EOAOMGAG@QuarterTable@			; `string'
PUBLIC	??_C@_0BB@NNOOCIMJ@QuarterChair?4obj@		; `string'
PUBLIC	??_C@_0N@EMDAHPMH@QuarterChair@			; `string'
PUBLIC	??_C@_0BI@KOLIAAFD@assets?1models?1Fireplace@	; `string'
PUBLIC	??_C@_0O@EBACMCMP@fireplace?4obj@		; `string'
PUBLIC	??_C@_0BF@JHEBOGPC@fireplace_noFireWood@	; `string'
PUBLIC	??_C@_0O@IMGGLKBH@Fireplace?4obj@		; `string'
PUBLIC	??_C@_09MOILMPEO@Fireplace@			; `string'
PUBLIC	??_C@_0BG@DBCMNBOD@fireplace_diffuse?4bmp@	; `string'
PUBLIC	??_C@_0BF@DKGNPHBF@fireplace_normal?4bmp@	; `string'
PUBLIC	??_C@_0BC@CLJFAGPC@firewood_separate@		; `string'
PUBLIC	??_C@_0N@HDPPACIM@Firewood?4obj@		; `string'
PUBLIC	??_C@_08DCLJIMJD@Firewood@			; `string'
PUBLIC	??_C@_0BD@NKAKEEAP@fireplace_half?4obj@		; `string'
PUBLIC	??_C@_0BC@JNPOIBOC@HalfFireplace?4obj@		; `string'
PUBLIC	??_C@_0O@MIAGEJBB@HalfFireplace@		; `string'
PUBLIC	??_C@_0BB@OKMPKLFH@HalfFirewood?4obj@		; `string'
PUBLIC	??_C@_0N@JIKMMNG@HalfFirewood@			; `string'
PUBLIC	??_C@_0BG@INOHOLHF@fireplace_quarter?4obj@	; `string'
PUBLIC	??_C@_0BF@FCOCGGEA@QuarterFireplace?4obj@	; `string'
PUBLIC	??_C@_0BB@BAFGAAJL@QuarterFireplace@		; `string'
PUBLIC	??_C@_0BJ@JKMEMLGE@assets?1models?1Chandelier@	; `string'
PUBLIC	??_C@_0P@CCEMDICF@chandelier?4obj@		; `string'
PUBLIC	??_C@_0M@LKJIJDJM@BezierCurve@			; `string'
PUBLIC	??_C@_0P@KKIJAGLL@Chandelier?4obj@		; `string'
PUBLIC	??_C@_0L@PJKCJEHC@Chandelier@			; `string'
PUBLIC	??_C@_0CI@GEJPIBJJ@chandelier_low_defaultMat_BaseC@ ; `string'
PUBLIC	??_C@_0CF@MAONKMPJ@chandelier_low_defaultMat_Norma@ ; `string'
PUBLIC	??_C@_0BE@GFGBPFBM@chandelier_half?4obj@	; `string'
PUBLIC	??_C@_0BD@GHEPJIBD@HalfChandelier?4obj@		; `string'
PUBLIC	??_C@_0P@CHAFFJB@HalfChandelier@		; `string'
PUBLIC	??_C@_0BH@LEDJNBMK@chandelier_quarter?4obj@	; `string'
PUBLIC	??_C@_0BG@FPFIEGDA@QuarterChandelier?4obj@	; `string'
PUBLIC	??_C@_0BC@PMFGPOG@QuarterChandelier@		; `string'
PUBLIC	??_C@_0BF@KMJBPIKL@assets?1models?1Scooby@	; `string'
PUBLIC	??_C@_0L@LKIINCGG@scooby?4obj@			; `string'
PUBLIC	??_C@_08DCKFADKE@Cube?4001@			; `string'
PUBLIC	??_C@_0L@DMBEFNLB@Scooby?4obj@			; `string'
PUBLIC	??_C@_06DDEHHEGH@Scooby@			; `string'
PUBLIC	??_C@_0L@PDJDLHFN@scooby?4bmp@			; `string'
PUBLIC	??_C@_0BF@IAAPBLII@assets?1models?1Candle@	; `string'
PUBLIC	??_C@_0BF@IKBILNDM@Candle_Stick_OBJ?4obj@	; `string'
PUBLIC	??_C@_06JEGKHCDD@group2@			; `string'
PUBLIC	??_C@_0L@PICNPIOP@Candle?4obj@			; `string'
PUBLIC	??_C@_06BPNJJHEE@Candle@			; `string'
PUBLIC	??_C@_0BP@PDJAAEOE@Candle_LP_Candle_BaseColor?4bmp@ ; `string'
PUBLIC	??_C@_0BM@JHCPPJMI@Candle_LP_Candle_Normal?4bmp@ ; `string'
PUBLIC	??_C@_0BK@NPHNPGGL@Candle_Stick_OBJ_half?4obj@	; `string'
PUBLIC	??_C@_0BB@LCDOHDGM@Candle_Stick_OBJ@		; `string'
PUBLIC	??_C@_0P@DPPDJAM@HalfCandle?4obj@		; `string'
PUBLIC	??_C@_0L@BHEPLFLO@HalfCandle@			; `string'
PUBLIC	??_C@_0BN@NKKLKACJ@Candle_Stick_OBJ_quarter?4obj@ ; `string'
PUBLIC	??_C@_0BC@OEKADHL@QuarterCandle?4obj@		; `string'
PUBLIC	??_C@_0O@FMELGIDA@QuarterCandle@		; `string'
PUBLIC	??_C@_0DE@MHDDJBDE@assets?1models?1Sphere_radius_1_x@ ; `string'
PUBLIC	??_C@_0M@PJOCGOJH@FlameSphere@			; `string'
PUBLIC	??_C@_0CC@KINPFAFM@red?9hot?9fire?9flames?91024x1024?4b@ ; `string'
PUBLIC	??_C@_0EE@JOECCEAP@assets?1models?1Lightbulb?1lightbu@ ; `string'
PUBLIC	??_C@_09PCCDMDEJ@LightBulb@			; `string'
PUBLIC	??_C@_0BA@OAHKGGGM@solid_white?4bmp@		; `string'
PUBLIC	??_C@_0CL@FKNJEBAJ@bun_zipper_LOD_res1_n_uv?5?$CI69?045@ ; `string'
PUBLIC	??_C@_0CL@LJKOPFPI@bun_zipper_LOD_res2_n_uv?5?$CI16?030@ ; `string'
PUBLIC	??_C@_0CK@NIMCCDGI@bun_zipper_LOD_res3_n_uv?5?$CI3?0851@ ; `string'
PUBLIC	??_C@_0CI@MOJEMMFK@bun_zipper_LOD_res4_n_uv?5?$CI948?5t@ ; `string'
PUBLIC	??_C@_0P@DNBJDHIP@assets?1models?1@		; `string'
PUBLIC	??_C@_0CA@GGBEDBMP@legospiderman_body_xyz_n_uv?4ply@ ; `string'
PUBLIC	??_C@_0CA@IEIIBLEM@legospiderman_head_xyz_n_uv?4ply@ ; `string'
PUBLIC	??_C@_0CA@NLPKPEHH@legospiderman_Hips_xyz_n_uv?4ply@ ; `string'
PUBLIC	??_C@_0CE@JJCNMGII@legospiderman_Left_arm_xyz_n_uv@ ; `string'
PUBLIC	??_C@_0CF@OPMHFMEC@legospiderman_Left_hand_xyz_n_u@ ; `string'
PUBLIC	??_C@_0CE@PHECNOGH@legospiderman_Left_leg_xyz_n_uv@ ; `string'
PUBLIC	??_C@_0CF@GDMBLCEP@legospiderman_Right_arm_xyz_n_u@ ; `string'
PUBLIC	??_C@_0CG@OKDNOHCF@legospiderman_Right_hand_xyz_n_@ ; `string'
PUBLIC	??_C@_0CF@NKOKKKA@legospiderman_Right_leg_xyz_n_u@ ; `string'
PUBLIC	??_C@_0BO@HDDLOPMK@assets?1models?1LEGO_Spiderman?1@ ; `string'
PUBLIC	??_C@_0CD@CGCDHAGP@Some?5spiderman?5meshes?5didn?8t?5lo@ ; `string'
PUBLIC	??_C@_01GPOEFGEJ@?7@				; `string'
PUBLIC	??_C@_0BD@CMGOJNCC@legospiderman_Hips@		; `string'
PUBLIC	??_C@_0BH@FDHPIGKC@SpidermanUV_square?4bmp@	; `string'
PUBLIC	??_C@_0BD@GDLEBGHN@legospiderman_body@		; `string'
PUBLIC	??_C@_0BD@LPBOEAEP@legospiderman_head@		; `string'
PUBLIC	??_C@_0BH@JLOBNKHL@legospiderman_Left_arm@	; `string'
PUBLIC	??_C@_0BI@ILCHMDJE@legospiderman_Left_hand@	; `string'
PUBLIC	??_C@_0CL@EEFLLFME@assets?1models?1Sphere_radius_1_x@ ; `string'
PUBLIC	??_C@_0BO@EBNHBAE@Forward?5Kinematic?5tip?5of?5hand@ ; `string'
PUBLIC	??_C@_0BI@ICDEAHMB@legospiderman_Right_arm@	; `string'
PUBLIC	??_C@_0BJ@KAIKEMNL@legospiderman_Right_hand@	; `string'
PUBLIC	??_C@_0BH@IKANFPNJ@legospiderman_Left_leg@	; `string'
PUBLIC	??_C@_0BI@JDNIICGD@legospiderman_Right_leg@	; `string'
PUBLIC	??_C@_0BE@MNOAEGMC@assets?1models?1House@	; `string'
PUBLIC	??_C@_0BC@ICJFNGGG@house_all_OBJ?4obj@		; `string'
PUBLIC	??_C@_05MPMLGICE@Walls@				; `string'
PUBLIC	??_C@_0BE@DGIIKBBF@house_walls_OBJ?4obj@	; `string'
PUBLIC	??_C@_0L@BIIMKMJH@HouseWalls@			; `string'
PUBLIC	??_C@_0CF@PBOOEFDH@House_UV2_BaseColor?41002_Flippe@ ; `string'
PUBLIC	??_C@_0CC@FKFMOLEA@House_UV2_Normal?41002_Flipped?4b@ ; `string'
PUBLIC	??_C@_04KJKGBMCE@roof@				; `string'
PUBLIC	??_C@_0BD@EGLDKJJG@house_roof_OBJ?4obj@		; `string'
PUBLIC	??_C@_09CCHBGOMB@HouseRoof@			; `string'
PUBLIC	??_C@_0CF@JIENNOBI@House_UV4_BaseColor?41004_Flippe@ ; `string'
PUBLIC	??_C@_0CC@JNEAHNEH@House_UV4_Normal?41004_Flipped?4b@ ; `string'
PUBLIC	??_C@_05PBJFFIGL@floor@				; `string'
PUBLIC	??_C@_0BE@ILKHMDLO@house_floor_OBJ?4obj@	; `string'
PUBLIC	??_C@_0L@CBHOJJOO@HouseFloor@			; `string'
PUBLIC	??_C@_0CF@POGHNGF@House_UV3_BaseColor?41003_Flippe@ ; `string'
PUBLIC	??_C@_0CC@CAEOKMKB@House_UV3_Normal?41003_Flipped?4b@ ; `string'
PUBLIC	??_C@_05NBJNJCJO@Glass@				; `string'
PUBLIC	??_C@_0BE@LELHMMOE@house_glass_OBJ?4obj@	; `string'
PUBLIC	??_C@_0L@GNKFGCN@HouseGlass@			; `string'
PUBLIC	??_C@_0CH@HBIJMJGG@House_glass_BaseColor?41005_Flip@ ; `string'
PUBLIC	??_C@_0BA@LJDBJJCK@Windowdoorframe@		; `string'
PUBLIC	??_C@_0BF@NELNNPKH@house_frames_OBJ?4obj@	; `string'
PUBLIC	??_C@_0M@HGANDLCH@HouseFrames@			; `string'
PUBLIC	??_C@_0CF@CIIHALIA@House_UV1_BaseColor?41001_Flippe@ ; `string'
PUBLIC	??_C@_0CC@NEGKCDGD@House_UV1_Normal?41001_Flipped?4b@ ; `string'
PUBLIC	??_C@_0CP@MBPDBPJ@assets?1models?12x2_Quad_for_FSQu@ ; `string'
PUBLIC	??_C@_0BB@CPJDNBFJ@Full_Screen_Quad@		; `string'
PUBLIC	??_C@_0DG@LOKHEEJF@assets?1models?1PhysX_Spere_radiu@ ; `string'
PUBLIC	??_C@_0N@CKPILHDD@pPhysXSphere@			; `string'
PUBLIC	??_C@_0BE@PEIFINBD@UV_Test_750x750?4bmp@	; `string'
PUBLIC	??_C@_0DK@OMNNJHKE@assets?1models?1PhysX_Cube_half?9e@ ; `string'
PUBLIC	??_C@_0L@KKNMIBBI@pPhysXCube@			; `string'
PUBLIC	??_C@_0BK@LHEDICJK@Canadian_Flag_Texture?4bmp@	; `string'
PUBLIC	??_C@_0DK@GFLEKMG@assets?1models?1PhysX_Cube_half?9e@ ; `string'
PUBLIC	??_C@_0M@NFJLEDGF@pPhysXCube1@			; `string'
PUBLIC	??_C@_0CA@OIHEENIG@assets?1models?1Smooth_Sphere?4ply@ ; `string'
PUBLIC	??_C@_09NACFNJIK@SkySphere@			; `string'
PUBLIC	??_C@_0BI@LLNKDFJC@bad_bunny_1920x1080?4bmp@	; `string'
PUBLIC	??_C@_0DE@HCAAHDPM@assets?1models?1Warehouse_xyz_n_u@ ; `string'
PUBLIC	??_C@_09NGEHBOBO@Warehouse@			; `string'
PUBLIC	??_C@_0BA@FOIKENOD@vector?5too?5long@		; `string'
PUBLIC	??_R4exception@std@@6B@				; std::exception::`RTTI Complete Object Locator'
PUBLIC	??_R2bad_array_new_length@std@@8		; std::bad_array_new_length::`RTTI Base Class Array'
PUBLIC	??_R0?AVbad_alloc@std@@@8			; std::bad_alloc `RTTI Type Descriptor'
PUBLIC	??_R2bad_alloc@std@@8				; std::bad_alloc::`RTTI Base Class Array'
PUBLIC	_CTA3?AVbad_array_new_length@std@@
PUBLIC	??_7bad_array_new_length@std@@6B@		; std::bad_array_new_length::`vftable'
PUBLIC	??_R1A@?0A@EA@exception@std@@8			; std::exception::`RTTI Base Class Descriptor at (0,-1,0,64)'
PUBLIC	??_R1A@?0A@EA@bad_alloc@std@@8			; std::bad_alloc::`RTTI Base Class Descriptor at (0,-1,0,64)'
PUBLIC	??_7bad_alloc@std@@6B@				; std::bad_alloc::`vftable'
PUBLIC	??_R2exception@std@@8				; std::exception::`RTTI Base Class Array'
PUBLIC	?g_pViperFlagConnector@@3PEAVcViperFlagConnector@@EA ; g_pViperFlagConnector
PUBLIC	??_7exception@std@@6B@				; std::exception::`vftable'
PUBLIC	??_R3exception@std@@8				; std::exception::`RTTI Class Hierarchy Descriptor'
PUBLIC	_CT??_R0?AVbad_array_new_length@std@@@8??0bad_array_new_length@std@@QEAA@AEBV01@@Z24
PUBLIC	??_R4bad_alloc@std@@6B@				; std::bad_alloc::`RTTI Complete Object Locator'
PUBLIC	??_R3bad_array_new_length@std@@8		; std::bad_array_new_length::`RTTI Class Hierarchy Descriptor'
PUBLIC	_CT??_R0?AVbad_alloc@std@@@8??0bad_alloc@std@@QEAA@AEBV01@@Z24
PUBLIC	??_R3bad_alloc@std@@8				; std::bad_alloc::`RTTI Class Hierarchy Descriptor'
PUBLIC	??_R4bad_array_new_length@std@@6B@		; std::bad_array_new_length::`RTTI Complete Object Locator'
PUBLIC	??_R1A@?0A@EA@bad_array_new_length@std@@8	; std::bad_array_new_length::`RTTI Base Class Descriptor at (0,-1,0,64)'
PUBLIC	_CT??_R0?AVexception@std@@@8??0exception@std@@QEAA@AEBV01@@Z24
PUBLIC	?g_pAssimp@@3PEAVcFileLoader@AH@@EA		; g_pAssimp
PUBLIC	_TI3?AVbad_array_new_length@std@@
PUBLIC	??_R0?AVexception@std@@@8			; std::exception `RTTI Type Descriptor'
PUBLIC	??_R0?AVbad_array_new_length@std@@@8		; std::bad_array_new_length `RTTI Type Descriptor'
EXTRN	__imp_?good@ios_base@std@@QEBA_NXZ:PROC
EXTRN	__imp_?flags@ios_base@std@@QEBAHXZ:PROC
EXTRN	__imp_?width@ios_base@std@@QEBA_JXZ:PROC
EXTRN	__imp_?width@ios_base@std@@QEAA_J_J@Z:PROC
EXTRN	__imp_??6?$basic_ostream@DU?$char_traits@D@std@@@std@@QEAAAEAV01@P6AAEAV01@AEAV01@@Z@Z:PROC
EXTRN	__imp_?sputc@?$basic_streambuf@DU?$char_traits@D@std@@@std@@QEAAHD@Z:PROC
EXTRN	__imp_?flush@?$basic_ostream@DU?$char_traits@D@std@@@std@@QEAAAEAV12@XZ:PROC
EXTRN	__imp_?put@?$basic_ostream@DU?$char_traits@D@std@@@std@@QEAAAEAV12@D@Z:PROC
EXTRN	__imp_?widen@?$basic_ios@DU?$char_traits@D@std@@@std@@QEBADD@Z:PROC
EXTRN	__imp_?fill@?$basic_ios@DU?$char_traits@D@std@@@std@@QEBADXZ:PROC
EXTRN	__imp_?rdbuf@?$basic_ios@DU?$char_traits@D@std@@@std@@QEBAPEAV?$basic_streambuf@DU?$char_traits@D@std@@@2@XZ:PROC
EXTRN	__imp_?setstate@?$basic_ios@DU?$char_traits@D@std@@@std@@QEAAXH_N@Z:PROC
EXTRN	__imp_?sputn@?$basic_streambuf@DU?$char_traits@D@std@@@std@@QEAA_JPEBD_J@Z:PROC
EXTRN	__imp_?_Osfx@?$basic_ostream@DU?$char_traits@D@std@@@std@@QEAAXXZ:PROC
EXTRN	__imp_?tie@?$basic_ios@DU?$char_traits@D@std@@@std@@QEBAPEAV?$basic_ostream@DU?$char_traits@D@std@@@2@XZ:PROC
EXTRN	__imp__invalid_parameter_noinfo_noreturn:PROC
EXTRN	??_7type_info@@6B@:BYTE				; type_info::`vftable'
EXTRN	__imp___std_terminate:PROC
EXTRN	??_U@YAPEAX_K@Z:PROC				; operator new[]
EXTRN	??3@YAXPEAX_K@Z:PROC				; operator delete
EXTRN	__imp___std_exception_copy:PROC
EXTRN	__imp_?_Xlength_error@std@@YAXPEBD@Z:PROC
EXTRN	__imp_?uncaught_exception@std@@YA_NXZ:PROC
EXTRN	__imp_?cout@std@@3V?$basic_ostream@DU?$char_traits@D@std@@@1@A:BYTE
EXTRN	??2@YAPEAX_K@Z:PROC				; operator new
EXTRN	__imp___std_exception_destroy:PROC
EXTRN	__security_check_cookie:PROC
EXTRN	__imp___CxxFrameHandler4:PROC
?g_pViperFlagConnector@@3PEAVcViperFlagConnector@@EA DQ 01H DUP (?) ; g_pViperFlagConnector
?g_pAssimp@@3PEAVcFileLoader@AH@@EA DQ 01H DUP (?)	; g_pAssimp
_BSS	ENDS
;	COMDAT ??_R0?AVbad_array_new_length@std@@@8
data$r	SEGMENT
??_R0?AVbad_array_new_length@std@@@8 DQ FLAT:??_7type_info@@6B@ ; std::bad_array_new_length `RTTI Type Descriptor'
	DQ	0000000000000000H
	DB	'.?AVbad_array_new_length@std@@', 00H
data$r	ENDS
;	COMDAT ??_R0?AVexception@std@@@8
data$r	SEGMENT
??_R0?AVexception@std@@@8 DQ FLAT:??_7type_info@@6B@	; std::exception `RTTI Type Descriptor'
	DQ	0000000000000000H
	DB	'.?AVexception@std@@', 00H
data$r	ENDS
;	COMDAT _TI3?AVbad_array_new_length@std@@
xdata$x	SEGMENT
_TI3?AVbad_array_new_length@std@@ DD 00H
	DD	imagerel ??1bad_array_new_length@std@@UEAA@XZ
	DD	00H
	DD	imagerel _CTA3?AVbad_array_new_length@std@@
xdata$x	ENDS
;	COMDAT _CT??_R0?AVexception@std@@@8??0exception@std@@QEAA@AEBV01@@Z24
xdata$x	SEGMENT
_CT??_R0?AVexception@std@@@8??0exception@std@@QEAA@AEBV01@@Z24 DD 00H
	DD	imagerel ??_R0?AVexception@std@@@8
	DD	00H
	DD	0ffffffffH
	ORG $+4
	DD	018H
	DD	imagerel ??0exception@std@@QEAA@AEBV01@@Z
xdata$x	ENDS
;	COMDAT ??_R1A@?0A@EA@bad_array_new_length@std@@8
rdata$r	SEGMENT
??_R1A@?0A@EA@bad_array_new_length@std@@8 DD imagerel ??_R0?AVbad_array_new_length@std@@@8 ; std::bad_array_new_length::`RTTI Base Class Descriptor at (0,-1,0,64)'
	DD	02H
	DD	00H
	DD	0ffffffffH
	DD	00H
	DD	040H
	DD	imagerel ??_R3bad_array_new_length@std@@8
rdata$r	ENDS
;	COMDAT ??_R4bad_array_new_length@std@@6B@
rdata$r	SEGMENT
??_R4bad_array_new_length@std@@6B@ DD 01H		; std::bad_array_new_length::`RTTI Complete Object Locator'
	DD	00H
	DD	00H
	DD	imagerel ??_R0?AVbad_array_new_length@std@@@8
	DD	imagerel ??_R3bad_array_new_length@std@@8
	DD	imagerel ??_R4bad_array_new_length@std@@6B@
rdata$r	ENDS
;	COMDAT ??_R3bad_alloc@std@@8
rdata$r	SEGMENT
??_R3bad_alloc@std@@8 DD 00H				; std::bad_alloc::`RTTI Class Hierarchy Descriptor'
	DD	00H
	DD	02H
	DD	imagerel ??_R2bad_alloc@std@@8
rdata$r	ENDS
;	COMDAT _CT??_R0?AVbad_alloc@std@@@8??0bad_alloc@std@@QEAA@AEBV01@@Z24
xdata$x	SEGMENT
_CT??_R0?AVbad_alloc@std@@@8??0bad_alloc@std@@QEAA@AEBV01@@Z24 DD 010H
	DD	imagerel ??_R0?AVbad_alloc@std@@@8
	DD	00H
	DD	0ffffffffH
	ORG $+4
	DD	018H
	DD	imagerel ??0bad_alloc@std@@QEAA@AEBV01@@Z
xdata$x	ENDS
;	COMDAT ??_R3bad_array_new_length@std@@8
rdata$r	SEGMENT
??_R3bad_array_new_length@std@@8 DD 00H			; std::bad_array_new_length::`RTTI Class Hierarchy Descriptor'
	DD	00H
	DD	03H
	DD	imagerel ??_R2bad_array_new_length@std@@8
rdata$r	ENDS
;	COMDAT ??_R4bad_alloc@std@@6B@
rdata$r	SEGMENT
??_R4bad_alloc@std@@6B@ DD 01H				; std::bad_alloc::`RTTI Complete Object Locator'
	DD	00H
	DD	00H
	DD	imagerel ??_R0?AVbad_alloc@std@@@8
	DD	imagerel ??_R3bad_alloc@std@@8
	DD	imagerel ??_R4bad_alloc@std@@6B@
?_Fake_alloc@std@@3U_Fake_allocator@1@B	ORG $+1		; std::_Fake_alloc
CONST	ENDS
;	COMDAT _CT??_R0?AVbad_array_new_length@std@@@8??0bad_array_new_length@std@@QEAA@AEBV01@@Z24
xdata$x	SEGMENT
_CT??_R0?AVbad_array_new_length@std@@@8??0bad_array_new_length@std@@QEAA@AEBV01@@Z24 DD 00H
	DD	imagerel ??_R0?AVbad_array_new_length@std@@@8
	DD	00H
	DD	0ffffffffH
	ORG $+4
	DD	018H
	DD	imagerel ??0bad_array_new_length@std@@QEAA@AEBV01@@Z
xdata$x	ENDS
;	COMDAT ??_R3exception@std@@8
rdata$r	SEGMENT
??_R3exception@std@@8 DD 00H				; std::exception::`RTTI Class Hierarchy Descriptor'
	DD	00H
	DD	01H
	DD	imagerel ??_R2exception@std@@8
rdata$r	ENDS
;	COMDAT ??_7exception@std@@6B@
CONST	SEGMENT
??_7exception@std@@6B@ DQ FLAT:??_R4exception@std@@6B@	; std::exception::`vftable'
	DQ	FLAT:??_Eexception@std@@UEAAPEAXI@Z
	DQ	FLAT:?what@exception@std@@UEBAPEBDXZ
CONST	ENDS
;	COMDAT ??_R2exception@std@@8
rdata$r	SEGMENT
??_R2exception@std@@8 DD imagerel ??_R1A@?0A@EA@exception@std@@8 ; std::exception::`RTTI Base Class Array'
	ORG $+3
rdata$r	ENDS
;	COMDAT ??_7bad_alloc@std@@6B@
CONST	SEGMENT
??_7bad_alloc@std@@6B@ DQ FLAT:??_R4bad_alloc@std@@6B@	; std::bad_alloc::`vftable'
	DQ	FLAT:??_Ebad_alloc@std@@UEAAPEAXI@Z
	DQ	FLAT:?what@exception@std@@UEBAPEBDXZ
CONST	ENDS
;	COMDAT ??_R1A@?0A@EA@bad_alloc@std@@8
rdata$r	SEGMENT
??_R1A@?0A@EA@bad_alloc@std@@8 DD imagerel ??_R0?AVbad_alloc@std@@@8 ; std::bad_alloc::`RTTI Base Class Descriptor at (0,-1,0,64)'
	DD	01H
	DD	00H
	DD	0ffffffffH
	DD	00H
	DD	040H
	DD	imagerel ??_R3bad_alloc@std@@8
rdata$r	ENDS
;	COMDAT ??_R1A@?0A@EA@exception@std@@8
rdata$r	SEGMENT
??_R1A@?0A@EA@exception@std@@8 DD imagerel ??_R0?AVexception@std@@@8 ; std::exception::`RTTI Base Class Descriptor at (0,-1,0,64)'
	DD	00H
	DD	00H
	DD	0ffffffffH
	DD	00H
	DD	040H
	DD	imagerel ??_R3exception@std@@8
rdata$r	ENDS
;	COMDAT ??_7bad_array_new_length@std@@6B@
CONST	SEGMENT
??_7bad_array_new_length@std@@6B@ DQ FLAT:??_R4bad_array_new_length@std@@6B@ ; std::bad_array_new_length::`vftable'
	DQ	FLAT:??_Ebad_array_new_length@std@@UEAAPEAXI@Z
	DQ	FLAT:?what@exception@std@@UEBAPEBDXZ
CONST	ENDS
;	COMDAT _CTA3?AVbad_array_new_length@std@@
xdata$x	SEGMENT
_CTA3?AVbad_array_new_length@std@@ DD 03H
	DD	imagerel _CT??_R0?AVbad_array_new_length@std@@@8??0bad_array_new_length@std@@QEAA@AEBV01@@Z24
	DD	imagerel _CT??_R0?AVbad_alloc@std@@@8??0bad_alloc@std@@QEAA@AEBV01@@Z24
	DD	imagerel _CT??_R0?AVexception@std@@@8??0exception@std@@QEAA@AEBV01@@Z24
xdata$x	ENDS
;	COMDAT ??_R2bad_alloc@std@@8
rdata$r	SEGMENT
??_R2bad_alloc@std@@8 DD imagerel ??_R1A@?0A@EA@bad_alloc@std@@8 ; std::bad_alloc::`RTTI Base Class Array'
	DD	imagerel ??_R1A@?0A@EA@exception@std@@8
	ORG $+3
rdata$r	ENDS
;	COMDAT ??_R0?AVbad_alloc@std@@@8
data$r	SEGMENT
??_R0?AVbad_alloc@std@@@8 DQ FLAT:??_7type_info@@6B@	; std::bad_alloc `RTTI Type Descriptor'
	DQ	0000000000000000H
	DB	'.?AVbad_alloc@std@@', 00H
data$r	ENDS
;	COMDAT ??_R2bad_array_new_length@std@@8
rdata$r	SEGMENT
??_R2bad_array_new_length@std@@8 DD imagerel ??_R1A@?0A@EA@bad_array_new_length@std@@8 ; std::bad_array_new_length::`RTTI Base Class Array'
	DD	imagerel ??_R1A@?0A@EA@bad_alloc@std@@8
	DD	imagerel ??_R1A@?0A@EA@exception@std@@8
	ORG $+3
rdata$r	ENDS
;	COMDAT ??_R4exception@std@@6B@
rdata$r	SEGMENT
??_R4exception@std@@6B@ DD 01H				; std::exception::`RTTI Complete Object Locator'
	DD	00H
	DD	00H
	DD	imagerel ??_R0?AVexception@std@@@8
	DD	imagerel ??_R3exception@std@@8
	DD	imagerel ??_R4exception@std@@6B@
rdata$r	ENDS
;	COMDAT ??_C@_0BA@FOIKENOD@vector?5too?5long@
CONST	SEGMENT
??_C@_0BA@FOIKENOD@vector?5too?5long@ DB 'vector too long', 00H ; `string'
CONST	ENDS
;	COMDAT ??_C@_09NGEHBOBO@Warehouse@
CONST	SEGMENT
??_C@_09NGEHBOBO@Warehouse@ DB 'Warehouse', 00H		; `string'
CONST	ENDS
;	COMDAT ??_C@_0DE@HCAAHDPM@assets?1models?1Warehouse_xyz_n_u@
CONST	SEGMENT
??_C@_0DE@HCAAHDPM@assets?1models?1Warehouse_xyz_n_u@ DB 'assets/models/W'
	DB	'arehouse_xyz_n_uv (wall removed).ply', 00H	; `string'
CONST	ENDS
;	COMDAT ??_C@_0BI@LLNKDFJC@bad_bunny_1920x1080?4bmp@
CONST	SEGMENT
??_C@_0BI@LLNKDFJC@bad_bunny_1920x1080?4bmp@ DB 'bad_bunny_1920x1080.bmp', 00H ; `string'
CONST	ENDS
;	COMDAT ??_C@_09NACFNJIK@SkySphere@
CONST	SEGMENT
??_C@_09NACFNJIK@SkySphere@ DB 'SkySphere', 00H		; `string'
CONST	ENDS
;	COMDAT ??_C@_0CA@OIHEENIG@assets?1models?1Smooth_Sphere?4ply@
CONST	SEGMENT
??_C@_0CA@OIHEENIG@assets?1models?1Smooth_Sphere?4ply@ DB 'assets/models/'
	DB	'Smooth_Sphere.ply', 00H			; `string'
CONST	ENDS
;	COMDAT ??_C@_0M@NFJLEDGF@pPhysXCube1@
CONST	SEGMENT
??_C@_0M@NFJLEDGF@pPhysXCube1@ DB 'pPhysXCube1', 00H	; `string'
CONST	ENDS
;	COMDAT ??_C@_0DK@GFLEKMG@assets?1models?1PhysX_Cube_half?9e@
CONST	SEGMENT
??_C@_0DK@GFLEKMG@assets?1models?1PhysX_Cube_half?9e@ DB 'assets/models/P'
	DB	'hysX_Cube_half-extent_of_1.0f_xyz_n_uv.ply', 00H ; `string'
CONST	ENDS
;	COMDAT ??_C@_0BK@LHEDICJK@Canadian_Flag_Texture?4bmp@
CONST	SEGMENT
??_C@_0BK@LHEDICJK@Canadian_Flag_Texture?4bmp@ DB 'Canadian_Flag_Texture.'
	DB	'bmp', 00H					; `string'
CONST	ENDS
;	COMDAT ??_C@_0L@KKNMIBBI@pPhysXCube@
CONST	SEGMENT
??_C@_0L@KKNMIBBI@pPhysXCube@ DB 'pPhysXCube', 00H	; `string'
CONST	ENDS
;	COMDAT ??_C@_0DK@OMNNJHKE@assets?1models?1PhysX_Cube_half?9e@
CONST	SEGMENT
??_C@_0DK@OMNNJHKE@assets?1models?1PhysX_Cube_half?9e@ DB 'assets/models/'
	DB	'PhysX_Cube_half-extent_of_2.0f_xyz_n_uv.ply', 00H ; `string'
CONST	ENDS
;	COMDAT ??_C@_0BE@PEIFINBD@UV_Test_750x750?4bmp@
CONST	SEGMENT
??_C@_0BE@PEIFINBD@UV_Test_750x750?4bmp@ DB 'UV_Test_750x750.bmp', 00H ; `string'
CONST	ENDS
;	COMDAT ??_C@_0N@CKPILHDD@pPhysXSphere@
CONST	SEGMENT
??_C@_0N@CKPILHDD@pPhysXSphere@ DB 'pPhysXSphere', 00H	; `string'
CONST	ENDS
;	COMDAT ??_C@_0DG@LOKHEEJF@assets?1models?1PhysX_Spere_radiu@
CONST	SEGMENT
??_C@_0DG@LOKHEEJF@assets?1models?1PhysX_Spere_radiu@ DB 'assets/models/P'
	DB	'hysX_Spere_radius_of_3.0f_xyz_n_uv.ply', 00H ; `string'
CONST	ENDS
;	COMDAT ??_C@_0BB@CPJDNBFJ@Full_Screen_Quad@
CONST	SEGMENT
??_C@_0BB@CPJDNBFJ@Full_Screen_Quad@ DB 'Full_Screen_Quad', 00H ; `string'
CONST	ENDS
;	COMDAT ??_C@_0CP@MBPDBPJ@assets?1models?12x2_Quad_for_FSQu@
CONST	SEGMENT
??_C@_0CP@MBPDBPJ@assets?1models?12x2_Quad_for_FSQu@ DB 'assets/models/2x'
	DB	'2_Quad_for_FSQuad_xyz_n_uv.ply', 00H	; `string'
CONST	ENDS
;	COMDAT ??_C@_0CC@NEGKCDGD@House_UV1_Normal?41001_Flipped?4b@
CONST	SEGMENT
??_C@_0CC@NEGKCDGD@House_UV1_Normal?41001_Flipped?4b@ DB 'House_UV1_Norma'
	DB	'l.1001_Flipped.bmp', 00H			; `string'
CONST	ENDS
;	COMDAT ??_C@_0CF@CIIHALIA@House_UV1_BaseColor?41001_Flippe@
CONST	SEGMENT
??_C@_0CF@CIIHALIA@House_UV1_BaseColor?41001_Flippe@ DB 'House_UV1_BaseCo'
	DB	'lor.1001_Flipped.bmp', 00H			; `string'
CONST	ENDS
;	COMDAT ??_C@_0M@HGANDLCH@HouseFrames@
CONST	SEGMENT
??_C@_0M@HGANDLCH@HouseFrames@ DB 'HouseFrames', 00H	; `string'
CONST	ENDS
;	COMDAT ??_C@_0BF@NELNNPKH@house_frames_OBJ?4obj@
CONST	SEGMENT
??_C@_0BF@NELNNPKH@house_frames_OBJ?4obj@ DB 'house_frames_OBJ.obj', 00H ; `string'
CONST	ENDS
;	COMDAT ??_C@_0BA@LJDBJJCK@Windowdoorframe@
CONST	SEGMENT
??_C@_0BA@LJDBJJCK@Windowdoorframe@ DB 'Windowdoorframe', 00H ; `string'
CONST	ENDS
;	COMDAT ??_C@_0CH@HBIJMJGG@House_glass_BaseColor?41005_Flip@
CONST	SEGMENT
??_C@_0CH@HBIJMJGG@House_glass_BaseColor?41005_Flip@ DB 'House_glass_Base'
	DB	'Color.1005_Flipped.bmp', 00H		; `string'
CONST	ENDS
;	COMDAT ??_C@_0L@GNKFGCN@HouseGlass@
CONST	SEGMENT
??_C@_0L@GNKFGCN@HouseGlass@ DB 'HouseGlass', 00H	; `string'
CONST	ENDS
;	COMDAT ??_C@_0BE@LELHMMOE@house_glass_OBJ?4obj@
CONST	SEGMENT
??_C@_0BE@LELHMMOE@house_glass_OBJ?4obj@ DB 'house_glass_OBJ.obj', 00H ; `string'
CONST	ENDS
;	COMDAT ??_C@_05NBJNJCJO@Glass@
CONST	SEGMENT
??_C@_05NBJNJCJO@Glass@ DB 'Glass', 00H			; `string'
CONST	ENDS
;	COMDAT ??_C@_0CC@CAEOKMKB@House_UV3_Normal?41003_Flipped?4b@
CONST	SEGMENT
??_C@_0CC@CAEOKMKB@House_UV3_Normal?41003_Flipped?4b@ DB 'House_UV3_Norma'
	DB	'l.1003_Flipped.bmp', 00H			; `string'
CONST	ENDS
;	COMDAT ??_C@_0CF@POGHNGF@House_UV3_BaseColor?41003_Flippe@
CONST	SEGMENT
??_C@_0CF@POGHNGF@House_UV3_BaseColor?41003_Flippe@ DB 'House_UV3_BaseCol'
	DB	'or.1003_Flipped.bmp', 00H			; `string'
CONST	ENDS
;	COMDAT ??_C@_0L@CBHOJJOO@HouseFloor@
CONST	SEGMENT
??_C@_0L@CBHOJJOO@HouseFloor@ DB 'HouseFloor', 00H	; `string'
CONST	ENDS
;	COMDAT ??_C@_0BE@ILKHMDLO@house_floor_OBJ?4obj@
CONST	SEGMENT
??_C@_0BE@ILKHMDLO@house_floor_OBJ?4obj@ DB 'house_floor_OBJ.obj', 00H ; `string'
CONST	ENDS
;	COMDAT ??_C@_05PBJFFIGL@floor@
CONST	SEGMENT
??_C@_05PBJFFIGL@floor@ DB 'floor', 00H			; `string'
CONST	ENDS
;	COMDAT ??_C@_0CC@JNEAHNEH@House_UV4_Normal?41004_Flipped?4b@
CONST	SEGMENT
??_C@_0CC@JNEAHNEH@House_UV4_Normal?41004_Flipped?4b@ DB 'House_UV4_Norma'
	DB	'l.1004_Flipped.bmp', 00H			; `string'
CONST	ENDS
;	COMDAT ??_C@_0CF@JIENNOBI@House_UV4_BaseColor?41004_Flippe@
CONST	SEGMENT
??_C@_0CF@JIENNOBI@House_UV4_BaseColor?41004_Flippe@ DB 'House_UV4_BaseCo'
	DB	'lor.1004_Flipped.bmp', 00H			; `string'
CONST	ENDS
;	COMDAT ??_C@_09CCHBGOMB@HouseRoof@
CONST	SEGMENT
??_C@_09CCHBGOMB@HouseRoof@ DB 'HouseRoof', 00H		; `string'
CONST	ENDS
;	COMDAT ??_C@_0BD@EGLDKJJG@house_roof_OBJ?4obj@
CONST	SEGMENT
??_C@_0BD@EGLDKJJG@house_roof_OBJ?4obj@ DB 'house_roof_OBJ.obj', 00H ; `string'
CONST	ENDS
;	COMDAT ??_C@_04KJKGBMCE@roof@
CONST	SEGMENT
??_C@_04KJKGBMCE@roof@ DB 'roof', 00H			; `string'
CONST	ENDS
;	COMDAT ??_C@_0CC@FKFMOLEA@House_UV2_Normal?41002_Flipped?4b@
CONST	SEGMENT
??_C@_0CC@FKFMOLEA@House_UV2_Normal?41002_Flipped?4b@ DB 'House_UV2_Norma'
	DB	'l.1002_Flipped.bmp', 00H			; `string'
CONST	ENDS
;	COMDAT ??_C@_0CF@PBOOEFDH@House_UV2_BaseColor?41002_Flippe@
CONST	SEGMENT
??_C@_0CF@PBOOEFDH@House_UV2_BaseColor?41002_Flippe@ DB 'House_UV2_BaseCo'
	DB	'lor.1002_Flipped.bmp', 00H			; `string'
CONST	ENDS
;	COMDAT ??_C@_0L@BIIMKMJH@HouseWalls@
CONST	SEGMENT
??_C@_0L@BIIMKMJH@HouseWalls@ DB 'HouseWalls', 00H	; `string'
CONST	ENDS
;	COMDAT ??_C@_0BE@DGIIKBBF@house_walls_OBJ?4obj@
CONST	SEGMENT
??_C@_0BE@DGIIKBBF@house_walls_OBJ?4obj@ DB 'house_walls_OBJ.obj', 00H ; `string'
CONST	ENDS
;	COMDAT ??_C@_05MPMLGICE@Walls@
CONST	SEGMENT
??_C@_05MPMLGICE@Walls@ DB 'Walls', 00H			; `string'
CONST	ENDS
;	COMDAT ??_C@_0BC@ICJFNGGG@house_all_OBJ?4obj@
CONST	SEGMENT
??_C@_0BC@ICJFNGGG@house_all_OBJ?4obj@ DB 'house_all_OBJ.obj', 00H ; `string'
CONST	ENDS
;	COMDAT ??_C@_0BE@MNOAEGMC@assets?1models?1House@
CONST	SEGMENT
??_C@_0BE@MNOAEGMC@assets?1models?1House@ DB 'assets/models/House', 00H ; `string'
CONST	ENDS
;	COMDAT ??_C@_0BI@JDNIICGD@legospiderman_Right_leg@
CONST	SEGMENT
??_C@_0BI@JDNIICGD@legospiderman_Right_leg@ DB 'legospiderman_Right_leg', 00H ; `string'
CONST	ENDS
;	COMDAT ??_C@_0BH@IKANFPNJ@legospiderman_Left_leg@
CONST	SEGMENT
??_C@_0BH@IKANFPNJ@legospiderman_Left_leg@ DB 'legospiderman_Left_leg', 00H ; `string'
CONST	ENDS
;	COMDAT ??_C@_0BJ@KAIKEMNL@legospiderman_Right_hand@
CONST	SEGMENT
??_C@_0BJ@KAIKEMNL@legospiderman_Right_hand@ DB 'legospiderman_Right_hand'
	DB	00H						; `string'
CONST	ENDS
;	COMDAT ??_C@_0BI@ICDEAHMB@legospiderman_Right_arm@
CONST	SEGMENT
??_C@_0BI@ICDEAHMB@legospiderman_Right_arm@ DB 'legospiderman_Right_arm', 00H ; `string'
CONST	ENDS
;	COMDAT ??_C@_0BO@EBNHBAE@Forward?5Kinematic?5tip?5of?5hand@
CONST	SEGMENT
??_C@_0BO@EBNHBAE@Forward?5Kinematic?5tip?5of?5hand@ DB 'Forward Kinemati'
	DB	'c tip of hand', 00H				; `string'
CONST	ENDS
;	COMDAT ??_C@_0CL@EEFLLFME@assets?1models?1Sphere_radius_1_x@
CONST	SEGMENT
??_C@_0CL@EEFLLFME@assets?1models?1Sphere_radius_1_x@ DB 'assets/models/S'
	DB	'phere_radius_1_xyz_N_uv.ply', 00H		; `string'
CONST	ENDS
;	COMDAT ??_C@_0BI@ILCHMDJE@legospiderman_Left_hand@
CONST	SEGMENT
??_C@_0BI@ILCHMDJE@legospiderman_Left_hand@ DB 'legospiderman_Left_hand', 00H ; `string'
CONST	ENDS
;	COMDAT ??_C@_0BH@JLOBNKHL@legospiderman_Left_arm@
CONST	SEGMENT
??_C@_0BH@JLOBNKHL@legospiderman_Left_arm@ DB 'legospiderman_Left_arm', 00H ; `string'
CONST	ENDS
;	COMDAT ??_C@_0BD@LPBOEAEP@legospiderman_head@
CONST	SEGMENT
??_C@_0BD@LPBOEAEP@legospiderman_head@ DB 'legospiderman_head', 00H ; `string'
CONST	ENDS
;	COMDAT ??_C@_0BD@GDLEBGHN@legospiderman_body@
CONST	SEGMENT
??_C@_0BD@GDLEBGHN@legospiderman_body@ DB 'legospiderman_body', 00H ; `string'
CONST	ENDS
;	COMDAT ??_C@_0BH@FDHPIGKC@SpidermanUV_square?4bmp@
CONST	SEGMENT
??_C@_0BH@FDHPIGKC@SpidermanUV_square?4bmp@ DB 'SpidermanUV_square.bmp', 00H ; `string'
CONST	ENDS
;	COMDAT ??_C@_0BD@CMGOJNCC@legospiderman_Hips@
CONST	SEGMENT
??_C@_0BD@CMGOJNCC@legospiderman_Hips@ DB 'legospiderman_Hips', 00H ; `string'
CONST	ENDS
;	COMDAT ??_C@_01GPOEFGEJ@?7@
CONST	SEGMENT
??_C@_01GPOEFGEJ@?7@ DB 09H, 00H			; `string'
CONST	ENDS
;	COMDAT ??_C@_0CD@CGCDHAGP@Some?5spiderman?5meshes?5didn?8t?5lo@
CONST	SEGMENT
??_C@_0CD@CGCDHAGP@Some?5spiderman?5meshes?5didn?8t?5lo@ DB 'Some spiderm'
	DB	'an meshes didn''t load:', 00H		; `string'
CONST	ENDS
;	COMDAT ??_C@_0BO@HDDLOPMK@assets?1models?1LEGO_Spiderman?1@
CONST	SEGMENT
??_C@_0BO@HDDLOPMK@assets?1models?1LEGO_Spiderman?1@ DB 'assets/models/LE'
	DB	'GO_Spiderman/', 00H				; `string'
CONST	ENDS
;	COMDAT ??_C@_0CF@NKOKKKA@legospiderman_Right_leg_xyz_n_u@
CONST	SEGMENT
??_C@_0CF@NKOKKKA@legospiderman_Right_leg_xyz_n_u@ DB 'legospiderman_Righ'
	DB	't_leg_xyz_n_uv.ply', 00H			; `string'
CONST	ENDS
;	COMDAT ??_C@_0CG@OKDNOHCF@legospiderman_Right_hand_xyz_n_@
CONST	SEGMENT
??_C@_0CG@OKDNOHCF@legospiderman_Right_hand_xyz_n_@ DB 'legospiderman_Rig'
	DB	'ht_hand_xyz_n_uv.ply', 00H			; `string'
CONST	ENDS
;	COMDAT ??_C@_0CF@GDMBLCEP@legospiderman_Right_arm_xyz_n_u@
CONST	SEGMENT
??_C@_0CF@GDMBLCEP@legospiderman_Right_arm_xyz_n_u@ DB 'legospiderman_Rig'
	DB	'ht_arm_xyz_n_uv.ply', 00H			; `string'
CONST	ENDS
;	COMDAT ??_C@_0CE@PHECNOGH@legospiderman_Left_leg_xyz_n_uv@
CONST	SEGMENT
??_C@_0CE@PHECNOGH@legospiderman_Left_leg_xyz_n_uv@ DB 'legospiderman_Lef'
	DB	't_leg_xyz_n_uv.ply', 00H			; `string'
CONST	ENDS
;	COMDAT ??_C@_0CF@OPMHFMEC@legospiderman_Left_hand_xyz_n_u@
CONST	SEGMENT
??_C@_0CF@OPMHFMEC@legospiderman_Left_hand_xyz_n_u@ DB 'legospiderman_Lef'
	DB	't_hand_xyz_n_uv.ply', 00H			; `string'
CONST	ENDS
;	COMDAT ??_C@_0CE@JJCNMGII@legospiderman_Left_arm_xyz_n_uv@
CONST	SEGMENT
??_C@_0CE@JJCNMGII@legospiderman_Left_arm_xyz_n_uv@ DB 'legospiderman_Lef'
	DB	't_arm_xyz_n_uv.ply', 00H			; `string'
CONST	ENDS
;	COMDAT ??_C@_0CA@NLPKPEHH@legospiderman_Hips_xyz_n_uv?4ply@
CONST	SEGMENT
??_C@_0CA@NLPKPEHH@legospiderman_Hips_xyz_n_uv?4ply@ DB 'legospiderman_Hi'
	DB	'ps_xyz_n_uv.ply', 00H			; `string'
CONST	ENDS
;	COMDAT ??_C@_0CA@IEIIBLEM@legospiderman_head_xyz_n_uv?4ply@
CONST	SEGMENT
??_C@_0CA@IEIIBLEM@legospiderman_head_xyz_n_uv?4ply@ DB 'legospiderman_he'
	DB	'ad_xyz_n_uv.ply', 00H			; `string'
CONST	ENDS
;	COMDAT ??_C@_0CA@GGBEDBMP@legospiderman_body_xyz_n_uv?4ply@
CONST	SEGMENT
??_C@_0CA@GGBEDBMP@legospiderman_body_xyz_n_uv?4ply@ DB 'legospiderman_bo'
	DB	'dy_xyz_n_uv.ply', 00H			; `string'
CONST	ENDS
;	COMDAT ??_C@_0P@DNBJDHIP@assets?1models?1@
CONST	SEGMENT
??_C@_0P@DNBJDHIP@assets?1models?1@ DB 'assets/models/', 00H ; `string'
CONST	ENDS
;	COMDAT ??_C@_0CI@MOJEMMFK@bun_zipper_LOD_res4_n_uv?5?$CI948?5t@
CONST	SEGMENT
??_C@_0CI@MOJEMMFK@bun_zipper_LOD_res4_n_uv?5?$CI948?5t@ DB 'bun_zipper_L'
	DB	'OD_res4_n_uv (948 tris).ply', 00H		; `string'
CONST	ENDS
;	COMDAT ??_C@_0CK@NIMCCDGI@bun_zipper_LOD_res3_n_uv?5?$CI3?0851@
CONST	SEGMENT
??_C@_0CK@NIMCCDGI@bun_zipper_LOD_res3_n_uv?5?$CI3?0851@ DB 'bun_zipper_L'
	DB	'OD_res3_n_uv (3,851 tris).ply', 00H		; `string'
CONST	ENDS
;	COMDAT ??_C@_0CL@LJKOPFPI@bun_zipper_LOD_res2_n_uv?5?$CI16?030@
CONST	SEGMENT
??_C@_0CL@LJKOPFPI@bun_zipper_LOD_res2_n_uv?5?$CI16?030@ DB 'bun_zipper_L'
	DB	'OD_res2_n_uv (16,301 tris).ply', 00H	; `string'
CONST	ENDS
;	COMDAT ??_C@_0CL@FKNJEBAJ@bun_zipper_LOD_res1_n_uv?5?$CI69?045@
CONST	SEGMENT
??_C@_0CL@FKNJEBAJ@bun_zipper_LOD_res1_n_uv?5?$CI69?045@ DB 'bun_zipper_L'
	DB	'OD_res1_n_uv (69,451 tris).ply', 00H	; `string'
CONST	ENDS
;	COMDAT ??_C@_0BA@OAHKGGGM@solid_white?4bmp@
CONST	SEGMENT
??_C@_0BA@OAHKGGGM@solid_white?4bmp@ DB 'solid_white.bmp', 00H ; `string'
CONST	ENDS
;	COMDAT ??_C@_09PCCDMDEJ@LightBulb@
CONST	SEGMENT
??_C@_09PCCDMDEJ@LightBulb@ DB 'LightBulb', 00H		; `string'
CONST	ENDS
;	COMDAT ??_C@_0EE@JOECCEAP@assets?1models?1Lightbulb?1lightbu@
CONST	SEGMENT
??_C@_0EE@JOECCEAP@assets?1models?1Lightbulb?1lightbu@ DB 'assets/models/'
	DB	'Lightbulb/lightbulb (unit size, inverted normals).ply', 00H ; `string'
CONST	ENDS
;	COMDAT ??_C@_0CC@KINPFAFM@red?9hot?9fire?9flames?91024x1024?4b@
CONST	SEGMENT
??_C@_0CC@KINPFAFM@red?9hot?9fire?9flames?91024x1024?4b@ DB 'red-hot-fire'
	DB	'-flames-1024x1024.bmp', 00H			; `string'
CONST	ENDS
;	COMDAT ??_C@_0M@PJOCGOJH@FlameSphere@
CONST	SEGMENT
??_C@_0M@PJOCGOJH@FlameSphere@ DB 'FlameSphere', 00H	; `string'
CONST	ENDS
;	COMDAT ??_C@_0DE@MHDDJBDE@assets?1models?1Sphere_radius_1_x@
CONST	SEGMENT
??_C@_0DE@MHDDJBDE@assets?1models?1Sphere_radius_1_x@ DB 'assets/models/S'
	DB	'phere_radius_1_xyz_N_uv_64_faces.ply', 00H	; `string'
CONST	ENDS
;	COMDAT ??_C@_0O@FMELGIDA@QuarterCandle@
CONST	SEGMENT
??_C@_0O@FMELGIDA@QuarterCandle@ DB 'QuarterCandle', 00H ; `string'
CONST	ENDS
;	COMDAT ??_C@_0BC@OEKADHL@QuarterCandle?4obj@
CONST	SEGMENT
??_C@_0BC@OEKADHL@QuarterCandle?4obj@ DB 'QuarterCandle.obj', 00H ; `string'
CONST	ENDS
;	COMDAT ??_C@_0BN@NKKLKACJ@Candle_Stick_OBJ_quarter?4obj@
CONST	SEGMENT
??_C@_0BN@NKKLKACJ@Candle_Stick_OBJ_quarter?4obj@ DB 'Candle_Stick_OBJ_qu'
	DB	'arter.obj', 00H				; `string'
CONST	ENDS
;	COMDAT ??_C@_0L@BHEPLFLO@HalfCandle@
CONST	SEGMENT
??_C@_0L@BHEPLFLO@HalfCandle@ DB 'HalfCandle', 00H	; `string'
CONST	ENDS
;	COMDAT ??_C@_0P@DPPDJAM@HalfCandle?4obj@
CONST	SEGMENT
??_C@_0P@DPPDJAM@HalfCandle?4obj@ DB 'HalfCandle.obj', 00H ; `string'
CONST	ENDS
;	COMDAT ??_C@_0BB@LCDOHDGM@Candle_Stick_OBJ@
CONST	SEGMENT
??_C@_0BB@LCDOHDGM@Candle_Stick_OBJ@ DB 'Candle_Stick_OBJ', 00H ; `string'
CONST	ENDS
;	COMDAT ??_C@_0BK@NPHNPGGL@Candle_Stick_OBJ_half?4obj@
CONST	SEGMENT
??_C@_0BK@NPHNPGGL@Candle_Stick_OBJ_half?4obj@ DB 'Candle_Stick_OBJ_half.'
	DB	'obj', 00H					; `string'
CONST	ENDS
;	COMDAT ??_C@_0BM@JHCPPJMI@Candle_LP_Candle_Normal?4bmp@
CONST	SEGMENT
??_C@_0BM@JHCPPJMI@Candle_LP_Candle_Normal?4bmp@ DB 'Candle_LP_Candle_Nor'
	DB	'mal.bmp', 00H				; `string'
CONST	ENDS
;	COMDAT ??_C@_0BP@PDJAAEOE@Candle_LP_Candle_BaseColor?4bmp@
CONST	SEGMENT
??_C@_0BP@PDJAAEOE@Candle_LP_Candle_BaseColor?4bmp@ DB 'Candle_LP_Candle_'
	DB	'BaseColor.bmp', 00H				; `string'
CONST	ENDS
;	COMDAT ??_C@_06BPNJJHEE@Candle@
CONST	SEGMENT
??_C@_06BPNJJHEE@Candle@ DB 'Candle', 00H		; `string'
CONST	ENDS
;	COMDAT ??_C@_0L@PICNPIOP@Candle?4obj@
CONST	SEGMENT
??_C@_0L@PICNPIOP@Candle?4obj@ DB 'Candle.obj', 00H	; `string'
CONST	ENDS
;	COMDAT ??_C@_06JEGKHCDD@group2@
CONST	SEGMENT
??_C@_06JEGKHCDD@group2@ DB 'group2', 00H		; `string'
CONST	ENDS
;	COMDAT ??_C@_0BF@IKBILNDM@Candle_Stick_OBJ?4obj@
CONST	SEGMENT
??_C@_0BF@IKBILNDM@Candle_Stick_OBJ?4obj@ DB 'Candle_Stick_OBJ.obj', 00H ; `string'
CONST	ENDS
;	COMDAT ??_C@_0BF@IAAPBLII@assets?1models?1Candle@
CONST	SEGMENT
??_C@_0BF@IAAPBLII@assets?1models?1Candle@ DB 'assets/models/Candle', 00H ; `string'
CONST	ENDS
;	COMDAT ??_C@_0L@PDJDLHFN@scooby?4bmp@
CONST	SEGMENT
??_C@_0L@PDJDLHFN@scooby?4bmp@ DB 'scooby.bmp', 00H	; `string'
CONST	ENDS
;	COMDAT ??_C@_06DDEHHEGH@Scooby@
CONST	SEGMENT
??_C@_06DDEHHEGH@Scooby@ DB 'Scooby', 00H		; `string'
CONST	ENDS
;	COMDAT ??_C@_0L@DMBEFNLB@Scooby?4obj@
CONST	SEGMENT
??_C@_0L@DMBEFNLB@Scooby?4obj@ DB 'Scooby.obj', 00H	; `string'
CONST	ENDS
;	COMDAT ??_C@_08DCKFADKE@Cube?4001@
CONST	SEGMENT
??_C@_08DCKFADKE@Cube?4001@ DB 'Cube.001', 00H		; `string'
CONST	ENDS
;	COMDAT ??_C@_0L@LKIINCGG@scooby?4obj@
CONST	SEGMENT
??_C@_0L@LKIINCGG@scooby?4obj@ DB 'scooby.obj', 00H	; `string'
CONST	ENDS
;	COMDAT ??_C@_0BF@KMJBPIKL@assets?1models?1Scooby@
CONST	SEGMENT
??_C@_0BF@KMJBPIKL@assets?1models?1Scooby@ DB 'assets/models/Scooby', 00H ; `string'
CONST	ENDS
;	COMDAT ??_C@_0BC@PMFGPOG@QuarterChandelier@
CONST	SEGMENT
??_C@_0BC@PMFGPOG@QuarterChandelier@ DB 'QuarterChandelier', 00H ; `string'
CONST	ENDS
;	COMDAT ??_C@_0BG@FPFIEGDA@QuarterChandelier?4obj@
CONST	SEGMENT
??_C@_0BG@FPFIEGDA@QuarterChandelier?4obj@ DB 'QuarterChandelier.obj', 00H ; `string'
CONST	ENDS
;	COMDAT ??_C@_0BH@LEDJNBMK@chandelier_quarter?4obj@
CONST	SEGMENT
??_C@_0BH@LEDJNBMK@chandelier_quarter?4obj@ DB 'chandelier_quarter.obj', 00H ; `string'
CONST	ENDS
;	COMDAT ??_C@_0P@CHAFFJB@HalfChandelier@
CONST	SEGMENT
??_C@_0P@CHAFFJB@HalfChandelier@ DB 'HalfChandelier', 00H ; `string'
CONST	ENDS
;	COMDAT ??_C@_0BD@GHEPJIBD@HalfChandelier?4obj@
CONST	SEGMENT
??_C@_0BD@GHEPJIBD@HalfChandelier?4obj@ DB 'HalfChandelier.obj', 00H ; `string'
CONST	ENDS
;	COMDAT ??_C@_0BE@GFGBPFBM@chandelier_half?4obj@
CONST	SEGMENT
??_C@_0BE@GFGBPFBM@chandelier_half?4obj@ DB 'chandelier_half.obj', 00H ; `string'
CONST	ENDS
;	COMDAT ??_C@_0CF@MAONKMPJ@chandelier_low_defaultMat_Norma@
CONST	SEGMENT
??_C@_0CF@MAONKMPJ@chandelier_low_defaultMat_Norma@ DB 'chandelier_low_de'
	DB	'faultMat_Normal.bmp', 00H			; `string'
CONST	ENDS
;	COMDAT ??_C@_0CI@GEJPIBJJ@chandelier_low_defaultMat_BaseC@
CONST	SEGMENT
??_C@_0CI@GEJPIBJJ@chandelier_low_defaultMat_BaseC@ DB 'chandelier_low_de'
	DB	'faultMat_BaseColor.bmp', 00H		; `string'
CONST	ENDS
;	COMDAT ??_C@_0L@PJKCJEHC@Chandelier@
CONST	SEGMENT
??_C@_0L@PJKCJEHC@Chandelier@ DB 'Chandelier', 00H	; `string'
CONST	ENDS
;	COMDAT ??_C@_0P@KKIJAGLL@Chandelier?4obj@
CONST	SEGMENT
??_C@_0P@KKIJAGLL@Chandelier?4obj@ DB 'Chandelier.obj', 00H ; `string'
CONST	ENDS
;	COMDAT ??_C@_0M@LKJIJDJM@BezierCurve@
CONST	SEGMENT
??_C@_0M@LKJIJDJM@BezierCurve@ DB 'BezierCurve', 00H	; `string'
CONST	ENDS
;	COMDAT ??_C@_0P@CCEMDICF@chandelier?4obj@
CONST	SEGMENT
??_C@_0P@CCEMDICF@chandelier?4obj@ DB 'chandelier.obj', 00H ; `string'
CONST	ENDS
;	COMDAT ??_C@_0BJ@JKMEMLGE@assets?1models?1Chandelier@
CONST	SEGMENT
??_C@_0BJ@JKMEMLGE@assets?1models?1Chandelier@ DB 'assets/models/Chandeli'
	DB	'er', 00H					; `string'
CONST	ENDS
;	COMDAT ??_C@_0BB@BAFGAAJL@QuarterFireplace@
CONST	SEGMENT
??_C@_0BB@BAFGAAJL@QuarterFireplace@ DB 'QuarterFireplace', 00H ; `string'
CONST	ENDS
;	COMDAT ??_C@_0BF@FCOCGGEA@QuarterFireplace?4obj@
CONST	SEGMENT
??_C@_0BF@FCOCGGEA@QuarterFireplace?4obj@ DB 'QuarterFireplace.obj', 00H ; `string'
CONST	ENDS
;	COMDAT ??_C@_0BG@INOHOLHF@fireplace_quarter?4obj@
CONST	SEGMENT
??_C@_0BG@INOHOLHF@fireplace_quarter?4obj@ DB 'fireplace_quarter.obj', 00H ; `string'
CONST	ENDS
;	COMDAT ??_C@_0N@JIKMMNG@HalfFirewood@
CONST	SEGMENT
??_C@_0N@JIKMMNG@HalfFirewood@ DB 'HalfFirewood', 00H	; `string'
CONST	ENDS
;	COMDAT ??_C@_0BB@OKMPKLFH@HalfFirewood?4obj@
CONST	SEGMENT
??_C@_0BB@OKMPKLFH@HalfFirewood?4obj@ DB 'HalfFirewood.obj', 00H ; `string'
CONST	ENDS
;	COMDAT ??_C@_0O@MIAGEJBB@HalfFireplace@
CONST	SEGMENT
??_C@_0O@MIAGEJBB@HalfFireplace@ DB 'HalfFireplace', 00H ; `string'
CONST	ENDS
;	COMDAT ??_C@_0BC@JNPOIBOC@HalfFireplace?4obj@
CONST	SEGMENT
??_C@_0BC@JNPOIBOC@HalfFireplace?4obj@ DB 'HalfFireplace.obj', 00H ; `string'
CONST	ENDS
;	COMDAT ??_C@_0BD@NKAKEEAP@fireplace_half?4obj@
CONST	SEGMENT
??_C@_0BD@NKAKEEAP@fireplace_half?4obj@ DB 'fireplace_half.obj', 00H ; `string'
CONST	ENDS
;	COMDAT ??_C@_08DCLJIMJD@Firewood@
CONST	SEGMENT
??_C@_08DCLJIMJD@Firewood@ DB 'Firewood', 00H		; `string'
CONST	ENDS
;	COMDAT ??_C@_0N@HDPPACIM@Firewood?4obj@
CONST	SEGMENT
??_C@_0N@HDPPACIM@Firewood?4obj@ DB 'Firewood.obj', 00H	; `string'
CONST	ENDS
;	COMDAT ??_C@_0BC@CLJFAGPC@firewood_separate@
CONST	SEGMENT
??_C@_0BC@CLJFAGPC@firewood_separate@ DB 'firewood_separate', 00H ; `string'
CONST	ENDS
;	COMDAT ??_C@_0BF@DKGNPHBF@fireplace_normal?4bmp@
CONST	SEGMENT
??_C@_0BF@DKGNPHBF@fireplace_normal?4bmp@ DB 'fireplace_normal.bmp', 00H ; `string'
CONST	ENDS
;	COMDAT ??_C@_0BG@DBCMNBOD@fireplace_diffuse?4bmp@
CONST	SEGMENT
??_C@_0BG@DBCMNBOD@fireplace_diffuse?4bmp@ DB 'fireplace_diffuse.bmp', 00H ; `string'
CONST	ENDS
;	COMDAT ??_C@_09MOILMPEO@Fireplace@
CONST	SEGMENT
??_C@_09MOILMPEO@Fireplace@ DB 'Fireplace', 00H		; `string'
CONST	ENDS
;	COMDAT ??_C@_0O@IMGGLKBH@Fireplace?4obj@
CONST	SEGMENT
??_C@_0O@IMGGLKBH@Fireplace?4obj@ DB 'Fireplace.obj', 00H ; `string'
CONST	ENDS
;	COMDAT ??_C@_0BF@JHEBOGPC@fireplace_noFireWood@
CONST	SEGMENT
??_C@_0BF@JHEBOGPC@fireplace_noFireWood@ DB 'fireplace_noFireWood', 00H ; `string'
CONST	ENDS
;	COMDAT ??_C@_0O@EBACMCMP@fireplace?4obj@
CONST	SEGMENT
??_C@_0O@EBACMCMP@fireplace?4obj@ DB 'fireplace.obj', 00H ; `string'
CONST	ENDS
;	COMDAT ??_C@_0BI@KOLIAAFD@assets?1models?1Fireplace@
CONST	SEGMENT
??_C@_0BI@KOLIAAFD@assets?1models?1Fireplace@ DB 'assets/models/Fireplace'
	DB	00H						; `string'
CONST	ENDS
;	COMDAT ??_C@_0N@EMDAHPMH@QuarterChair@
CONST	SEGMENT
??_C@_0N@EMDAHPMH@QuarterChair@ DB 'QuarterChair', 00H	; `string'
CONST	ENDS
;	COMDAT ??_C@_0BB@NNOOCIMJ@QuarterChair?4obj@
CONST	SEGMENT
??_C@_0BB@NNOOCIMJ@QuarterChair?4obj@ DB 'QuarterChair.obj', 00H ; `string'
CONST	ENDS
;	COMDAT ??_C@_0N@EOAOMGAG@QuarterTable@
CONST	SEGMENT
??_C@_0N@EOAOMGAG@QuarterTable@ DB 'QuarterTable', 00H	; `string'
CONST	ENDS
;	COMDAT ??_C@_0BB@HGFLBOGE@QuarterTable?4obj@
CONST	SEGMENT
??_C@_0BB@HGFLBOGE@QuarterTable?4obj@ DB 'QuarterTable.obj', 00H ; `string'
CONST	ENDS
;	COMDAT ??_C@_0BL@DIOPLOFD@Wooden_quarter_objects?4obj@
CONST	SEGMENT
??_C@_0BL@DIOPLOFD@Wooden_quarter_objects?4obj@ DB 'Wooden_quarter_object'
	DB	's.obj', 00H					; `string'
CONST	ENDS
;	COMDAT ??_C@_09EMDJLGOC@HalfChair@
CONST	SEGMENT
??_C@_09EMDJLGOC@HalfChair@ DB 'HalfChair', 00H		; `string'
CONST	ENDS
;	COMDAT ??_C@_0O@FLOGBED@HalfChair?4obj@
CONST	SEGMENT
??_C@_0O@FLOGBED@HalfChair?4obj@ DB 'HalfChair.obj', 00H ; `string'
CONST	ENDS
;	COMDAT ??_C@_09EOAHAPCD@HalfTable@
CONST	SEGMENT
??_C@_09EOAHAPCD@HalfTable@ DB 'HalfTable', 00H		; `string'
CONST	ENDS
;	COMDAT ??_C@_0O@KOALFHOO@HalfTable?4obj@
CONST	SEGMENT
??_C@_0O@KOALFHOO@HalfTable?4obj@ DB 'HalfTable.obj', 00H ; `string'
CONST	ENDS
;	COMDAT ??_C@_0BI@OMLGCMLK@Wooden_half_objects?4obj@
CONST	SEGMENT
??_C@_0BI@OMLGCMLK@Wooden_half_objects?4obj@ DB 'Wooden_half_objects.obj', 00H ; `string'
CONST	ENDS
;	COMDAT ??_C@_0BK@CKONODGH@Chair_Clean_2K_Normal?4bmp@
CONST	SEGMENT
??_C@_0BK@CKONODGH@Chair_Clean_2K_Normal?4bmp@ DB 'Chair_Clean_2K_Normal.'
	DB	'bmp', 00H					; `string'
CONST	ENDS
;	COMDAT ??_C@_0BK@PJKLKIGP@Chair_Clean_2K_Albedo?4bmp@
CONST	SEGMENT
??_C@_0BK@PJKLKIGP@Chair_Clean_2K_Albedo?4bmp@ DB 'Chair_Clean_2K_Albedo.'
	DB	'bmp', 00H					; `string'
CONST	ENDS
;	COMDAT ??_C@_05LHCGGBKP@Chair@
CONST	SEGMENT
??_C@_05LHCGGBKP@Chair@ DB 'Chair', 00H			; `string'
CONST	ENDS
;	COMDAT ??_C@_09DDDOHBM@Chair?4obj@
CONST	SEGMENT
??_C@_09DDDOHBM@Chair?4obj@ DB 'Chair.obj', 00H		; `string'
CONST	ENDS
;	COMDAT ??_C@_07HJNHCICF@chair_3@
CONST	SEGMENT
??_C@_07HJNHCICF@chair_3@ DB 'chair_3', 00H		; `string'
CONST	ENDS
;	COMDAT ??_C@_0BK@NOODFGOO@Table_Clean_2K_Normal?4bmp@
CONST	SEGMENT
??_C@_0BK@NOODFGOO@Table_Clean_2K_Normal?4bmp@ DB 'Table_Clean_2K_Normal.'
	DB	'bmp', 00H					; `string'
CONST	ENDS
;	COMDAT ??_C@_0BK@NKFBNOG@Table_Clean_2K_Albedo?4bmp@
CONST	SEGMENT
??_C@_0BK@NKFBNOG@Table_Clean_2K_Albedo?4bmp@ DB 'Table_Clean_2K_Albedo.b'
	DB	'mp', 00H					; `string'
CONST	ENDS
;	COMDAT ??_C@_05LFBINIGO@Table@
CONST	SEGMENT
??_C@_05LFBINIGO@Table@ DB 'Table', 00H			; `string'
CONST	ENDS
;	COMDAT ??_C@_09KIIGNBLB@Table?4obj@
CONST	SEGMENT
??_C@_09KIIGNBLB@Table?4obj@ DB 'Table.obj', 00H	; `string'
CONST	ENDS
;	COMDAT ??_C@_07BJILMHDM@table_3@
CONST	SEGMENT
??_C@_07BJILMHDM@table_3@ DB 'table_3', 00H		; `string'
CONST	ENDS
;	COMDAT ??_C@_0BD@OAGKCKBB@Wooden_objects?4obj@
CONST	SEGMENT
??_C@_0BD@OAGKCKBB@Wooden_objects?4obj@ DB 'Wooden_objects.obj', 00H ; `string'
CONST	ENDS
;	COMDAT ??_C@_0CA@LJPDPDAC@assets?1models?1FBX_Wooden_assets@
CONST	SEGMENT
??_C@_0CA@LJPDPDAC@assets?1models?1FBX_Wooden_assets@ DB 'assets/models/F'
	DB	'BX_Wooden_assets', 00H			; `string'
CONST	ENDS
;	COMDAT ??_C@_0BK@GMDIBHOK@brown_mud_dry_diff_8k?4bmp@
CONST	SEGMENT
??_C@_0BK@GMDIBHOK@brown_mud_dry_diff_8k?4bmp@ DB 'brown_mud_dry_diff_8k.'
	DB	'bmp', 00H					; `string'
CONST	ENDS
;	COMDAT ??_C@_0P@NEOHOGMD@Ground_OBJ?4obj@
CONST	SEGMENT
??_C@_0P@NEOHOGMD@Ground_OBJ?4obj@ DB 'Ground_OBJ.obj', 00H ; `string'
CONST	ENDS
;	COMDAT ??_C@_06KBIODPAH@Ground@
CONST	SEGMENT
??_C@_06KBIODPAH@Ground@ DB 'Ground', 00H		; `string'
CONST	ENDS
;	COMDAT ??_C@_0L@HPMEFGPM@Ground?4obj@
CONST	SEGMENT
??_C@_0L@HPMEFGPM@Ground?4obj@ DB 'Ground.obj', 00H	; `string'
CONST	ENDS
;	COMDAT ??_C@_0BF@DOFILDML@assets?1models?1Ground@
CONST	SEGMENT
??_C@_0BF@DOFILDML@assets?1models?1Ground@ DB 'assets/models/Ground', 00H ; `string'
CONST	ENDS
;	COMDAT ??_C@_0P@CHLBPKIK@Barrel_quarter@
CONST	SEGMENT
??_C@_0P@CHLBPKIK@Barrel_quarter@ DB 'Barrel_quarter', 00H ; `string'
CONST	ENDS
;	COMDAT ??_C@_0BH@EJHGDGKO@Barrel_quarter_OBJ?4obj@
CONST	SEGMENT
??_C@_0BH@EJHGDGKO@Barrel_quarter_OBJ?4obj@ DB 'Barrel_quarter_OBJ.obj', 00H ; `string'
CONST	ENDS
;	COMDAT ??_C@_0M@JELGIHBC@Barrel_half@
CONST	SEGMENT
??_C@_0M@JELGIHBC@Barrel_half@ DB 'Barrel_half', 00H	; `string'
CONST	ENDS
;	COMDAT ??_C@_0BE@HCMOGKHN@Barrel_half_OBJ?4obj@
CONST	SEGMENT
??_C@_0BE@HCMOGKHN@Barrel_half_OBJ?4obj@ DB 'Barrel_half_OBJ.obj', 00H ; `string'
CONST	ENDS
;	COMDAT ??_C@_0BP@HJIJFDPL@barrel_Normal?5?9?5Inverted_Y?4bmp@
CONST	SEGMENT
??_C@_0BP@HJIJFDPL@barrel_Normal?5?9?5Inverted_Y?4bmp@ DB 'barrel_Normal '
	DB	'- Inverted_Y.bmp', 00H			; `string'
CONST	ENDS
;	COMDAT ??_C@_0CC@HMKEIJC@barrel_BaseColor?5?9?5Inverted_Y?4b@
CONST	SEGMENT
??_C@_0CC@HMKEIJC@barrel_BaseColor?5?9?5Inverted_Y?4b@ DB 'barrel_BaseCol'
	DB	'or - Inverted_Y.bmp', 00H			; `string'
CONST	ENDS
;	COMDAT ??_C@_06LHNPGOPG@Barrel@
CONST	SEGMENT
??_C@_06LHNPGOPG@Barrel@ DB 'Barrel', 00H		; `string'
CONST	ENDS
;	COMDAT ??_C@_0DD@JKCHEIMP@Error?3?5Could?5not?5convert?5assimp@
CONST	SEGMENT
??_C@_0DD@JKCHEIMP@Error?3?5Could?5not?5convert?5assimp@ DB 'Error: Could'
	DB	' not convert assimp model to VAO model', 00H ; `string'
CONST	ENDS
;	COMDAT ??_C@_06HIGCFHGK@barrel@
CONST	SEGMENT
??_C@_06HIGCFHGK@barrel@ DB 'barrel', 00H		; `string'
CONST	ENDS
;	COMDAT ??_C@_0P@EKPGKJGE@Barrel_OBJ?4obj@
CONST	SEGMENT
??_C@_0P@EKPGKJGE@Barrel_OBJ?4obj@ DB 'Barrel_OBJ.obj', 00H ; `string'
CONST	ENDS
;	COMDAT ??_C@_0CN@FIFPKJAL@assets?1models?1Wooden?5barrel?5?$CIha@
CONST	SEGMENT
??_C@_0CN@FIFPKJAL@assets?1models?1Wooden?5barrel?5?$CIha@ DB 'assets/mod'
	DB	'els/Wooden barrel (has normal map)', 00H	; `string'
CONST	ENDS
;	COMDAT ??_C@_0BO@OGDBEOJA@Ingenuity?5?$CIblender?5exort?$CJ?4obj@
CONST	SEGMENT
??_C@_0BO@OGDBEOJA@Ingenuity?5?$CIblender?5exort?$CJ?4obj@ DB 'Ingenuity '
	DB	'(blender exort).obj', 00H			; `string'
CONST	ENDS
;	COMDAT ??_C@_0FF@NBCDBPNL@assets?1models?1Ingenuity?5?$CIhelico@
CONST	SEGMENT
??_C@_0FF@NBCDBPNL@assets?1models?1Ingenuity?5?$CIhelico@ DB 'assets/mode'
	DB	'ls/Ingenuity (helicopter, has normal maps)/Ingenuity/OBJ (ble'
	DB	'nder export)', 00H				; `string'
CONST	ENDS
;	COMDAT ??_C@_00CNPNBAHC@@
CONST	SEGMENT
??_C@_00CNPNBAHC@@ DB 00H				; `string'
CONST	ENDS
;	COMDAT ??_C@_0BA@JFNIOLAK@string?5too?5long@
CONST	SEGMENT
??_C@_0BA@JFNIOLAK@string?5too?5long@ DB 'string too long', 00H ; `string'
CONST	ENDS
;	COMDAT ??_C@_0BF@KINCDENJ@bad?5array?5new?5length@
CONST	SEGMENT
??_C@_0BF@KINCDENJ@bad?5array?5new?5length@ DB 'bad array new length', 00H ; `string'
CONST	ENDS
;	COMDAT ??_C@_0BC@EOODALEL@Unknown?5exception@
CONST	SEGMENT
??_C@_0BC@EOODALEL@Unknown?5exception@ DB 'Unknown exception', 00H ; `string'
CONST	ENDS
PUBLIC	??$_Allocate_manually_vector_aligned@U_Default_allocate_traits@std@@@std@@YAPEAX_K@Z ; std::_Allocate_manually_vector_aligned<std::_Default_allocate_traits>
PUBLIC	??$?XM@?$vec@$02M$0A@@glm@@QEAAAEAU01@AEBU01@@Z	; glm::vec<3,float,0>::operator*=<float>
PUBLIC	??$construct@PEAUsMesh@@PEAU1@@?$_Default_allocator_traits@V?$allocator@PEAUsMesh@@@std@@@std@@SAXAEAV?$allocator@PEAUsMesh@@@1@QEAPEAUsMesh@@$$QEAPEAU3@@Z ; std::_Default_allocator_traits<std::allocator<sMesh *> >::construct<sMesh *,sMesh *>
PUBLIC	??$forward@PEAUsMesh@@@std@@YA$$QEAPEAUsMesh@@AEAPEAU1@@Z ; std::forward<sMesh *>
PUBLIC	??$_Copy_memmove_tail@PEAPEAUsMesh@@@std@@YAPEAPEAUsMesh@@QEBDQEAPEAU1@_K2@Z ; std::_Copy_memmove_tail<sMesh * *>
PUBLIC	??$move@AEAPEAPEAUsMesh@@@std@@YA$$QEAPEAPEAUsMesh@@AEAPEAPEAU1@@Z ; std::move<sMesh * * &>
PUBLIC	??R?$plus@M@std@@QEBAMAEBM0@Z			; std::plus<float>::operator()
PUBLIC	??_GsLODInfo@sMesh@@QEAAPEAXI@Z			; sMesh::sLODInfo::`scalar deleting destructor'
PUBLIC	??$_Get_size_of_n@$00@std@@YA_K_K@Z		; std::_Get_size_of_n<1>
PUBLIC	??$_Get_size_of_n@$07@std@@YA_K_K@Z		; std::_Get_size_of_n<8>
PUBLIC	??$_Allocate@$0BA@U_Default_allocate_traits@std@@@std@@YAPEAX_K@Z ; std::_Allocate<16,std::_Default_allocate_traits>
PUBLIC	??$_Get_size_of_n@$0CI@@std@@YA_K_K@Z		; std::_Get_size_of_n<40>
PUBLIC	??$call@U?$plus@M@std@@@?$functor2@Uvec@glm@@$03M$0A@@detail@glm@@SA?AU?$vec@$03M$0A@@2@U?$plus@M@std@@AEBU32@1@Z ; glm::detail::functor2<glm::vec,4,float,0>::call<std::plus<float> >
PUBLIC	??$call@U?$multiplies@M@std@@@?$functor2@Uvec@glm@@$02M$0A@@detail@glm@@SA?AU?$vec@$02M$0A@@2@U?$multiplies@M@std@@AEBU32@1@Z ; glm::detail::functor2<glm::vec,3,float,0>::call<std::multiplies<float> >
PUBLIC	??$?DM$0A@@glm@@YA?AU?$vec@$02M$0A@@0@AEBU10@0@Z ; glm::operator*<float,0>
PUBLIC	??$destroy@UsLODInfo@sMesh@@@?$_Default_allocator_traits@V?$allocator@UsLODInfo@sMesh@@@std@@@std@@SAXAEAV?$allocator@UsLODInfo@sMesh@@@1@QEAUsLODInfo@sMesh@@@Z ; std::_Default_allocator_traits<std::allocator<sMesh::sLODInfo> >::destroy<sMesh::sLODInfo>
PUBLIC	??$_Emplace_back@UsLODInfo@sMesh@@@?$_Uninitialized_backout_al@V?$allocator@UsLODInfo@sMesh@@@std@@@std@@QEAAX$$QEAUsLODInfo@sMesh@@@Z ; std::_Uninitialized_backout_al<std::allocator<sMesh::sLODInfo> >::_Emplace_back<sMesh::sLODInfo>
PUBLIC	??$addressof@UsLODInfo@sMesh@@@std@@YAPEAUsLODInfo@sMesh@@AEAU12@@Z ; std::addressof<sMesh::sLODInfo>
PUBLIC	??$_Emplace_back@PEAUsMesh@@@?$_Uninitialized_backout_al@V?$allocator@PEAUsMesh@@@std@@@std@@QEAAX$$QEAPEAUsMesh@@@Z ; std::_Uninitialized_backout_al<std::allocator<sMesh *> >::_Emplace_back<sMesh *>
PUBLIC	??$_To_address@PEAPEAUsMesh@@@std@@YA?A_PAEBQEAPEAUsMesh@@@Z ; std::_To_address<sMesh * *>
PUBLIC	??$_Copy_memmove@PEAPEAUsMesh@@PEAPEAU1@@std@@YAPEAPEAUsMesh@@PEAPEAU1@00@Z ; std::_Copy_memmove<sMesh * *,sMesh * *>
PUBLIC	??$move@AEAPEAUsMesh@@@std@@YA$$QEAPEAUsMesh@@AEAPEAU1@@Z ; std::move<sMesh * &>
PUBLIC	??$addressof@PEAUsMesh@@@std@@YAPEAPEAUsMesh@@AEAPEAU1@@Z ; std::addressof<sMesh *>
PUBLIC	??$_Emplace_back@U?$pair@V?$basic_string@DU?$char_traits@D@std@@V?$allocator@D@2@@std@@_N@std@@@?$_Uninitialized_backout_al@V?$allocator@U?$pair@V?$basic_string@DU?$char_traits@D@std@@V?$allocator@D@2@@std@@_N@std@@@std@@@std@@QEAAX$$QEAU?$pair@V?$basic_string@DU?$char_traits@D@std@@V?$allocator@D@2@@std@@_N@1@@Z ; std::_Uninitialized_backout_al<std::allocator<std::pair<std::basic_string<char,std::char_traits<char>,std::allocator<char> >,bool> > >::_Emplace_back<std::pair<std::basic_string<char,std::char_traits<char>,std::allocator<char> >,bool> >
PUBLIC	??$addressof@U?$pair@V?$basic_string@DU?$char_traits@D@std@@V?$allocator@D@2@@std@@_N@std@@@std@@YAPEAU?$pair@V?$basic_string@DU?$char_traits@D@std@@V?$allocator@D@2@@std@@_N@0@AEAU10@@Z ; std::addressof<std::pair<std::basic_string<char,std::char_traits<char>,std::allocator<char> >,bool> >
PUBLIC	?allocate@?$allocator@D@std@@QEAAPEAD_K@Z	; std::allocator<char>::allocate
PUBLIC	?allocate@?$allocator@UsLODInfo@sMesh@@@std@@QEAAPEAUsLODInfo@sMesh@@_K@Z ; std::allocator<sMesh::sLODInfo>::allocate
PUBLIC	?allocate@?$allocator@PEAUsMesh@@@std@@QEAAPEAPEAUsMesh@@_K@Z ; std::allocator<sMesh *>::allocate
PUBLIC	?allocate@?$allocator@U?$pair@V?$basic_string@DU?$char_traits@D@std@@V?$allocator@D@2@@std@@_N@std@@@std@@QEAAPEAU?$pair@V?$basic_string@DU?$char_traits@D@std@@V?$allocator@D@2@@std@@_N@2@_K@Z ; std::allocator<std::pair<std::basic_string<char,std::char_traits<char>,std::allocator<char> >,bool> >::allocate
PUBLIC	??R?$multiplies@M@std@@QEBAMAEBM0@Z		; std::multiplies<float>::operator()
PUBLIC	?call@?$compute_vec_add@$03M$0A@$0A@@detail@glm@@SA?AU?$vec@$03M$0A@@3@AEBU43@0@Z ; glm::detail::compute_vec_add<4,float,0,0>::call
PUBLIC	?call@?$compute_vec_mul@$02M$0A@$0A@@detail@glm@@SA?AU?$vec@$02M$0A@@3@AEBU43@0@Z ; glm::detail::compute_vec_mul<3,float,0,0>::call
PUBLIC	??0?$_Uninitialized_backout_al@V?$allocator@U?$pair@V?$basic_string@DU?$char_traits@D@std@@V?$allocator@D@2@@std@@_N@std@@@std@@@std@@QEAA@PEAU?$pair@V?$basic_string@DU?$char_traits@D@std@@V?$allocator@D@2@@std@@_N@1@AEAV?$allocator@U?$pair@V?$basic_string@DU?$char_traits@D@std@@V?$allocator@D@2@@std@@_N@std@@@1@@Z ; std::_Uninitialized_backout_al<std::allocator<std::pair<std::basic_string<char,std::char_traits<char>,std::allocator<char> >,bool> > >::_Uninitialized_backout_al<std::allocator<std::pair<std::basic_string<char,std::char_traits<char>,std::allocator<char> >,bool> > >
PUBLIC	??1?$_Uninitialized_backout_al@V?$allocator@U?$pair@V?$basic_string@DU?$char_traits@D@std@@V?$allocator@D@2@@std@@_N@std@@@std@@@std@@QEAA@XZ ; std::_Uninitialized_backout_al<std::allocator<std::pair<std::basic_string<char,std::char_traits<char>,std::allocator<char> >,bool> > >::~_Uninitialized_backout_al<std::allocator<std::pair<std::basic_string<char,std::char_traits<char>,std::allocator<char> >,bool> > >
PUBLIC	?_Release@?$_Uninitialized_backout_al@V?$allocator@U?$pair@V?$basic_string@DU?$char_traits@D@std@@V?$allocator@D@2@@std@@_N@std@@@std@@@std@@QEAAPEAU?$pair@V?$basic_string@DU?$char_traits@D@std@@V?$allocator@D@2@@std@@_N@2@XZ ; std::_Uninitialized_backout_al<std::allocator<std::pair<std::basic_string<char,std::char_traits<char>,std::allocator<char> >,bool> > >::_Release
PUBLIC	??0?$_Uninitialized_backout_al@V?$allocator@PEAUsMesh@@@std@@@std@@QEAA@PEAPEAUsMesh@@AEAV?$allocator@PEAUsMesh@@@1@@Z ; std::_Uninitialized_backout_al<std::allocator<sMesh *> >::_Uninitialized_backout_al<std::allocator<sMesh *> >
PUBLIC	??1?$_Uninitialized_backout_al@V?$allocator@PEAUsMesh@@@std@@@std@@QEAA@XZ ; std::_Uninitialized_backout_al<std::allocator<sMesh *> >::~_Uninitialized_backout_al<std::allocator<sMesh *> >
PUBLIC	?_Release@?$_Uninitialized_backout_al@V?$allocator@PEAUsMesh@@@std@@@std@@QEAAPEAPEAUsMesh@@XZ ; std::_Uninitialized_backout_al<std::allocator<sMesh *> >::_Release
PUBLIC	??0?$_Uninitialized_backout_al@V?$allocator@UsLODInfo@sMesh@@@std@@@std@@QEAA@PEAUsLODInfo@sMesh@@AEAV?$allocator@UsLODInfo@sMesh@@@1@@Z ; std::_Uninitialized_backout_al<std::allocator<sMesh::sLODInfo> >::_Uninitialized_backout_al<std::allocator<sMesh::sLODInfo> >
PUBLIC	??1?$_Uninitialized_backout_al@V?$allocator@UsLODInfo@sMesh@@@std@@@std@@QEAA@XZ ; std::_Uninitialized_backout_al<std::allocator<sMesh::sLODInfo> >::~_Uninitialized_backout_al<std::allocator<sMesh::sLODInfo> >
PUBLIC	?_Release@?$_Uninitialized_backout_al@V?$allocator@UsLODInfo@sMesh@@@std@@@std@@QEAAPEAUsLODInfo@sMesh@@XZ ; std::_Uninitialized_backout_al<std::allocator<sMesh::sLODInfo> >::_Release
PUBLIC	?call@?$compute_dot@U?$vec@$02M$0A@@glm@@M$0A@@detail@glm@@SAMAEBU?$vec@$02M$0A@@3@0@Z ; glm::detail::compute_dot<glm::vec<3,float,0>,float,0>::call
PUBLIC	?__autoclassinit2@?$_Uninitialized_backout_al@V?$allocator@UsLODInfo@sMesh@@@std@@@std@@QEAAX_K@Z ; std::_Uninitialized_backout_al<std::allocator<sMesh::sLODInfo> >::__autoclassinit2
PUBLIC	??0sLODInfo@sMesh@@QEAA@$$QEAU01@@Z		; sMesh::sLODInfo::sLODInfo
PUBLIC	?__autoclassinit2@?$_Uninitialized_backout_al@V?$allocator@PEAUsMesh@@@std@@@std@@QEAAX_K@Z ; std::_Uninitialized_backout_al<std::allocator<sMesh *> >::__autoclassinit2
PUBLIC	?__autoclassinit2@?$_Uninitialized_backout_al@V?$allocator@U?$pair@V?$basic_string@DU?$char_traits@D@std@@V?$allocator@D@2@@std@@_N@std@@@std@@@std@@QEAAX_K@Z ; std::_Uninitialized_backout_al<std::allocator<std::pair<std::basic_string<char,std::char_traits<char>,std::allocator<char> >,bool> > >::__autoclassinit2
PUBLIC	??0?$pair@V?$basic_string@DU?$char_traits@D@std@@V?$allocator@D@2@@std@@_N@std@@QEAA@$$QEAU01@@Z ; std::pair<std::basic_string<char,std::char_traits<char>,std::allocator<char> >,bool>::pair<std::basic_string<char,std::char_traits<char>,std::allocator<char> >,bool>
PUBLIC	??$call@U?$multiplies@M@std@@@?$functor2@Uvec@glm@@$03M$0A@@detail@glm@@SA?AU?$vec@$03M$0A@@2@U?$multiplies@M@std@@AEBU32@1@Z ; glm::detail::functor2<glm::vec,4,float,0>::call<std::multiplies<float> >
PUBLIC	??$?DM$0A@@glm@@YA?AU?$vec@$02M$0A@@0@AEBU10@M@Z ; glm::operator*<float,0>
PUBLIC	??$inversesqrt@M@glm@@YAMM@Z			; glm::inversesqrt<float>
PUBLIC	??$_Destroy_range@V?$allocator@PEAUsMesh@@@std@@@std@@YAXPEAPEAUsMesh@@QEAPEAU1@AEAV?$allocator@PEAUsMesh@@@0@@Z ; std::_Destroy_range<std::allocator<sMesh *> >
PUBLIC	??$_Destroy_range@V?$allocator@UsLODInfo@sMesh@@@std@@@std@@YAXPEAUsLODInfo@sMesh@@QEAU12@AEAV?$allocator@UsLODInfo@sMesh@@@0@@Z ; std::_Destroy_range<std::allocator<sMesh::sLODInfo> >
PUBLIC	??$dot@$02M$0A@@glm@@YAMAEBU?$vec@$02M$0A@@0@0@Z ; glm::dot<3,float,0>
PUBLIC	??$forward@AEBQEAD@std@@YAAEBQEADAEBQEAD@Z	; std::forward<char * const &>
PUBLIC	??$_Allocate_at_least_helper@V?$allocator@D@std@@@std@@YAPEADAEAV?$allocator@D@0@AEA_K@Z ; std::_Allocate_at_least_helper<std::allocator<char> >
PUBLIC	??$_Uninitialized_move@PEAUsLODInfo@sMesh@@V?$allocator@UsLODInfo@sMesh@@@std@@@std@@YAPEAUsLODInfo@sMesh@@QEAU12@0PEAU12@AEAV?$allocator@UsLODInfo@sMesh@@@0@@Z ; std::_Uninitialized_move<sMesh::sLODInfo *,std::allocator<sMesh::sLODInfo> >
PUBLIC	??$_Get_unwrapped@AEBQEAUsLODInfo@sMesh@@@std@@YA?A_TAEBQEAUsLODInfo@sMesh@@@Z ; std::_Get_unwrapped<sMesh::sLODInfo * const &>
PUBLIC	??$construct@UsLODInfo@sMesh@@U12@@?$_Default_allocator_traits@V?$allocator@UsLODInfo@sMesh@@@std@@@std@@SAXAEAV?$allocator@UsLODInfo@sMesh@@@1@QEAUsLODInfo@sMesh@@$$QEAU34@@Z ; std::_Default_allocator_traits<std::allocator<sMesh::sLODInfo> >::construct<sMesh::sLODInfo,sMesh::sLODInfo>
PUBLIC	??$_Unfancy@UsLODInfo@sMesh@@@std@@YAPEAUsLODInfo@sMesh@@PEAU12@@Z ; std::_Unfancy<sMesh::sLODInfo>
PUBLIC	??$_Allocate_at_least_helper@V?$allocator@UsLODInfo@sMesh@@@std@@@std@@YAPEAUsLODInfo@sMesh@@AEAV?$allocator@UsLODInfo@sMesh@@@0@AEA_K@Z ; std::_Allocate_at_least_helper<std::allocator<sMesh::sLODInfo> >
PUBLIC	??$_Construct_in_place@UsLODInfo@sMesh@@U12@@std@@YAXAEAUsLODInfo@sMesh@@$$QEAU12@@Z ; std::_Construct_in_place<sMesh::sLODInfo,sMesh::sLODInfo>
PUBLIC	??$_Uninitialized_move@PEAPEAUsMesh@@V?$allocator@PEAUsMesh@@@std@@@std@@YAPEAPEAUsMesh@@QEAPEAU1@0PEAPEAU1@AEAV?$allocator@PEAUsMesh@@@0@@Z ; std::_Uninitialized_move<sMesh * *,std::allocator<sMesh *> >
PUBLIC	??$_Get_unwrapped@AEBQEAPEAUsMesh@@@std@@YA?A_TAEBQEAPEAUsMesh@@@Z ; std::_Get_unwrapped<sMesh * * const &>
PUBLIC	??$construct@PEAUsMesh@@AEBQEAU1@@?$_Default_allocator_traits@V?$allocator@PEAUsMesh@@@std@@@std@@SAXAEAV?$allocator@PEAUsMesh@@@1@QEAPEAUsMesh@@AEBQEAU3@@Z ; std::_Default_allocator_traits<std::allocator<sMesh *> >::construct<sMesh *,sMesh * const &>
PUBLIC	??$_Unfancy@PEAUsMesh@@@std@@YAPEAPEAUsMesh@@PEAPEAU1@@Z ; std::_Unfancy<sMesh *>
PUBLIC	??$_Allocate_at_least_helper@V?$allocator@PEAUsMesh@@@std@@@std@@YAPEAPEAUsMesh@@AEAV?$allocator@PEAUsMesh@@@0@AEA_K@Z ; std::_Allocate_at_least_helper<std::allocator<sMesh *> >
PUBLIC	??$_Construct_in_place@PEAUsMesh@@AEBQEAU1@@std@@YAXAEAPEAUsMesh@@AEBQEAU1@@Z ; std::_Construct_in_place<sMesh *,sMesh * const &>
PUBLIC	??$_Uninitialized_move@PEAU?$pair@V?$basic_string@DU?$char_traits@D@std@@V?$allocator@D@2@@std@@_N@std@@V?$allocator@U?$pair@V?$basic_string@DU?$char_traits@D@std@@V?$allocator@D@2@@std@@_N@std@@@2@@std@@YAPEAU?$pair@V?$basic_string@DU?$char_traits@D@std@@V?$allocator@D@2@@std@@_N@0@QEAU10@0PEAU10@AEAV?$allocator@U?$pair@V?$basic_string@DU?$char_traits@D@std@@V?$allocator@D@2@@std@@_N@std@@@0@@Z ; std::_Uninitialized_move<std::pair<std::basic_string<char,std::char_traits<char>,std::allocator<char> >,bool> *,std::allocator<std::pair<std::basic_string<char,std::char_traits<char>,std::allocator<char> >,bool> > >
PUBLIC	??$_Get_unwrapped@AEBQEAU?$pair@V?$basic_string@DU?$char_traits@D@std@@V?$allocator@D@2@@std@@_N@std@@@std@@YA?A_TAEBQEAU?$pair@V?$basic_string@DU?$char_traits@D@std@@V?$allocator@D@2@@std@@_N@0@@Z ; std::_Get_unwrapped<std::pair<std::basic_string<char,std::char_traits<char>,std::allocator<char> >,bool> * const &>
PUBLIC	??$construct@U?$pair@V?$basic_string@DU?$char_traits@D@std@@V?$allocator@D@2@@std@@_N@std@@U12@@?$_Default_allocator_traits@V?$allocator@U?$pair@V?$basic_string@DU?$char_traits@D@std@@V?$allocator@D@2@@std@@_N@std@@@std@@@std@@SAXAEAV?$allocator@U?$pair@V?$basic_string@DU?$char_traits@D@std@@V?$allocator@D@2@@std@@_N@std@@@1@QEAU?$pair@V?$basic_string@DU?$char_traits@D@std@@V?$allocator@D@2@@std@@_N@1@$$QEAU31@@Z ; std::_Default_allocator_traits<std::allocator<std::pair<std::basic_string<char,std::char_traits<char>,std::allocator<char> >,bool> > >::construct<std::pair<std::basic_string<char,std::char_traits<char>,std::allocator<char> >,bool>,std::pair<std::basic_string<char,std::char_traits<char>,std::allocator<char> >,bool> >
PUBLIC	??$_Allocate_at_least_helper@V?$allocator@U?$pair@V?$basic_string@DU?$char_traits@D@std@@V?$allocator@D@2@@std@@_N@std@@@std@@@std@@YAPEAU?$pair@V?$basic_string@DU?$char_traits@D@std@@V?$allocator@D@2@@std@@_N@0@AEAV?$allocator@U?$pair@V?$basic_string@DU?$char_traits@D@std@@V?$allocator@D@2@@std@@_N@std@@@0@AEA_K@Z ; std::_Allocate_at_least_helper<std::allocator<std::pair<std::basic_string<char,std::char_traits<char>,std::allocator<char> >,bool> > >
PUBLIC	??$_Construct_in_place@U?$pair@V?$basic_string@DU?$char_traits@D@std@@V?$allocator@D@2@@std@@_N@std@@U12@@std@@YAXAEAU?$pair@V?$basic_string@DU?$char_traits@D@std@@V?$allocator@D@2@@std@@_N@0@$$QEAU10@@Z ; std::_Construct_in_place<std::pair<std::basic_string<char,std::char_traits<char>,std::allocator<char> >,bool>,std::pair<std::basic_string<char,std::char_traits<char>,std::allocator<char> >,bool> >
PUBLIC	??$?XM@?$vec@$02M$0A@@glm@@QEAAAEAU01@M@Z	; glm::vec<3,float,0>::operator*=<float>
PUBLIC	??$?YM@?$vec@$03M$0A@@glm@@QEAAAEAU01@AEBU01@@Z	; glm::vec<4,float,0>::operator+=<float>
PUBLIC	?_Get_first@?$_Compressed_pair@V?$allocator@UsLODInfo@sMesh@@@std@@V?$_Vector_val@U?$_Simple_types@UsLODInfo@sMesh@@@std@@@2@$00@std@@QEBAAEBV?$allocator@UsLODInfo@sMesh@@@2@XZ ; std::_Compressed_pair<std::allocator<sMesh::sLODInfo>,std::_Vector_val<std::_Simple_types<sMesh::sLODInfo> >,1>::_Get_first
PUBLIC	?_Get_first@?$_Compressed_pair@V?$allocator@PEAUsMesh@@@std@@V?$_Vector_val@U?$_Simple_types@PEAUsMesh@@@std@@@2@$00@std@@QEBAAEBV?$allocator@PEAUsMesh@@@2@XZ ; std::_Compressed_pair<std::allocator<sMesh *>,std::_Vector_val<std::_Simple_types<sMesh *> >,1>::_Get_first
PUBLIC	?_Get_first@?$_Compressed_pair@V?$allocator@U?$pair@V?$basic_string@DU?$char_traits@D@std@@V?$allocator@D@2@@std@@_N@std@@@std@@V?$_Vector_val@U?$_Simple_types@U?$pair@V?$basic_string@DU?$char_traits@D@std@@V?$allocator@D@2@@std@@_N@std@@@std@@@2@$00@std@@QEBAAEBV?$allocator@U?$pair@V?$basic_string@DU?$char_traits@D@std@@V?$allocator@D@2@@std@@_N@std@@@2@XZ ; std::_Compressed_pair<std::allocator<std::pair<std::basic_string<char,std::char_traits<char>,std::allocator<char> >,bool> >,std::_Vector_val<std::_Simple_types<std::pair<std::basic_string<char,std::char_traits<char>,std::allocator<char> >,bool> > >,1>::_Get_first
PUBLIC	?deallocate@?$allocator@UsLODInfo@sMesh@@@std@@QEAAXQEAUsLODInfo@sMesh@@_K@Z ; std::allocator<sMesh::sLODInfo>::deallocate
PUBLIC	?max_size@?$_Default_allocator_traits@V?$allocator@UsLODInfo@sMesh@@@std@@@std@@SA_KAEBV?$allocator@UsLODInfo@sMesh@@@2@@Z ; std::_Default_allocator_traits<std::allocator<sMesh::sLODInfo> >::max_size
PUBLIC	?capacity@?$vector@UsLODInfo@sMesh@@V?$allocator@UsLODInfo@sMesh@@@std@@@std@@QEBA_KXZ ; std::vector<sMesh::sLODInfo,std::allocator<sMesh::sLODInfo> >::capacity
PUBLIC	?_Getal@?$vector@UsLODInfo@sMesh@@V?$allocator@UsLODInfo@sMesh@@@std@@@std@@AEBAAEBV?$allocator@UsLODInfo@sMesh@@@2@XZ ; std::vector<sMesh::sLODInfo,std::allocator<sMesh::sLODInfo> >::_Getal
PUBLIC	?_Get_first@?$_Compressed_pair@V?$allocator@UsLODInfo@sMesh@@@std@@V?$_Vector_val@U?$_Simple_types@UsLODInfo@sMesh@@@std@@@2@$00@std@@QEAAAEAV?$allocator@UsLODInfo@sMesh@@@2@XZ ; std::_Compressed_pair<std::allocator<sMesh::sLODInfo>,std::_Vector_val<std::_Simple_types<sMesh::sLODInfo> >,1>::_Get_first
PUBLIC	?deallocate@?$allocator@PEAUsMesh@@@std@@QEAAXQEAPEAUsMesh@@_K@Z ; std::allocator<sMesh *>::deallocate
PUBLIC	?max_size@?$_Default_allocator_traits@V?$allocator@PEAUsMesh@@@std@@@std@@SA_KAEBV?$allocator@PEAUsMesh@@@2@@Z ; std::_Default_allocator_traits<std::allocator<sMesh *> >::max_size
PUBLIC	?capacity@?$vector@PEAUsMesh@@V?$allocator@PEAUsMesh@@@std@@@std@@QEBA_KXZ ; std::vector<sMesh *,std::allocator<sMesh *> >::capacity
PUBLIC	?_Getal@?$vector@PEAUsMesh@@V?$allocator@PEAUsMesh@@@std@@@std@@AEBAAEBV?$allocator@PEAUsMesh@@@2@XZ ; std::vector<sMesh *,std::allocator<sMesh *> >::_Getal
PUBLIC	?_Get_first@?$_Compressed_pair@V?$allocator@PEAUsMesh@@@std@@V?$_Vector_val@U?$_Simple_types@PEAUsMesh@@@std@@@2@$00@std@@QEAAAEAV?$allocator@PEAUsMesh@@@2@XZ ; std::_Compressed_pair<std::allocator<sMesh *>,std::_Vector_val<std::_Simple_types<sMesh *> >,1>::_Get_first
PUBLIC	?max_size@?$_Default_allocator_traits@V?$allocator@U?$pair@V?$basic_string@DU?$char_traits@D@std@@V?$allocator@D@2@@std@@_N@std@@@std@@@std@@SA_KAEBV?$allocator@U?$pair@V?$basic_string@DU?$char_traits@D@std@@V?$allocator@D@2@@std@@_N@std@@@2@@Z ; std::_Default_allocator_traits<std::allocator<std::pair<std::basic_string<char,std::char_traits<char>,std::allocator<char> >,bool> > >::max_size
PUBLIC	?capacity@?$vector@U?$pair@V?$basic_string@DU?$char_traits@D@std@@V?$allocator@D@2@@std@@_N@std@@V?$allocator@U?$pair@V?$basic_string@DU?$char_traits@D@std@@V?$allocator@D@2@@std@@_N@std@@@2@@std@@QEBA_KXZ ; std::vector<std::pair<std::basic_string<char,std::char_traits<char>,std::allocator<char> >,bool>,std::allocator<std::pair<std::basic_string<char,std::char_traits<char>,std::allocator<char> >,bool> > >::capacity
PUBLIC	?_Getal@?$vector@U?$pair@V?$basic_string@DU?$char_traits@D@std@@V?$allocator@D@2@@std@@_N@std@@V?$allocator@U?$pair@V?$basic_string@DU?$char_traits@D@std@@V?$allocator@D@2@@std@@_N@std@@@2@@std@@AEBAAEBV?$allocator@U?$pair@V?$basic_string@DU?$char_traits@D@std@@V?$allocator@D@2@@std@@_N@std@@@2@XZ ; std::vector<std::pair<std::basic_string<char,std::char_traits<char>,std::allocator<char> >,bool>,std::allocator<std::pair<std::basic_string<char,std::char_traits<char>,std::allocator<char> >,bool> > >::_Getal
PUBLIC	?compare@?$_Narrow_char_traits@DH@std@@SAHQEBD0_K@Z ; std::_Narrow_char_traits<char,int>::compare
PUBLIC	?max_size@?$vector@UsLODInfo@sMesh@@V?$allocator@UsLODInfo@sMesh@@@std@@@std@@QEBA_KXZ ; std::vector<sMesh::sLODInfo,std::allocator<sMesh::sLODInfo> >::max_size
PUBLIC	?_Calculate_growth@?$vector@UsLODInfo@sMesh@@V?$allocator@UsLODInfo@sMesh@@@std@@@std@@AEBA_K_K@Z ; std::vector<sMesh::sLODInfo,std::allocator<sMesh::sLODInfo> >::_Calculate_growth
PUBLIC	?_Change_array@?$vector@UsLODInfo@sMesh@@V?$allocator@UsLODInfo@sMesh@@@std@@@std@@AEAAXQEAUsLODInfo@sMesh@@_K1@Z ; std::vector<sMesh::sLODInfo,std::allocator<sMesh::sLODInfo> >::_Change_array
PUBLIC	?_Xlength@?$vector@UsLODInfo@sMesh@@V?$allocator@UsLODInfo@sMesh@@@std@@@std@@CAXXZ ; std::vector<sMesh::sLODInfo,std::allocator<sMesh::sLODInfo> >::_Xlength
PUBLIC	?_Orphan_range@?$vector@UsLODInfo@sMesh@@V?$allocator@UsLODInfo@sMesh@@@std@@@std@@AEBAXPEAUsLODInfo@sMesh@@0@Z ; std::vector<sMesh::sLODInfo,std::allocator<sMesh::sLODInfo> >::_Orphan_range
PUBLIC	?_Getal@?$vector@UsLODInfo@sMesh@@V?$allocator@UsLODInfo@sMesh@@@std@@@std@@AEAAAEAV?$allocator@UsLODInfo@sMesh@@@2@XZ ; std::vector<sMesh::sLODInfo,std::allocator<sMesh::sLODInfo> >::_Getal
PUBLIC	?max_size@?$vector@PEAUsMesh@@V?$allocator@PEAUsMesh@@@std@@@std@@QEBA_KXZ ; std::vector<sMesh *,std::allocator<sMesh *> >::max_size
PUBLIC	?_Calculate_growth@?$vector@PEAUsMesh@@V?$allocator@PEAUsMesh@@@std@@@std@@AEBA_K_K@Z ; std::vector<sMesh *,std::allocator<sMesh *> >::_Calculate_growth
PUBLIC	?_Change_array@?$vector@PEAUsMesh@@V?$allocator@PEAUsMesh@@@std@@@std@@AEAAXQEAPEAUsMesh@@_K1@Z ; std::vector<sMesh *,std::allocator<sMesh *> >::_Change_array
PUBLIC	?_Xlength@?$vector@PEAUsMesh@@V?$allocator@PEAUsMesh@@@std@@@std@@CAXXZ ; std::vector<sMesh *,std::allocator<sMesh *> >::_Xlength
PUBLIC	?_Orphan_range@?$vector@PEAUsMesh@@V?$allocator@PEAUsMesh@@@std@@@std@@AEBAXPEAPEAUsMesh@@0@Z ; std::vector<sMesh *,std::allocator<sMesh *> >::_Orphan_range
PUBLIC	?_Getal@?$vector@PEAUsMesh@@V?$allocator@PEAUsMesh@@@std@@@std@@AEAAAEAV?$allocator@PEAUsMesh@@@2@XZ ; std::vector<sMesh *,std::allocator<sMesh *> >::_Getal
PUBLIC	?max_size@?$vector@U?$pair@V?$basic_string@DU?$char_traits@D@std@@V?$allocator@D@2@@std@@_N@std@@V?$allocator@U?$pair@V?$basic_string@DU?$char_traits@D@std@@V?$allocator@D@2@@std@@_N@std@@@2@@std@@QEBA_KXZ ; std::vector<std::pair<std::basic_string<char,std::char_traits<char>,std::allocator<char> >,bool>,std::allocator<std::pair<std::basic_string<char,std::char_traits<char>,std::allocator<char> >,bool> > >::max_size
PUBLIC	?_Calculate_growth@?$vector@U?$pair@V?$basic_string@DU?$char_traits@D@std@@V?$allocator@D@2@@std@@_N@std@@V?$allocator@U?$pair@V?$basic_string@DU?$char_traits@D@std@@V?$allocator@D@2@@std@@_N@std@@@2@@std@@AEBA_K_K@Z ; std::vector<std::pair<std::basic_string<char,std::char_traits<char>,std::allocator<char> >,bool>,std::allocator<std::pair<std::basic_string<char,std::char_traits<char>,std::allocator<char> >,bool> > >::_Calculate_growth
PUBLIC	?_Change_array@?$vector@U?$pair@V?$basic_string@DU?$char_traits@D@std@@V?$allocator@D@2@@std@@_N@std@@V?$allocator@U?$pair@V?$basic_string@DU?$char_traits@D@std@@V?$allocator@D@2@@std@@_N@std@@@2@@std@@AEAAXQEAU?$pair@V?$basic_string@DU?$char_traits@D@std@@V?$allocator@D@2@@std@@_N@2@_K1@Z ; std::vector<std::pair<std::basic_string<char,std::char_traits<char>,std::allocator<char> >,bool>,std::allocator<std::pair<std::basic_string<char,std::char_traits<char>,std::allocator<char> >,bool> > >::_Change_array
PUBLIC	?_Xlength@?$vector@U?$pair@V?$basic_string@DU?$char_traits@D@std@@V?$allocator@D@2@@std@@_N@std@@V?$allocator@U?$pair@V?$basic_string@DU?$char_traits@D@std@@V?$allocator@D@2@@std@@_N@std@@@2@@std@@CAXXZ ; std::vector<std::pair<std::basic_string<char,std::char_traits<char>,std::allocator<char> >,bool>,std::allocator<std::pair<std::basic_string<char,std::char_traits<char>,std::allocator<char> >,bool> > >::_Xlength
PUBLIC	?_Orphan_range@?$vector@U?$pair@V?$basic_string@DU?$char_traits@D@std@@V?$allocator@D@2@@std@@_N@std@@V?$allocator@U?$pair@V?$basic_string@DU?$char_traits@D@std@@V?$allocator@D@2@@std@@_N@std@@@2@@std@@AEBAXPEAU?$pair@V?$basic_string@DU?$char_traits@D@std@@V?$allocator@D@2@@std@@_N@2@0@Z ; std::vector<std::pair<std::basic_string<char,std::char_traits<char>,std::allocator<char> >,bool>,std::allocator<std::pair<std::basic_string<char,std::char_traits<char>,std::allocator<char> >,bool> > >::_Orphan_range
PUBLIC	?call@?$compute_vec_mul@$03M$0A@$0A@@detail@glm@@SA?AU?$vec@$03M$0A@@3@AEBU43@0@Z ; glm::detail::compute_vec_mul<4,float,0,0>::call
PUBLIC	?call@?$compute_normalize@$02M$0A@$0A@@detail@glm@@SA?AU?$vec@$02M$0A@@3@AEBU43@@Z ; glm::detail::compute_normalize<3,float,0,0>::call
PUBLIC	??1_Reallocation_guard@?$vector@U?$pair@V?$basic_string@DU?$char_traits@D@std@@V?$allocator@D@2@@std@@_N@std@@V?$allocator@U?$pair@V?$basic_string@DU?$char_traits@D@std@@V?$allocator@D@2@@std@@_N@std@@@2@@std@@QEAA@XZ ; std::vector<std::pair<std::basic_string<char,std::char_traits<char>,std::allocator<char> >,bool>,std::allocator<std::pair<std::basic_string<char,std::char_traits<char>,std::allocator<char> >,bool> > >::_Reallocation_guard::~_Reallocation_guard
PUBLIC	??1_Reallocation_guard@?$vector@PEAUsMesh@@V?$allocator@PEAUsMesh@@@std@@@std@@QEAA@XZ ; std::vector<sMesh *,std::allocator<sMesh *> >::_Reallocation_guard::~_Reallocation_guard
PUBLIC	??1_Reallocation_guard@?$vector@UsLODInfo@sMesh@@V?$allocator@UsLODInfo@sMesh@@@std@@@std@@QEAA@XZ ; std::vector<sMesh::sLODInfo,std::allocator<sMesh::sLODInfo> >::_Reallocation_guard::~_Reallocation_guard
PUBLIC	??_G?$pair@V?$basic_string@DU?$char_traits@D@std@@V?$allocator@D@2@@std@@_N@std@@QEAAPEAXI@Z ; std::pair<std::basic_string<char,std::char_traits<char>,std::allocator<char> >,bool>::`scalar deleting destructor'
PUBLIC	??$_Traits_equal@U?$char_traits@D@std@@@std@@YA_NQEBD_K01@Z ; std::_Traits_equal<std::char_traits<char> >
PUBLIC	??$addressof@V?$basic_ostream@DU?$char_traits@D@std@@@std@@@std@@YAPEAV?$basic_ostream@DU?$char_traits@D@std@@@0@AEAV10@@Z ; std::addressof<std::basic_ostream<char,std::char_traits<char> > >
PUBLIC	??$forward@AEAPEAD@std@@YAAEAPEADAEAPEAD@Z	; std::forward<char * &>
PUBLIC	??$addressof@PEAD@std@@YAPEAPEADAEAPEAD@Z	; std::addressof<char *>
PUBLIC	??$destroy@U?$pair@V?$basic_string@DU?$char_traits@D@std@@V?$allocator@D@2@@std@@_N@std@@@?$_Default_allocator_traits@V?$allocator@U?$pair@V?$basic_string@DU?$char_traits@D@std@@V?$allocator@D@2@@std@@_N@std@@@std@@@std@@SAXAEAV?$allocator@U?$pair@V?$basic_string@DU?$char_traits@D@std@@V?$allocator@D@2@@std@@_N@std@@@1@QEAU?$pair@V?$basic_string@DU?$char_traits@D@std@@V?$allocator@D@2@@std@@_N@1@@Z ; std::_Default_allocator_traits<std::allocator<std::pair<std::basic_string<char,std::char_traits<char>,std::allocator<char> >,bool> > >::destroy<std::pair<std::basic_string<char,std::char_traits<char>,std::allocator<char> >,bool> >
PUBLIC	??$_Unfancy@U?$pair@V?$basic_string@DU?$char_traits@D@std@@V?$allocator@D@2@@std@@_N@std@@@std@@YAPEAU?$pair@V?$basic_string@DU?$char_traits@D@std@@V?$allocator@D@2@@std@@_N@0@PEAU10@@Z ; std::_Unfancy<std::pair<std::basic_string<char,std::char_traits<char>,std::allocator<char> >,bool> >
PUBLIC	??$_Construct_in_place@PEADAEBQEAD@std@@YAXAEAPEADAEBQEAD@Z ; std::_Construct_in_place<char *,char * const &>
PUBLIC	??$_Allocate_for_capacity@$0A@@?$basic_string@DU?$char_traits@D@std@@V?$allocator@D@2@@std@@CAPEADAEAV?$allocator@D@1@AEA_K@Z ; std::basic_string<char,std::char_traits<char>,std::allocator<char> >::_Allocate_for_capacity<0>
PUBLIC	??$forward@V?$allocator@D@std@@@std@@YA$$QEAV?$allocator@D@0@AEAV10@@Z ; std::forward<std::allocator<char> >
PUBLIC	??$_Emplace_reallocate@UsLODInfo@sMesh@@@?$vector@UsLODInfo@sMesh@@V?$allocator@UsLODInfo@sMesh@@@std@@@std@@AEAAPEAUsLODInfo@sMesh@@QEAU23@$$QEAU23@@Z ; std::vector<sMesh::sLODInfo,std::allocator<sMesh::sLODInfo> >::_Emplace_reallocate<sMesh::sLODInfo>
PUBLIC	??$_Emplace_back_with_unused_capacity@UsLODInfo@sMesh@@@?$vector@UsLODInfo@sMesh@@V?$allocator@UsLODInfo@sMesh@@@std@@@std@@AEAAAEAUsLODInfo@sMesh@@$$QEAU23@@Z ; std::vector<sMesh::sLODInfo,std::allocator<sMesh::sLODInfo> >::_Emplace_back_with_unused_capacity<sMesh::sLODInfo>
PUBLIC	??$forward@UsLODInfo@sMesh@@@std@@YA$$QEAUsLODInfo@sMesh@@AEAU12@@Z ; std::forward<sMesh::sLODInfo>
PUBLIC	??$_Emplace_reallocate@AEBQEAUsMesh@@@?$vector@PEAUsMesh@@V?$allocator@PEAUsMesh@@@std@@@std@@AEAAPEAPEAUsMesh@@QEAPEAU2@AEBQEAU2@@Z ; std::vector<sMesh *,std::allocator<sMesh *> >::_Emplace_reallocate<sMesh * const &>
PUBLIC	??$_Emplace_back_with_unused_capacity@AEBQEAUsMesh@@@?$vector@PEAUsMesh@@V?$allocator@PEAUsMesh@@@std@@@std@@AEAAAEAPEAUsMesh@@AEBQEAU2@@Z ; std::vector<sMesh *,std::allocator<sMesh *> >::_Emplace_back_with_unused_capacity<sMesh * const &>
PUBLIC	??$forward@AEBQEAUsMesh@@@std@@YAAEBQEAUsMesh@@AEBQEAU1@@Z ; std::forward<sMesh * const &>
PUBLIC	??$_Emplace_reallocate@U?$pair@V?$basic_string@DU?$char_traits@D@std@@V?$allocator@D@2@@std@@_N@std@@@?$vector@U?$pair@V?$basic_string@DU?$char_traits@D@std@@V?$allocator@D@2@@std@@_N@std@@V?$allocator@U?$pair@V?$basic_string@DU?$char_traits@D@std@@V?$allocator@D@2@@std@@_N@std@@@2@@std@@AEAAPEAU?$pair@V?$basic_string@DU?$char_traits@D@std@@V?$allocator@D@2@@std@@_N@1@QEAU21@$$QEAU21@@Z ; std::vector<std::pair<std::basic_string<char,std::char_traits<char>,std::allocator<char> >,bool>,std::allocator<std::pair<std::basic_string<char,std::char_traits<char>,std::allocator<char> >,bool> > >::_Emplace_reallocate<std::pair<std::basic_string<char,std::char_traits<char>,std::allocator<char> >,bool> >
PUBLIC	??$_Emplace_back_with_unused_capacity@U?$pair@V?$basic_string@DU?$char_traits@D@std@@V?$allocator@D@2@@std@@_N@std@@@?$vector@U?$pair@V?$basic_string@DU?$char_traits@D@std@@V?$allocator@D@2@@std@@_N@std@@V?$allocator@U?$pair@V?$basic_string@DU?$char_traits@D@std@@V?$allocator@D@2@@std@@_N@std@@@2@@std@@AEAAAEAU?$pair@V?$basic_string@DU?$char_traits@D@std@@V?$allocator@D@2@@std@@_N@1@$$QEAU21@@Z ; std::vector<std::pair<std::basic_string<char,std::char_traits<char>,std::allocator<char> >,bool>,std::allocator<std::pair<std::basic_string<char,std::char_traits<char>,std::allocator<char> >,bool> > >::_Emplace_back_with_unused_capacity<std::pair<std::basic_string<char,std::char_traits<char>,std::allocator<char> >,bool> >
PUBLIC	??$forward@U?$pair@V?$basic_string@DU?$char_traits@D@std@@V?$allocator@D@2@@std@@_N@std@@@std@@YA$$QEAU?$pair@V?$basic_string@DU?$char_traits@D@std@@V?$allocator@D@2@@std@@_N@0@AEAU10@@Z ; std::forward<std::pair<std::basic_string<char,std::char_traits<char>,std::allocator<char> >,bool> >
PUBLIC	??$?DM$0A@@glm@@YA?AU?$vec@$02M$0A@@0@MAEBU10@@Z ; glm::operator*<float,0>
PUBLIC	??$normalize@$02M$0A@@glm@@YA?AU?$vec@$02M$0A@@0@AEBU10@@Z ; glm::normalize<3,float,0>
PUBLIC	??$?HM$0A@@glm@@YA?AU?$vec@$03M$0A@@0@AEBU10@0@Z ; glm::operator+<float,0>
PUBLIC	??$_Insert_string@DU?$char_traits@D@std@@_K@std@@YAAEAV?$basic_ostream@DU?$char_traits@D@std@@@0@AEAV10@QEBD_K@Z ; std::_Insert_string<char,std::char_traits<char>,unsigned __int64>
PUBLIC	??$forward@AEAY0CG@$$CBD@std@@YAAEAY0CG@$$CBDAEAY0CG@$$CBD@Z ; std::forward<char const (&)[38]>
PUBLIC	??$forward@AEAY0CF@$$CBD@std@@YAAEAY0CF@$$CBDAEAY0CF@$$CBD@Z ; std::forward<char const (&)[37]>
PUBLIC	??$forward@AEAY0CE@$$CBD@std@@YAAEAY0CE@$$CBDAEAY0CE@$$CBD@Z ; std::forward<char const (&)[36]>
PUBLIC	??$forward@AEAY0CA@$$CBD@std@@YAAEAY0CA@$$CBDAEAY0CA@$$CBD@Z ; std::forward<char const (&)[32]>
PUBLIC	??$forward@AEAY0CI@$$CBD@std@@YAAEAY0CI@$$CBDAEAY0CI@$$CBD@Z ; std::forward<char const (&)[40]>
PUBLIC	??$forward@AEAY0CK@$$CBD@std@@YAAEAY0CK@$$CBDAEAY0CK@$$CBD@Z ; std::forward<char const (&)[42]>
PUBLIC	??$forward@_N@std@@YA$$QEA_NAEA_N@Z		; std::forward<bool>
PUBLIC	??$forward@AEAY0CL@$$CBD@std@@YAAEAY0CL@$$CBDAEAY0CL@$$CBD@Z ; std::forward<char const (&)[43]>
PUBLIC	??$?XM@?$vec@$03M$0A@@glm@@QEAAAEAU01@M@Z	; glm::vec<4,float,0>::operator*=<float>
PUBLIC	??$?0HHHM@?$vec@$03M$0A@@glm@@QEAA@HHHM@Z	; glm::vec<4,float,0>::vec<4,float,0><int,int,int,float>
PUBLIC	??$?0HHMH@?$vec@$03M$0A@@glm@@QEAA@HHMH@Z	; glm::vec<4,float,0>::vec<4,float,0><int,int,float,int>
PUBLIC	??$?0HMHH@?$vec@$03M$0A@@glm@@QEAA@HMHH@Z	; glm::vec<4,float,0>::vec<4,float,0><int,float,int,int>
PUBLIC	??$?0MHHH@?$vec@$03M$0A@@glm@@QEAA@MHHH@Z	; glm::vec<4,float,0>::vec<4,float,0><float,int,int,int>
PUBLIC	??$_Max_limit@_J@std@@YA_JXZ			; std::_Max_limit<__int64>
PUBLIC	??A?$mat@$03$03M$0A@@glm@@QEAAAEAU?$vec@$03M$0A@@1@H@Z ; glm::mat<4,4,float,0>::operator[]
PUBLIC	??A?$mat@$03$03M$0A@@glm@@QEBAAEBU?$vec@$03M$0A@@1@H@Z ; glm::mat<4,4,float,0>::operator[]
PUBLIC	??0?$vec@$03M$0A@@glm@@QEAA@M@Z			; glm::vec<4,float,0>::vec<4,float,0>
PUBLIC	??A?$vec@$03M$0A@@glm@@QEAAAEAMH@Z		; glm::vec<4,float,0>::operator[]
PUBLIC	??A?$vec@$02M$0A@@glm@@QEAAAEAMH@Z		; glm::vec<3,float,0>::operator[]
PUBLIC	??A?$vec@$02M$0A@@glm@@QEBAAEBMH@Z		; glm::vec<3,float,0>::operator[]
PUBLIC	?max_size@?$_Default_allocator_traits@V?$allocator@D@std@@@std@@SA_KAEBV?$allocator@D@2@@Z ; std::_Default_allocator_traits<std::allocator<char> >::max_size
PUBLIC	??0_Bxty@?$_String_val@U?$_Simple_types@D@std@@@std@@QEAA@XZ ; std::_String_val<std::_Simple_types<char> >::_Bxty::_Bxty
PUBLIC	??0_Sentry_base@?$basic_ostream@DU?$char_traits@D@std@@@std@@QEAA@AEAV12@@Z ; std::basic_ostream<char,std::char_traits<char> >::_Sentry_base::_Sentry_base
PUBLIC	??1_Sentry_base@?$basic_ostream@DU?$char_traits@D@std@@@std@@QEAA@XZ ; std::basic_ostream<char,std::char_traits<char> >::_Sentry_base::~_Sentry_base
PUBLIC	??0?$allocator@D@std@@QEAA@XZ			; std::allocator<char>::allocator<char>
PUBLIC	??0?$_String_val@U?$_Simple_types@D@std@@@std@@QEAA@XZ ; std::_String_val<std::_Simple_types<char> >::_String_val<std::_Simple_types<char> >
PUBLIC	?data@?$basic_string@DU?$char_traits@D@std@@V?$allocator@D@2@@std@@QEBAPEBDXZ ; std::basic_string<char,std::char_traits<char>,std::allocator<char> >::data
PUBLIC	?max_size@?$basic_string@DU?$char_traits@D@std@@V?$allocator@D@2@@std@@QEBA_KXZ ; std::basic_string<char,std::char_traits<char>,std::allocator<char> >::max_size
PUBLIC	?_Equal@?$basic_string@DU?$char_traits@D@std@@V?$allocator@D@2@@std@@QEBA_NQEBD@Z ; std::basic_string<char,std::char_traits<char>,std::allocator<char> >::_Equal
PUBLIC	?_Calculate_growth@?$basic_string@DU?$char_traits@D@std@@V?$allocator@D@2@@std@@CA_K_K00@Z ; std::basic_string<char,std::char_traits<char>,std::allocator<char> >::_Calculate_growth
PUBLIC	?_Calculate_growth@?$basic_string@DU?$char_traits@D@std@@V?$allocator@D@2@@std@@AEBA_K_K@Z ; std::basic_string<char,std::char_traits<char>,std::allocator<char> >::_Calculate_growth
PUBLIC	??0?$allocator@U?$pair@V?$basic_string@DU?$char_traits@D@std@@V?$allocator@D@2@@std@@_N@std@@@std@@QEAA@XZ ; std::allocator<std::pair<std::basic_string<char,std::char_traits<char>,std::allocator<char> >,bool> >::allocator<std::pair<std::basic_string<char,std::char_traits<char>,std::allocator<char> >,bool> >
PUBLIC	??0?$_Vector_val@U?$_Simple_types@U?$pair@V?$basic_string@DU?$char_traits@D@std@@V?$allocator@D@2@@std@@_N@std@@@std@@@std@@QEAA@XZ ; std::_Vector_val<std::_Simple_types<std::pair<std::basic_string<char,std::char_traits<char>,std::allocator<char> >,bool> > >::_Vector_val<std::_Simple_types<std::pair<std::basic_string<char,std::char_traits<char>,std::allocator<char> >,bool> > >
PUBLIC	??0sentry@?$basic_ostream@DU?$char_traits@D@std@@@std@@QEAA@AEAV12@@Z ; std::basic_ostream<char,std::char_traits<char> >::sentry::sentry
PUBLIC	??1sentry@?$basic_ostream@DU?$char_traits@D@std@@@std@@QEAA@XZ ; std::basic_ostream<char,std::char_traits<char> >::sentry::~sentry
PUBLIC	??Bsentry@?$basic_ostream@DU?$char_traits@D@std@@@std@@QEBA_NXZ ; std::basic_ostream<char,std::char_traits<char> >::sentry::operator bool
PUBLIC	??$_Destroy_in_place@PEAD@std@@YAXAEAPEAD@Z	; std::_Destroy_in_place<char *>
PUBLIC	??$_Deallocate@$0BA@@std@@YAXPEAX_K@Z		; std::_Deallocate<16>
PUBLIC	??$_Unfancy@D@std@@YAPEADPEAD@Z			; std::_Unfancy<char>
PUBLIC	??$_Construct_in_place@PEADAEAPEAD@std@@YAXAEAPEAD0@Z ; std::_Construct_in_place<char *,char * &>
PUBLIC	??$addressof@V?$_String_val@U?$_Simple_types@D@std@@@std@@@std@@YAPEAV?$_String_val@U?$_Simple_types@D@std@@@0@AEAV10@@Z ; std::addressof<std::_String_val<std::_Simple_types<char> > >
PUBLIC	??$_Reallocate_for@V<lambda_1>@?1??assign@?$basic_string@DU?$char_traits@D@std@@V?$allocator@D@2@@std@@QEAAAEAV34@QEBD_K@Z@PEBD@?$basic_string@DU?$char_traits@D@std@@V?$allocator@D@2@@std@@AEAAAEAV01@_KV<lambda_1>@?1??assign@01@QEAAAEAV01@QEBD0@Z@PEBD@Z ; std::basic_string<char,std::char_traits<char>,std::allocator<char> >::_Reallocate_for<`std::basic_string<char,std::char_traits<char>,std::allocator<char> >::assign'::`2'::<lambda_1>,char const *>
PUBLIC	??$_Destroy_range@V?$allocator@U?$pair@V?$basic_string@DU?$char_traits@D@std@@V?$allocator@D@2@@std@@_N@std@@@std@@@std@@YAXPEAU?$pair@V?$basic_string@DU?$char_traits@D@std@@V?$allocator@D@2@@std@@_N@0@QEAU10@AEAV?$allocator@U?$pair@V?$basic_string@DU?$char_traits@D@std@@V?$allocator@D@2@@std@@_N@std@@@0@@Z ; std::_Destroy_range<std::allocator<std::pair<std::basic_string<char,std::char_traits<char>,std::allocator<char> >,bool> > >
PUBLIC	??$_Construct@$01PEBD@?$basic_string@DU?$char_traits@D@std@@V?$allocator@D@2@@std@@AEAAXQEBD_K@Z ; std::basic_string<char,std::char_traits<char>,std::allocator<char> >::_Construct<2,char const *>
PUBLIC	??$_Construct@$00PEBD@?$basic_string@DU?$char_traits@D@std@@V?$allocator@D@2@@std@@AEAAXQEBD_K@Z ; std::basic_string<char,std::char_traits<char>,std::allocator<char> >::_Construct<1,char const *>
PUBLIC	??$?0$$V@?$_Compressed_pair@V?$allocator@D@std@@V?$_String_val@U?$_Simple_types@D@std@@@2@$00@std@@QEAA@U_Zero_then_variadic_args_t@1@@Z ; std::_Compressed_pair<std::allocator<char>,std::_String_val<std::_Simple_types<char> >,1>::_Compressed_pair<std::allocator<char>,std::_String_val<std::_Simple_types<char> >,1><>
PUBLIC	??$?0V?$allocator@D@std@@$$V@?$_Compressed_pair@V?$allocator@D@std@@V?$_String_val@U?$_Simple_types@D@std@@@2@$00@std@@QEAA@U_One_then_variadic_args_t@1@$$QEAV?$allocator@D@1@@Z ; std::_Compressed_pair<std::allocator<char>,std::_String_val<std::_Simple_types<char> >,1>::_Compressed_pair<std::allocator<char>,std::_String_val<std::_Simple_types<char> >,1><std::allocator<char> >
PUBLIC	??$move@AEAV?$allocator@D@std@@@std@@YA$$QEAV?$allocator@D@0@AEAV10@@Z ; std::move<std::allocator<char> &>
PUBLIC	??$_Pocca@V?$allocator@D@std@@@std@@YAXAEAV?$allocator@D@0@AEBV10@@Z ; std::_Pocca<std::allocator<char> >
PUBLIC	??$addressof@$$CBV?$basic_string@DU?$char_traits@D@std@@V?$allocator@D@2@@std@@@std@@YAPEBV?$basic_string@DU?$char_traits@D@std@@V?$allocator@D@2@@0@AEBV10@@Z ; std::addressof<std::basic_string<char,std::char_traits<char>,std::allocator<char> > const >
PUBLIC	??$_Convert_size@_K_K@std@@YA_K_K@Z		; std::_Convert_size<unsigned __int64,unsigned __int64>
PUBLIC	??$_Emplace_one_at_back@UsLODInfo@sMesh@@@?$vector@UsLODInfo@sMesh@@V?$allocator@UsLODInfo@sMesh@@@std@@@std@@AEAAAEAUsLODInfo@sMesh@@$$QEAU23@@Z ; std::vector<sMesh::sLODInfo,std::allocator<sMesh::sLODInfo> >::_Emplace_one_at_back<sMesh::sLODInfo>
PUBLIC	??$move@AEAUsLODInfo@sMesh@@@std@@YA$$QEAUsLODInfo@sMesh@@AEAU12@@Z ; std::move<sMesh::sLODInfo &>
PUBLIC	??$_Emplace_one_at_back@AEBQEAUsMesh@@@?$vector@PEAUsMesh@@V?$allocator@PEAUsMesh@@@std@@@std@@AEAAAEAPEAUsMesh@@AEBQEAU2@@Z ; std::vector<sMesh *,std::allocator<sMesh *> >::_Emplace_one_at_back<sMesh * const &>
PUBLIC	??$_Unfancy_maybe_null@PEAVcMesh@AH@@@std@@YAPEAPEAVcMesh@AH@@PEAPEAV12@@Z ; std::_Unfancy_maybe_null<AH::cMesh *>
PUBLIC	??$?0$$V@?$_Compressed_pair@V?$allocator@U?$pair@V?$basic_string@DU?$char_traits@D@std@@V?$allocator@D@2@@std@@_N@std@@@std@@V?$_Vector_val@U?$_Simple_types@U?$pair@V?$basic_string@DU?$char_traits@D@std@@V?$allocator@D@2@@std@@_N@std@@@std@@@2@$00@std@@QEAA@U_Zero_then_variadic_args_t@1@@Z ; std::_Compressed_pair<std::allocator<std::pair<std::basic_string<char,std::char_traits<char>,std::allocator<char> >,bool> >,std::_Vector_val<std::_Simple_types<std::pair<std::basic_string<char,std::char_traits<char>,std::allocator<char> >,bool> > >,1>::_Compressed_pair<std::allocator<std::pair<std::basic_string<char,std::char_traits<char>,std::allocator<char> >,bool> >,std::_Vector_val<std::_Simple_types<std::pair<std::basic_string<char,std::char_traits<char>,std::allocator<char> >,bool> > >,1><>
PUBLIC	??$_Emplace_one_at_back@U?$pair@V?$basic_string@DU?$char_traits@D@std@@V?$allocator@D@2@@std@@_N@std@@@?$vector@U?$pair@V?$basic_string@DU?$char_traits@D@std@@V?$allocator@D@2@@std@@_N@std@@V?$allocator@U?$pair@V?$basic_string@DU?$char_traits@D@std@@V?$allocator@D@2@@std@@_N@std@@@2@@std@@AEAAAEAU?$pair@V?$basic_string@DU?$char_traits@D@std@@V?$allocator@D@2@@std@@_N@1@$$QEAU21@@Z ; std::vector<std::pair<std::basic_string<char,std::char_traits<char>,std::allocator<char> >,bool>,std::allocator<std::pair<std::basic_string<char,std::char_traits<char>,std::allocator<char> >,bool> > >::_Emplace_one_at_back<std::pair<std::basic_string<char,std::char_traits<char>,std::allocator<char> >,bool> >
PUBLIC	??$move@AEAU?$pair@V?$basic_string@DU?$char_traits@D@std@@V?$allocator@D@2@@std@@_N@std@@@std@@YA$$QEAU?$pair@V?$basic_string@DU?$char_traits@D@std@@V?$allocator@D@2@@std@@_N@0@AEAU10@@Z ; std::move<std::pair<std::basic_string<char,std::char_traits<char>,std::allocator<char> >,bool> &>
PUBLIC	??$_Unfancy_maybe_null@U?$pair@V?$basic_string@DU?$char_traits@D@std@@V?$allocator@D@2@@std@@_N@std@@@std@@YAPEAU?$pair@V?$basic_string@DU?$char_traits@D@std@@V?$allocator@D@2@@std@@_N@0@PEAU10@@Z ; std::_Unfancy_maybe_null<std::pair<std::basic_string<char,std::char_traits<char>,std::allocator<char> >,bool> >
PUBLIC	??$rotate@M$0A@@glm@@YA?AU?$mat@$03$03M$0A@@0@AEBU10@MAEBU?$vec@$02M$0A@@0@@Z ; glm::rotate<float,0>
PUBLIC	??$radians@M@glm@@YAMM@Z			; glm::radians<float>
PUBLIC	??$translate@M$0A@@glm@@YA?AU?$mat@$03$03M$0A@@0@AEBU10@AEBU?$vec@$02M$0A@@0@@Z ; glm::translate<float,0>
PUBLIC	??$?6DU?$char_traits@D@std@@V?$allocator@D@1@@std@@YAAEAV?$basic_ostream@DU?$char_traits@D@std@@@0@AEAV10@AEBV?$basic_string@DU?$char_traits@D@std@@V?$allocator@D@2@@0@@Z ; std::operator<<<char,std::char_traits<char>,std::allocator<char> >
PUBLIC	??$?0AEAY0CG@$$CBD_N$0A@@?$pair@V?$basic_string@DU?$char_traits@D@std@@V?$allocator@D@2@@std@@_N@std@@QEAA@AEAY0CG@$$CBD$$QEA_N@Z ; std::pair<std::basic_string<char,std::char_traits<char>,std::allocator<char> >,bool>::pair<std::basic_string<char,std::char_traits<char>,std::allocator<char> >,bool><char const (&)[38],bool,0>
PUBLIC	??$?0AEAY0CF@$$CBD_N$0A@@?$pair@V?$basic_string@DU?$char_traits@D@std@@V?$allocator@D@2@@std@@_N@std@@QEAA@AEAY0CF@$$CBD$$QEA_N@Z ; std::pair<std::basic_string<char,std::char_traits<char>,std::allocator<char> >,bool>::pair<std::basic_string<char,std::char_traits<char>,std::allocator<char> >,bool><char const (&)[37],bool,0>
PUBLIC	??$?0AEAY0CE@$$CBD_N$0A@@?$pair@V?$basic_string@DU?$char_traits@D@std@@V?$allocator@D@2@@std@@_N@std@@QEAA@AEAY0CE@$$CBD$$QEA_N@Z ; std::pair<std::basic_string<char,std::char_traits<char>,std::allocator<char> >,bool>::pair<std::basic_string<char,std::char_traits<char>,std::allocator<char> >,bool><char const (&)[36],bool,0>
PUBLIC	??$?0AEAY0CA@$$CBD_N$0A@@?$pair@V?$basic_string@DU?$char_traits@D@std@@V?$allocator@D@2@@std@@_N@std@@QEAA@AEAY0CA@$$CBD$$QEA_N@Z ; std::pair<std::basic_string<char,std::char_traits<char>,std::allocator<char> >,bool>::pair<std::basic_string<char,std::char_traits<char>,std::allocator<char> >,bool><char const (&)[32],bool,0>
PUBLIC	??$?0AEAY0CI@$$CBD_N$0A@@?$pair@V?$basic_string@DU?$char_traits@D@std@@V?$allocator@D@2@@std@@_N@std@@QEAA@AEAY0CI@$$CBD$$QEA_N@Z ; std::pair<std::basic_string<char,std::char_traits<char>,std::allocator<char> >,bool>::pair<std::basic_string<char,std::char_traits<char>,std::allocator<char> >,bool><char const (&)[40],bool,0>
PUBLIC	??$?0AEAY0CK@$$CBD_N$0A@@?$pair@V?$basic_string@DU?$char_traits@D@std@@V?$allocator@D@2@@std@@_N@std@@QEAA@AEAY0CK@$$CBD$$QEA_N@Z ; std::pair<std::basic_string<char,std::char_traits<char>,std::allocator<char> >,bool>::pair<std::basic_string<char,std::char_traits<char>,std::allocator<char> >,bool><char const (&)[42],bool,0>
PUBLIC	??$?0AEAY0CL@$$CBD_N$0A@@?$pair@V?$basic_string@DU?$char_traits@D@std@@V?$allocator@D@2@@std@@_N@std@@QEAA@AEAY0CL@$$CBD$$QEA_N@Z ; std::pair<std::basic_string<char,std::char_traits<char>,std::allocator<char> >,bool>::pair<std::basic_string<char,std::char_traits<char>,std::allocator<char> >,bool><char const (&)[43],bool,0>
PUBLIC	??$endl@DU?$char_traits@D@std@@@std@@YAAEAV?$basic_ostream@DU?$char_traits@D@std@@@0@AEAV10@@Z ; std::endl<char,std::char_traits<char> >
PUBLIC	??$?6U?$char_traits@D@std@@@std@@YAAEAV?$basic_ostream@DU?$char_traits@D@std@@@0@AEAV10@PEBD@Z ; std::operator<<<std::char_traits<char> >
PUBLIC	??$?8DU?$char_traits@D@std@@V?$allocator@D@1@@std@@YA_NAEBV?$basic_string@DU?$char_traits@D@std@@V?$allocator@D@2@@0@QEBD@Z ; std::operator==<char,std::char_traits<char>,std::allocator<char> >
PUBLIC	??$min@_K@std@@YAAEB_KAEB_K0@Z			; std::min<unsigned __int64>
PUBLIC	??$?DM$0A@@glm@@YA?AU?$vec@$03M$0A@@0@AEBU10@M@Z ; glm::operator*<float,0>
PUBLIC	??0?$mat@$03$03M$0A@@glm@@QEAA@M@Z		; glm::mat<4,4,float,0>::mat<4,4,float,0>
PUBLIC	??0?$vec@$03M$0A@@glm@@QEAA@MMMM@Z		; glm::vec<4,float,0>::vec<4,float,0>
PUBLIC	??0?$vec@$02M$0A@@glm@@QEAA@M@Z			; glm::vec<3,float,0>::vec<3,float,0>
PUBLIC	??0?$vec@$02M$0A@@glm@@QEAA@MMM@Z		; glm::vec<3,float,0>::vec<3,float,0>
PUBLIC	?deallocate@?$allocator@D@std@@QEAAXQEAD_K@Z	; std::allocator<char>::deallocate
PUBLIC	?_Get_first@?$_Compressed_pair@V?$allocator@U?$pair@V?$basic_string@DU?$char_traits@D@std@@V?$allocator@D@2@@std@@_N@std@@@std@@V?$_Vector_val@U?$_Simple_types@U?$pair@V?$basic_string@DU?$char_traits@D@std@@V?$allocator@D@2@@std@@_N@std@@@std@@@2@$00@std@@QEAAAEAV?$allocator@U?$pair@V?$basic_string@DU?$char_traits@D@std@@V?$allocator@D@2@@std@@_N@std@@@2@XZ ; std::_Compressed_pair<std::allocator<std::pair<std::basic_string<char,std::char_traits<char>,std::allocator<char> >,bool> >,std::_Vector_val<std::_Simple_types<std::pair<std::basic_string<char,std::char_traits<char>,std::allocator<char> >,bool> > >,1>::_Get_first
PUBLIC	?move@?$_Char_traits@DH@std@@SAPEADQEADQEBD_K@Z	; std::_Char_traits<char,int>::move
PUBLIC	?assign@?$_Narrow_char_traits@DH@std@@SAXAEADAEBD@Z ; std::_Narrow_char_traits<char,int>::assign
PUBLIC	?_Large_mode_engaged@?$_String_val@U?$_Simple_types@D@std@@@std@@QEBA_NXZ ; std::_String_val<std::_Simple_types<char> >::_Large_mode_engaged
PUBLIC	?_Activate_SSO_buffer@?$_String_val@U?$_Simple_types@D@std@@@std@@QEAAXXZ ; std::_String_val<std::_Simple_types<char> >::_Activate_SSO_buffer
PUBLIC	?_Switch_to_buf@_Bxty@?$_String_val@U?$_Simple_types@D@std@@@std@@QEAAXXZ ; std::_String_val<std::_Simple_types<char> >::_Bxty::_Switch_to_buf
PUBLIC	?_Deallocate_for_capacity@?$basic_string@DU?$char_traits@D@std@@V?$allocator@D@2@@std@@CAXAEAV?$allocator@D@2@QEAD_K@Z ; std::basic_string<char,std::char_traits<char>,std::allocator<char> >::_Deallocate_for_capacity
PUBLIC	?_Swap_proxy_and_iterators@?$basic_string@DU?$char_traits@D@std@@V?$allocator@D@2@@std@@AEAAXAEAV12@@Z ; std::basic_string<char,std::char_traits<char>,std::allocator<char> >::_Swap_proxy_and_iterators
PUBLIC	?_Get_first@?$_Compressed_pair@V?$allocator@D@std@@V?$_String_val@U?$_Simple_types@D@std@@@2@$00@std@@QEAAAEAV?$allocator@D@2@XZ ; std::_Compressed_pair<std::allocator<char>,std::_String_val<std::_Simple_types<char> >,1>::_Get_first
PUBLIC	?_Get_first@?$_Compressed_pair@V?$allocator@D@std@@V?$_String_val@U?$_Simple_types@D@std@@@2@$00@std@@QEBAAEBV?$allocator@D@2@XZ ; std::_Compressed_pair<std::allocator<char>,std::_String_val<std::_Simple_types<char> >,1>::_Get_first
PUBLIC	??$max@_K@std@@YAAEB_KAEB_K0@Z			; std::max<unsigned __int64>
PUBLIC	?deallocate@?$allocator@U?$pair@V?$basic_string@DU?$char_traits@D@std@@V?$allocator@D@2@@std@@_N@std@@@std@@QEAAXQEAU?$pair@V?$basic_string@DU?$char_traits@D@std@@V?$allocator@D@2@@std@@_N@2@_K@Z ; std::allocator<std::pair<std::basic_string<char,std::char_traits<char>,std::allocator<char> >,bool> >::deallocate
PUBLIC	?_Getal@?$vector@U?$pair@V?$basic_string@DU?$char_traits@D@std@@V?$allocator@D@2@@std@@_N@std@@V?$allocator@U?$pair@V?$basic_string@DU?$char_traits@D@std@@V?$allocator@D@2@@std@@_N@std@@@2@@std@@AEAAAEAV?$allocator@U?$pair@V?$basic_string@DU?$char_traits@D@std@@V?$allocator@D@2@@std@@_N@std@@@2@XZ ; std::vector<std::pair<std::basic_string<char,std::char_traits<char>,std::allocator<char> >,bool>,std::allocator<std::pair<std::basic_string<char,std::char_traits<char>,std::allocator<char> >,bool> > >::_Getal
PUBLIC	?copy@?$_Char_traits@DH@std@@SAPEADQEADQEBD_K@Z	; std::_Char_traits<char,int>::copy
PUBLIC	?length@?$_Narrow_char_traits@DH@std@@SA_KQEBD@Z ; std::_Narrow_char_traits<char,int>::length
PUBLIC	?eq_int_type@?$_Narrow_char_traits@DH@std@@SA_NHH@Z ; std::_Narrow_char_traits<char,int>::eq_int_type
PUBLIC	?eof@?$_Narrow_char_traits@DH@std@@SAHXZ	; std::_Narrow_char_traits<char,int>::eof
PUBLIC	?select_on_container_copy_construction@?$_Default_allocator_traits@V?$allocator@D@std@@@std@@SA?AV?$allocator@D@2@AEBV32@@Z ; std::_Default_allocator_traits<std::allocator<char> >::select_on_container_copy_construction
PUBLIC	?_Myptr@?$_String_val@U?$_Simple_types@D@std@@@std@@QEAAPEADXZ ; std::_String_val<std::_Simple_types<char> >::_Myptr
PUBLIC	?_Myptr@?$_String_val@U?$_Simple_types@D@std@@@std@@QEBAPEBDXZ ; std::_String_val<std::_Simple_types<char> >::_Myptr
PUBLIC	??1_Bxty@?$_String_val@U?$_Simple_types@D@std@@@std@@QEAA@XZ ; std::_String_val<std::_Simple_types<char> >::_Bxty::~_Bxty
PUBLIC	?_Take_contents@?$basic_string@DU?$char_traits@D@std@@V?$allocator@D@2@@std@@AEAAXAEAV12@@Z ; std::basic_string<char,std::char_traits<char>,std::allocator<char> >::_Take_contents
PUBLIC	??R<lambda_1>@?1??assign@?$basic_string@DU?$char_traits@D@std@@V?$allocator@D@2@@std@@QEAAAEAV23@QEBD_K@Z@QEBA@QEAD10@Z ; `std::basic_string<char,std::char_traits<char>,std::allocator<char> >::assign'::`2'::<lambda_1>::operator()
PUBLIC	?assign@?$basic_string@DU?$char_traits@D@std@@V?$allocator@D@2@@std@@QEAAAEAV12@QEBD_K@Z ; std::basic_string<char,std::char_traits<char>,std::allocator<char> >::assign
PUBLIC	?assign@?$basic_string@DU?$char_traits@D@std@@V?$allocator@D@2@@std@@QEAAAEAV12@QEBD@Z ; std::basic_string<char,std::char_traits<char>,std::allocator<char> >::assign
PUBLIC	?size@?$basic_string@DU?$char_traits@D@std@@V?$allocator@D@2@@std@@QEBA_KXZ ; std::basic_string<char,std::char_traits<char>,std::allocator<char> >::size
PUBLIC	?_Tidy_deallocate@?$basic_string@DU?$char_traits@D@std@@V?$allocator@D@2@@std@@AEAAXXZ ; std::basic_string<char,std::char_traits<char>,std::allocator<char> >::_Tidy_deallocate
PUBLIC	?_Getal@?$basic_string@DU?$char_traits@D@std@@V?$allocator@D@2@@std@@AEAAAEAV?$allocator@D@2@XZ ; std::basic_string<char,std::char_traits<char>,std::allocator<char> >::_Getal
PUBLIC	?_Getal@?$basic_string@DU?$char_traits@D@std@@V?$allocator@D@2@@std@@AEBAAEBV?$allocator@D@2@XZ ; std::basic_string<char,std::char_traits<char>,std::allocator<char> >::_Getal
PUBLIC	?_Tidy@?$vector@U?$pair@V?$basic_string@DU?$char_traits@D@std@@V?$allocator@D@2@@std@@_N@std@@V?$allocator@U?$pair@V?$basic_string@DU?$char_traits@D@std@@V?$allocator@D@2@@std@@_N@std@@@2@@std@@AEAAXXZ ; std::vector<std::pair<std::basic_string<char,std::char_traits<char>,std::allocator<char> >,bool>,std::allocator<std::pair<std::basic_string<char,std::char_traits<char>,std::allocator<char> >,bool> > >::_Tidy
PUBLIC	??1?$_String_val@U?$_Simple_types@D@std@@@std@@QEAA@XZ ; std::_String_val<std::_Simple_types<char> >::~_String_val<std::_Simple_types<char> >
PUBLIC	??1?$_Compressed_pair@V?$allocator@D@std@@V?$_String_val@U?$_Simple_types@D@std@@@2@$00@std@@QEAA@XZ ; std::_Compressed_pair<std::allocator<char>,std::_String_val<std::_Simple_types<char> >,1>::~_Compressed_pair<std::allocator<char>,std::_String_val<std::_Simple_types<char> >,1>
PUBLIC	??0?$basic_string@DU?$char_traits@D@std@@V?$allocator@D@2@@std@@QEAA@AEBV01@@Z ; std::basic_string<char,std::char_traits<char>,std::allocator<char> >::basic_string<char,std::char_traits<char>,std::allocator<char> >
PUBLIC	??0?$basic_string@DU?$char_traits@D@std@@V?$allocator@D@2@@std@@QEAA@QEBD@Z ; std::basic_string<char,std::char_traits<char>,std::allocator<char> >::basic_string<char,std::char_traits<char>,std::allocator<char> >
PUBLIC	??0?$basic_string@DU?$char_traits@D@std@@V?$allocator@D@2@@std@@QEAA@$$QEAV01@@Z ; std::basic_string<char,std::char_traits<char>,std::allocator<char> >::basic_string<char,std::char_traits<char>,std::allocator<char> >
PUBLIC	??1?$basic_string@DU?$char_traits@D@std@@V?$allocator@D@2@@std@@QEAA@XZ ; std::basic_string<char,std::char_traits<char>,std::allocator<char> >::~basic_string<char,std::char_traits<char>,std::allocator<char> >
PUBLIC	??4?$basic_string@DU?$char_traits@D@std@@V?$allocator@D@2@@std@@QEAAAEAV01@AEBV01@@Z ; std::basic_string<char,std::char_traits<char>,std::allocator<char> >::operator=
PUBLIC	??4?$basic_string@DU?$char_traits@D@std@@V?$allocator@D@2@@std@@QEAAAEAV01@QEBD@Z ; std::basic_string<char,std::char_traits<char>,std::allocator<char> >::operator=
PUBLIC	?push_back@?$vector@UsLODInfo@sMesh@@V?$allocator@UsLODInfo@sMesh@@@std@@@std@@QEAAX$$QEAUsLODInfo@sMesh@@@Z ; std::vector<sMesh::sLODInfo,std::allocator<sMesh::sLODInfo> >::push_back
PUBLIC	?push_back@?$vector@PEAUsMesh@@V?$allocator@PEAUsMesh@@@std@@@std@@QEAAXAEBQEAUsMesh@@@Z ; std::vector<sMesh *,std::allocator<sMesh *> >::push_back
PUBLIC	?size@?$vector@IV?$allocator@I@std@@@std@@QEBA_KXZ ; std::vector<unsigned int,std::allocator<unsigned int> >::size
PUBLIC	??A?$vector@IV?$allocator@I@std@@@std@@QEAAAEAI_K@Z ; std::vector<unsigned int,std::allocator<unsigned int> >::operator[]
PUBLIC	?empty@?$vector@U?$vec@$02M$0A@@glm@@V?$allocator@U?$vec@$02M$0A@@glm@@@std@@@std@@QEBA_NXZ ; std::vector<glm::vec<3,float,0>,std::allocator<glm::vec<3,float,0> > >::empty
PUBLIC	?size@?$vector@U?$vec@$02M$0A@@glm@@V?$allocator@U?$vec@$02M$0A@@glm@@@std@@@std@@QEBA_KXZ ; std::vector<glm::vec<3,float,0>,std::allocator<glm::vec<3,float,0> > >::size
PUBLIC	??A?$vector@U?$vec@$02M$0A@@glm@@V?$allocator@U?$vec@$02M$0A@@glm@@@std@@@std@@QEAAAEAU?$vec@$02M$0A@@glm@@_K@Z ; std::vector<glm::vec<3,float,0>,std::allocator<glm::vec<3,float,0> > >::operator[]
PUBLIC	?empty@?$vector@V?$vector@U?$vec@$03M$0A@@glm@@V?$allocator@U?$vec@$03M$0A@@glm@@@std@@@std@@V?$allocator@V?$vector@U?$vec@$03M$0A@@glm@@V?$allocator@U?$vec@$03M$0A@@glm@@@std@@@std@@@2@@std@@QEBA_NXZ ; std::vector<std::vector<glm::vec<4,float,0>,std::allocator<glm::vec<4,float,0> > >,std::allocator<std::vector<glm::vec<4,float,0>,std::allocator<glm::vec<4,float,0> > > > >::empty
PUBLIC	??A?$vector@V?$vector@U?$vec@$03M$0A@@glm@@V?$allocator@U?$vec@$03M$0A@@glm@@@std@@@std@@V?$allocator@V?$vector@U?$vec@$03M$0A@@glm@@V?$allocator@U?$vec@$03M$0A@@glm@@@std@@@std@@@2@@std@@QEAAAEAV?$vector@U?$vec@$03M$0A@@glm@@V?$allocator@U?$vec@$03M$0A@@glm@@@std@@@1@_K@Z ; std::vector<std::vector<glm::vec<4,float,0>,std::allocator<glm::vec<4,float,0> > >,std::allocator<std::vector<glm::vec<4,float,0>,std::allocator<glm::vec<4,float,0> > > > >::operator[]
PUBLIC	?empty@?$vector@UsUVChannel@cMesh@AH@@V?$allocator@UsUVChannel@cMesh@AH@@@std@@@std@@QEBA_NXZ ; std::vector<AH::cMesh::sUVChannel,std::allocator<AH::cMesh::sUVChannel> >::empty
PUBLIC	??A?$vector@UsUVChannel@cMesh@AH@@V?$allocator@UsUVChannel@cMesh@AH@@@std@@@std@@QEAAAEAUsUVChannel@cMesh@AH@@_K@Z ; std::vector<AH::cMesh::sUVChannel,std::allocator<AH::cMesh::sUVChannel> >::operator[]
PUBLIC	?size@?$vector@VcFace@AH@@V?$allocator@VcFace@AH@@@std@@@std@@QEBA_KXZ ; std::vector<AH::cFace,std::allocator<AH::cFace> >::size
PUBLIC	?_Unchecked_begin@?$vector@PEAVcMesh@AH@@V?$allocator@PEAVcMesh@AH@@@std@@@std@@QEAAPEAPEAVcMesh@AH@@XZ ; std::vector<AH::cMesh *,std::allocator<AH::cMesh *> >::_Unchecked_begin
PUBLIC	?_Unchecked_end@?$vector@PEAVcMesh@AH@@V?$allocator@PEAVcMesh@AH@@@std@@@std@@QEAAPEAPEAVcMesh@AH@@XZ ; std::vector<AH::cMesh *,std::allocator<AH::cMesh *> >::_Unchecked_end
PUBLIC	??0?$vector@U?$pair@V?$basic_string@DU?$char_traits@D@std@@V?$allocator@D@2@@std@@_N@std@@V?$allocator@U?$pair@V?$basic_string@DU?$char_traits@D@std@@V?$allocator@D@2@@std@@_N@std@@@2@@std@@QEAA@XZ ; std::vector<std::pair<std::basic_string<char,std::char_traits<char>,std::allocator<char> >,bool>,std::allocator<std::pair<std::basic_string<char,std::char_traits<char>,std::allocator<char> >,bool> > >::vector<std::pair<std::basic_string<char,std::char_traits<char>,std::allocator<char> >,bool>,std::allocator<std::pair<std::basic_string<char,std::char_traits<char>,std::allocator<char> >,bool> > >
PUBLIC	??1?$vector@U?$pair@V?$basic_string@DU?$char_traits@D@std@@V?$allocator@D@2@@std@@_N@std@@V?$allocator@U?$pair@V?$basic_string@DU?$char_traits@D@std@@V?$allocator@D@2@@std@@_N@std@@@2@@std@@QEAA@XZ ; std::vector<std::pair<std::basic_string<char,std::char_traits<char>,std::allocator<char> >,bool>,std::allocator<std::pair<std::basic_string<char,std::char_traits<char>,std::allocator<char> >,bool> > >::~vector<std::pair<std::basic_string<char,std::char_traits<char>,std::allocator<char> >,bool>,std::allocator<std::pair<std::basic_string<char,std::char_traits<char>,std::allocator<char> >,bool> > >
PUBLIC	?push_back@?$vector@U?$pair@V?$basic_string@DU?$char_traits@D@std@@V?$allocator@D@2@@std@@_N@std@@V?$allocator@U?$pair@V?$basic_string@DU?$char_traits@D@std@@V?$allocator@D@2@@std@@_N@std@@@2@@std@@QEAAX$$QEAU?$pair@V?$basic_string@DU?$char_traits@D@std@@V?$allocator@D@2@@std@@_N@2@@Z ; std::vector<std::pair<std::basic_string<char,std::char_traits<char>,std::allocator<char> >,bool>,std::allocator<std::pair<std::basic_string<char,std::char_traits<char>,std::allocator<char> >,bool> > >::push_back
PUBLIC	?_Unchecked_begin@?$vector@U?$pair@V?$basic_string@DU?$char_traits@D@std@@V?$allocator@D@2@@std@@_N@std@@V?$allocator@U?$pair@V?$basic_string@DU?$char_traits@D@std@@V?$allocator@D@2@@std@@_N@std@@@2@@std@@QEAAPEAU?$pair@V?$basic_string@DU?$char_traits@D@std@@V?$allocator@D@2@@std@@_N@2@XZ ; std::vector<std::pair<std::basic_string<char,std::char_traits<char>,std::allocator<char> >,bool>,std::allocator<std::pair<std::basic_string<char,std::char_traits<char>,std::allocator<char> >,bool> > >::_Unchecked_begin
PUBLIC	?_Unchecked_end@?$vector@U?$pair@V?$basic_string@DU?$char_traits@D@std@@V?$allocator@D@2@@std@@_N@std@@V?$allocator@U?$pair@V?$basic_string@DU?$char_traits@D@std@@V?$allocator@D@2@@std@@_N@std@@@2@@std@@QEAAPEAU?$pair@V?$basic_string@DU?$char_traits@D@std@@V?$allocator@D@2@@std@@_N@2@XZ ; std::vector<std::pair<std::basic_string<char,std::char_traits<char>,std::allocator<char> >,bool>,std::allocator<std::pair<std::basic_string<char,std::char_traits<char>,std::allocator<char> >,bool> > >::_Unchecked_end
PUBLIC	??A?$vector@U?$vec@$03M$0A@@glm@@V?$allocator@U?$vec@$03M$0A@@glm@@@std@@@std@@QEAAAEAU?$vec@$03M$0A@@glm@@_K@Z ; std::vector<glm::vec<4,float,0>,std::allocator<glm::vec<4,float,0> > >::operator[]
PUBLIC	?Convert_AssimpHelperMesh_to_sModelDrawInfo@@YA_NPEAVcMesh@AH@@AEAUsModelDrawInfo@@@Z ; Convert_AssimpHelperMesh_to_sModelDrawInfo
PUBLIC	??0?$pair@V?$basic_string@DU?$char_traits@D@std@@V?$allocator@D@2@@std@@_N@std@@QEAA@AEBU01@@Z ; std::pair<std::basic_string<char,std::char_traits<char>,std::allocator<char> >,bool>::pair<std::basic_string<char,std::char_traits<char>,std::allocator<char> >,bool>
PUBLIC	??1?$pair@V?$basic_string@DU?$char_traits@D@std@@V?$allocator@D@2@@std@@_N@std@@QEAA@XZ ; std::pair<std::basic_string<char,std::char_traits<char>,std::allocator<char> >,bool>::~pair<std::basic_string<char,std::char_traits<char>,std::allocator<char> >,bool>
PUBLIC	?__autoclassinit2@?$vector@U?$pair@V?$basic_string@DU?$char_traits@D@std@@V?$allocator@D@2@@std@@_N@std@@V?$allocator@U?$pair@V?$basic_string@DU?$char_traits@D@std@@V?$allocator@D@2@@std@@_N@std@@@2@@std@@QEAAX_K@Z ; std::vector<std::pair<std::basic_string<char,std::char_traits<char>,std::allocator<char> >,bool>,std::allocator<std::pair<std::basic_string<char,std::char_traits<char>,std::allocator<char> >,bool> > >::__autoclassinit2
PUBLIC	??1sLODInfo@sMesh@@QEAA@XZ			; sMesh::sLODInfo::~sLODInfo
PUBLIC	??1sModelDrawInfo@@QEAA@XZ			; sModelDrawInfo::~sModelDrawInfo
PUBLIC	?__autoclassinit2@cFileLoader@AH@@QEAAX_K@Z	; AH::cFileLoader::__autoclassinit2
PUBLIC	??0sPostProcessFlags@cFileLoader@AH@@QEAA@XZ	; AH::cFileLoader::sPostProcessFlags::sPostProcessFlags
PUBLIC	?AddModelsToScene@@YAXPEAVcVAOManager@@I@Z	; AddModelsToScene
PUBLIC	??0sLODInfo@sMesh@@QEAA@V?$basic_string@DU?$char_traits@D@std@@V?$allocator@D@2@@std@@MI@Z ; sMesh::sLODInfo::sLODInfo
PUBLIC	?_Xlen_string@std@@YAXXZ			; std::_Xlen_string
PUBLIC	?_Release@_Fake_proxy_ptr_impl@std@@QEAAXXZ	; std::_Fake_proxy_ptr_impl::_Release
PUBLIC	??0_Fake_proxy_ptr_impl@std@@QEAA@AEBU_Fake_allocator@1@AEBU_Container_base0@1@@Z ; std::_Fake_proxy_ptr_impl::_Fake_proxy_ptr_impl
PUBLIC	?_Alloc_proxy@_Container_base0@std@@QEAAXAEBU_Fake_allocator@2@@Z ; std::_Container_base0::_Alloc_proxy
PUBLIC	?_Swap_proxy_and_iterators@_Container_base0@std@@QEAAXAEAU12@@Z ; std::_Container_base0::_Swap_proxy_and_iterators
PUBLIC	?_Orphan_all@_Container_base0@std@@QEAAXXZ	; std::_Container_base0::_Orphan_all
PUBLIC	?_Adjust_manually_vector_aligned@std@@YAXAEAPEAXAEA_K@Z ; std::_Adjust_manually_vector_aligned
PUBLIC	?_Allocate@_Default_allocate_traits@std@@SAPEAX_K@Z ; std::_Default_allocate_traits::_Allocate
PUBLIC	??0bad_alloc@std@@QEAA@AEBV01@@Z		; std::bad_alloc::bad_alloc
PUBLIC	??0bad_array_new_length@std@@QEAA@AEBV01@@Z	; std::bad_array_new_length::bad_array_new_length
PUBLIC	?_Throw_bad_array_new_length@std@@YAXXZ		; std::_Throw_bad_array_new_length
PUBLIC	??1bad_array_new_length@std@@UEAA@XZ		; std::bad_array_new_length::~bad_array_new_length
PUBLIC	??_Gbad_array_new_length@std@@UEAAPEAXI@Z	; std::bad_array_new_length::`scalar deleting destructor'
PUBLIC	??0bad_array_new_length@std@@QEAA@XZ		; std::bad_array_new_length::bad_array_new_length
PUBLIC	??1bad_alloc@std@@UEAA@XZ			; std::bad_alloc::~bad_alloc
PUBLIC	??_Gbad_alloc@std@@UEAAPEAXI@Z			; std::bad_alloc::`scalar deleting destructor'
PUBLIC	??0bad_alloc@std@@AEAA@QEBD@Z			; std::bad_alloc::bad_alloc
PUBLIC	??_Gexception@std@@UEAAPEAXI@Z			; std::exception::`scalar deleting destructor'
PUBLIC	?what@exception@std@@UEBAPEBDXZ			; std::exception::what
PUBLIC	??1exception@std@@UEAA@XZ			; std::exception::~exception
PUBLIC	??0exception@std@@QEAA@AEBV01@@Z		; std::exception::exception
PUBLIC	??0exception@std@@QEAA@QEBDH@Z			; std::exception::exception
PUBLIC	?sqrt@@YAMM@Z					; sqrt
PUBLIC	?sin@@YAMM@Z					; sin
PUBLIC	?cos@@YAMM@Z					; cos
PUBLIC	??2@YAPEAX_KPEAX@Z				; operator new
PUBLIC	__real@34000000
PUBLIC	__real@38d1b717
PUBLIC	__real@3c23d70a
PUBLIC	__real@3c888889
PUBLIC	__real@3c8efa35
PUBLIC	__real@3ccccccd
PUBLIC	__real@3d23d70a
PUBLIC	__real@3d4ccccd
PUBLIC	__real@3db2b8c2
PUBLIC	__real@3dcccccd
PUBLIC	__real@3e20a0a1
PUBLIC	__real@3e48c8c9
PUBLIC	__real@3e4ccccd
PUBLIC	__real@3e800000
PUBLIC	__real@3e99999a
PUBLIC	__real@3eb33333
PUBLIC	__real@3ec8c8c9
PUBLIC	__real@3ecccccd
PUBLIC	__real@3ef14639
PUBLIC	__real@3f000000
PUBLIC	__real@3f169697
PUBLIC	__real@3f19999a
PUBLIC	__real@3f400000
PUBLIC	__real@3f48c8c9
PUBLIC	__real@3f4ccccd
PUBLIC	__real@3f60624dd2f1a9fc
PUBLIC	__real@3f7d70a4
PUBLIC	__real@3f800000
PUBLIC	__real@3f8147ae
PUBLIC	__real@3f91111111111111
PUBLIC	__real@3fa00000
PUBLIC	__real@3fc00000
PUBLIC	__real@3fc6d3f2
PUBLIC	__real@3fc999999999999a
PUBLIC	__real@3fe0000000000000
PUBLIC	__real@3ff0000000000000
PUBLIC	__real@40000000
PUBLIC	__real@40200000
PUBLIC	__real@4028000000000000
PUBLIC	__real@4030000000000000
PUBLIC	__real@4039000000000000
PUBLIC	__real@403a000000000000
PUBLIC	__real@40400000
PUBLIC	__real@404a800000000000
PUBLIC	__real@4059000000000000
PUBLIC	__real@40833333
PUBLIC	__real@408f400000000000
PUBLIC	__real@40900000
PUBLIC	__real@40a00000
PUBLIC	__real@40b00000
PUBLIC	__real@40b80000
PUBLIC	__real@40c00000
PUBLIC	__real@40e00000
PUBLIC	__real@40f00000
PUBLIC	__real@41000000
PUBLIC	__real@41200000
PUBLIC	__real@41400000
PUBLIC	__real@41580000
PUBLIC	__real@415c0000
PUBLIC	__real@41700000
PUBLIC	__real@41a00000
PUBLIC	__real@41f00000
PUBLIC	__real@42480000
PUBLIC	__real@42652ee1
PUBLIC	__real@42700000
PUBLIC	__real@42b40000
PUBLIC	__real@43480000
PUBLIC	__real@43b40000
PUBLIC	__real@43fa0000
PUBLIC	__real@44fa0000
PUBLIC	__real@461c4000
PUBLIC	__real@46fffe00
PUBLIC	__real@47435000
PUBLIC	__real@7f7fffff
PUBLIC	__real@b4000000
PUBLIC	__real@bd4ccccd
PUBLIC	__real@bdb2b8c2
PUBLIC	__real@bdc8e8a7
PUBLIC	__real@bdcccccd
PUBLIC	__real@be19999a
PUBLIC	__real@bef14639
PUBLIC	__real@bf800000
PUBLIC	__real@bfa00000
PUBLIC	__real@bfc6d3f2
PUBLIC	__real@c0000000
PUBLIC	__real@c0500000
PUBLIC	__real@c127d70a
PUBLIC	__real@c1280000
PUBLIC	__real@c13c0000
PUBLIC	__real@c1700000
PUBLIC	__real@c1a80000
PUBLIC	__real@c1f00000
PUBLIC	__real@c2400000
PUBLIC	__real@c2480000
PUBLIC	__real@c24a0000
PUBLIC	__real@c25c0000
PUBLIC	__real@c2700000
PUBLIC	__real@c2960000
PUBLIC	__real@c32f0000
PUBLIC	__real@c3340000
PUBLIC	__real@c3fa0000
PUBLIC	__xmm@0000000000000000000000003f800000
PUBLIC	__xmm@00000000000000003f80000000000000
PUBLIC	__xmm@000000003f8000000000000000000000
PUBLIC	__xmm@00000001000000010000000100000001
PUBLIC	__xmm@3f800000000000000000000000000000
PUBLIC	__xmm@3f80000000000000000000003e99999a
PUBLIC	__xmm@3f80000000000000000000003f800000
PUBLIC	__xmm@3f800000000000003e99999a00000000
PUBLIC	__xmm@3f800000000000003e99999a3e99999a
PUBLIC	__xmm@3f8000003e99999a0000000000000000
PUBLIC	__xmm@3f8000003f19999a3f19999a3f19999a
PUBLIC	__xmm@3f8000003f8000003f80000000000000
PUBLIC	__xmm@3f8000003f8000003f8000003f800000
PUBLIC	__xmm@7e7fffff7e7fffff7e7ffffffe7fffff
PUBLIC	__xmm@80000000800000008000000080000000
EXTRN	__CxxFrameHandler4:PROC
EXTRN	__std_terminate:PROC
EXTRN	??_Eexception@std@@UEAAPEAXI@Z:PROC		; std::exception::`vector deleting destructor'
EXTRN	??_Ebad_alloc@std@@UEAAPEAXI@Z:PROC		; std::bad_alloc::`vector deleting destructor'
EXTRN	??_Ebad_array_new_length@std@@UEAAPEAXI@Z:PROC	; std::bad_array_new_length::`vector deleting destructor'
EXTRN	_CxxThrowException:PROC
EXTRN	__GSHandlerCheck:PROC
EXTRN	__GSHandlerCheck_EH4:PROC
EXTRN	__chkstk:PROC
EXTRN	atan2:PROC
EXTRN	atan2f:PROC
EXTRN	cosf:PROC
EXTRN	exp:PROC
EXTRN	log:PROC
EXTRN	memcmp:PROC
EXTRN	memcpy:PROC
EXTRN	memmove:PROC
EXTRN	memset:PROC
EXTRN	pow:PROC
EXTRN	sinf:PROC
EXTRN	sqrtf:PROC
EXTRN	tanf:PROC
EXTRN	__ImageBase:BYTE
EXTRN	__security_cookie:QWORD
EXTRN	_fltused:DWORD
;	COMDAT pdata
pdata	SEGMENT
$pdata$??$_Allocate_manually_vector_aligned@U_Default_allocate_traits@std@@@std@@YAPEAX_K@Z DD imagerel $LN17@Allocate_m
	DD	imagerel $LN17@Allocate_m+59
	DD	imagerel $unwind$??$_Allocate_manually_vector_aligned@U_Default_allocate_traits@std@@@std@@YAPEAX_K@Z
pdata	ENDS
;	COMDAT pdata
pdata	SEGMENT
$pdata$??$?XM@?$vec@$02M$0A@@glm@@QEAAAEAU01@AEBU01@@Z DD imagerel $LN16@operator
	DD	imagerel $LN16@operator+56
	DD	imagerel $unwind$??$?XM@?$vec@$02M$0A@@glm@@QEAAAEAU01@AEBU01@@Z
pdata	ENDS
;	COMDAT pdata
pdata	SEGMENT
$pdata$??$_Copy_memmove_tail@PEAPEAUsMesh@@@std@@YAPEAPEAUsMesh@@QEBDQEAPEAU1@_K2@Z DD imagerel $LN4@Copy_memmo
	DD	imagerel $LN4@Copy_memmo+42
	DD	imagerel $unwind$??$_Copy_memmove_tail@PEAPEAUsMesh@@@std@@YAPEAPEAUsMesh@@QEBDQEAPEAU1@_K2@Z
pdata	ENDS
;	COMDAT pdata
pdata	SEGMENT
$pdata$??_GsLODInfo@sMesh@@QEAAPEAXI@Z DD imagerel $LN55@scalar
	DD	imagerel $LN55@scalar+98
	DD	imagerel $unwind$??_GsLODInfo@sMesh@@QEAAPEAXI@Z
pdata	ENDS
;	COMDAT pdata
pdata	SEGMENT
$pdata$??$_Get_size_of_n@$07@std@@YA_K_K@Z DD imagerel $LN7@Get_size_o
	DD	imagerel $LN7@Get_size_o+38
	DD	imagerel $unwind$??$_Get_size_of_n@$07@std@@YA_K_K@Z
pdata	ENDS
;	COMDAT pdata
pdata	SEGMENT
$pdata$??$_Allocate@$0BA@U_Default_allocate_traits@std@@@std@@YAPEAX_K@Z DD imagerel $LN24@Allocate
	DD	imagerel $LN24@Allocate+89
	DD	imagerel $unwind$??$_Allocate@$0BA@U_Default_allocate_traits@std@@@std@@YAPEAX_K@Z
pdata	ENDS
;	COMDAT pdata
pdata	SEGMENT
$pdata$??$_Get_size_of_n@$0CI@@std@@YA_K_K@Z DD imagerel $LN7@Get_size_o
	DD	imagerel $LN7@Get_size_o+38
	DD	imagerel $unwind$??$_Get_size_of_n@$0CI@@std@@YA_K_K@Z
pdata	ENDS
;	COMDAT pdata
pdata	SEGMENT
$pdata$??$?DM$0A@@glm@@YA?AU?$vec@$02M$0A@@0@AEBU10@0@Z DD imagerel $LN18@operator
	DD	imagerel $LN18@operator+83
	DD	imagerel $unwind$??$?DM$0A@@glm@@YA?AU?$vec@$02M$0A@@0@AEBU10@0@Z
pdata	ENDS
;	COMDAT pdata
pdata	SEGMENT
$pdata$??$destroy@UsLODInfo@sMesh@@@?$_Default_allocator_traits@V?$allocator@UsLODInfo@sMesh@@@std@@@std@@SAXAEAV?$allocator@UsLODInfo@sMesh@@@1@QEAUsLODInfo@sMesh@@@Z DD imagerel $LN58@destroy
	DD	imagerel $LN58@destroy+95
	DD	imagerel $unwind$??$destroy@UsLODInfo@sMesh@@@?$_Default_allocator_traits@V?$allocator@UsLODInfo@sMesh@@@std@@@std@@SAXAEAV?$allocator@UsLODInfo@sMesh@@@1@QEAUsLODInfo@sMesh@@@Z
pdata	ENDS
;	COMDAT pdata
pdata	SEGMENT
$pdata$??$_Copy_memmove@PEAPEAUsMesh@@PEAPEAU1@@std@@YAPEAPEAUsMesh@@PEAPEAU1@00@Z DD imagerel $LN6@Copy_memmo
	DD	imagerel $LN6@Copy_memmo+48
	DD	imagerel $unwind$??$_Copy_memmove@PEAPEAUsMesh@@PEAPEAU1@@std@@YAPEAPEAUsMesh@@PEAPEAU1@00@Z
pdata	ENDS
;	COMDAT pdata
pdata	SEGMENT
$pdata$?allocate@?$allocator@D@std@@QEAAPEAD_K@Z DD imagerel $LN27@allocate
	DD	imagerel $LN27@allocate+89
	DD	imagerel $unwind$?allocate@?$allocator@D@std@@QEAAPEAD_K@Z
pdata	ENDS
;	COMDAT pdata
pdata	SEGMENT
$pdata$?allocate@?$allocator@UsLODInfo@sMesh@@@std@@QEAAPEAUsLODInfo@sMesh@@_K@Z DD imagerel $LN31@allocate
	DD	imagerel $LN31@allocate+112
	DD	imagerel $unwind$?allocate@?$allocator@UsLODInfo@sMesh@@@std@@QEAAPEAUsLODInfo@sMesh@@_K@Z
pdata	ENDS
;	COMDAT pdata
pdata	SEGMENT
$pdata$?allocate@?$allocator@PEAUsMesh@@@std@@QEAAPEAPEAUsMesh@@_K@Z DD imagerel $LN31@allocate
	DD	imagerel $LN31@allocate+112
	DD	imagerel $unwind$?allocate@?$allocator@PEAUsMesh@@@std@@QEAAPEAPEAUsMesh@@_K@Z
pdata	ENDS
;	COMDAT pdata
pdata	SEGMENT
$pdata$?allocate@?$allocator@U?$pair@V?$basic_string@DU?$char_traits@D@std@@V?$allocator@D@2@@std@@_N@std@@@std@@QEAAPEAU?$pair@V?$basic_string@DU?$char_traits@D@std@@V?$allocator@D@2@@std@@_N@2@_K@Z DD imagerel $LN31@allocate
	DD	imagerel $LN31@allocate+112
	DD	imagerel $unwind$?allocate@?$allocator@U?$pair@V?$basic_string@DU?$char_traits@D@std@@V?$allocator@D@2@@std@@_N@std@@@std@@QEAAPEAU?$pair@V?$basic_string@DU?$char_traits@D@std@@V?$allocator@D@2@@std@@_N@2@_K@Z
pdata	ENDS
;	COMDAT pdata
pdata	SEGMENT
$pdata$?call@?$compute_dot@U?$vec@$02M$0A@@glm@@M$0A@@detail@glm@@SAMAEBU?$vec@$02M$0A@@3@0@Z DD imagerel $LN20@call
	DD	imagerel $LN20@call+55
	DD	imagerel $unwind$?call@?$compute_dot@U?$vec@$02M$0A@@glm@@M$0A@@detail@glm@@SAMAEBU?$vec@$02M$0A@@3@0@Z
pdata	ENDS
;	COMDAT pdata
pdata	SEGMENT
$pdata$??$?DM$0A@@glm@@YA?AU?$vec@$02M$0A@@0@AEBU10@M@Z DD imagerel $LN20@operator
	DD	imagerel $LN20@operator+60
	DD	imagerel $unwind$??$?DM$0A@@glm@@YA?AU?$vec@$02M$0A@@0@AEBU10@M@Z
pdata	ENDS
;	COMDAT pdata
pdata	SEGMENT
$pdata$??$inversesqrt@M@glm@@YAMM@Z DD imagerel $LN10@inversesqr
	DD	imagerel $LN10@inversesqr+61
	DD	imagerel $unwind$??$inversesqrt@M@glm@@YAMM@Z
pdata	ENDS
;	COMDAT pdata
pdata	SEGMENT
$pdata$??$_Destroy_range@V?$allocator@UsLODInfo@sMesh@@@std@@@std@@YAXPEAUsLODInfo@sMesh@@QEAU12@AEAV?$allocator@UsLODInfo@sMesh@@@0@@Z DD imagerel $LN73@Destroy_ra
	DD	imagerel $LN73@Destroy_ra+15
	DD	imagerel $unwind$??$_Destroy_range@V?$allocator@UsLODInfo@sMesh@@@std@@@std@@YAXPEAUsLODInfo@sMesh@@QEAU12@AEAV?$allocator@UsLODInfo@sMesh@@@0@@Z
pdata	ENDS
;	COMDAT pdata
pdata	SEGMENT
$pdata$0$??$_Destroy_range@V?$allocator@UsLODInfo@sMesh@@@std@@@std@@YAXPEAUsLODInfo@sMesh@@QEAU12@AEAV?$allocator@UsLODInfo@sMesh@@@0@@Z DD imagerel $LN73@Destroy_ra+15
	DD	imagerel $LN73@Destroy_ra+125
	DD	imagerel $chain$0$??$_Destroy_range@V?$allocator@UsLODInfo@sMesh@@@std@@@std@@YAXPEAUsLODInfo@sMesh@@QEAU12@AEAV?$allocator@UsLODInfo@sMesh@@@0@@Z
pdata	ENDS
;	COMDAT pdata
pdata	SEGMENT
$pdata$1$??$_Destroy_range@V?$allocator@UsLODInfo@sMesh@@@std@@@std@@YAXPEAUsLODInfo@sMesh@@QEAU12@AEAV?$allocator@UsLODInfo@sMesh@@@0@@Z DD imagerel $LN73@Destroy_ra+125
	DD	imagerel $LN73@Destroy_ra+126
	DD	imagerel $chain$1$??$_Destroy_range@V?$allocator@UsLODInfo@sMesh@@@std@@@std@@YAXPEAUsLODInfo@sMesh@@QEAU12@AEAV?$allocator@UsLODInfo@sMesh@@@0@@Z
pdata	ENDS
;	COMDAT pdata
pdata	SEGMENT
$pdata$2$??$_Destroy_range@V?$allocator@UsLODInfo@sMesh@@@std@@@std@@YAXPEAUsLODInfo@sMesh@@QEAU12@AEAV?$allocator@UsLODInfo@sMesh@@@0@@Z DD imagerel $LN73@Destroy_ra+126
	DD	imagerel $LN73@Destroy_ra+133
	DD	imagerel $chain$2$??$_Destroy_range@V?$allocator@UsLODInfo@sMesh@@@std@@@std@@YAXPEAUsLODInfo@sMesh@@QEAU12@AEAV?$allocator@UsLODInfo@sMesh@@@0@@Z
pdata	ENDS
;	COMDAT pdata
pdata	SEGMENT
$pdata$??$dot@$02M$0A@@glm@@YAMAEBU?$vec@$02M$0A@@0@0@Z DD imagerel $LN22@dot
	DD	imagerel $LN22@dot+55
	DD	imagerel $unwind$??$dot@$02M$0A@@glm@@YAMAEBU?$vec@$02M$0A@@0@0@Z
pdata	ENDS
;	COMDAT pdata
pdata	SEGMENT
$pdata$??$_Allocate_at_least_helper@V?$allocator@D@std@@@std@@YAPEADAEAV?$allocator@D@0@AEA_K@Z DD imagerel $LN30@Allocate_a
	DD	imagerel $LN30@Allocate_a+92
	DD	imagerel $unwind$??$_Allocate_at_least_helper@V?$allocator@D@std@@@std@@YAPEADAEAV?$allocator@D@0@AEA_K@Z
pdata	ENDS
;	COMDAT pdata
pdata	SEGMENT
$pdata$??$_Uninitialized_move@PEAUsLODInfo@sMesh@@V?$allocator@UsLODInfo@sMesh@@@std@@@std@@YAPEAUsLODInfo@sMesh@@QEAU12@0PEAU12@AEAV?$allocator@UsLODInfo@sMesh@@@0@@Z DD imagerel $LN61@Uninitiali
	DD	imagerel $LN61@Uninitiali+136
	DD	imagerel $unwind$??$_Uninitialized_move@PEAUsLODInfo@sMesh@@V?$allocator@UsLODInfo@sMesh@@@std@@@std@@YAPEAUsLODInfo@sMesh@@QEAU12@0PEAU12@AEAV?$allocator@UsLODInfo@sMesh@@@0@@Z
pdata	ENDS
;	COMDAT pdata
pdata	SEGMENT
$pdata$??$_Allocate_at_least_helper@V?$allocator@UsLODInfo@sMesh@@@std@@@std@@YAPEAUsLODInfo@sMesh@@AEAV?$allocator@UsLODInfo@sMesh@@@0@AEA_K@Z DD imagerel $LN34@Allocate_a
	DD	imagerel $LN34@Allocate_a+115
	DD	imagerel $unwind$??$_Allocate_at_least_helper@V?$allocator@UsLODInfo@sMesh@@@std@@@std@@YAPEAUsLODInfo@sMesh@@AEAV?$allocator@UsLODInfo@sMesh@@@0@AEA_K@Z
pdata	ENDS
;	COMDAT pdata
pdata	SEGMENT
$pdata$??$_Uninitialized_move@PEAPEAUsMesh@@V?$allocator@PEAUsMesh@@@std@@@std@@YAPEAPEAUsMesh@@QEAPEAU1@0PEAPEAU1@AEAV?$allocator@PEAUsMesh@@@0@@Z DD imagerel $LN21@Uninitiali
	DD	imagerel $LN21@Uninitiali+52
	DD	imagerel $unwind$??$_Uninitialized_move@PEAPEAUsMesh@@V?$allocator@PEAUsMesh@@@std@@@std@@YAPEAPEAUsMesh@@QEAPEAU1@0PEAPEAU1@AEAV?$allocator@PEAUsMesh@@@0@@Z
pdata	ENDS
;	COMDAT pdata
pdata	SEGMENT
$pdata$??$_Allocate_at_least_helper@V?$allocator@PEAUsMesh@@@std@@@std@@YAPEAPEAUsMesh@@AEAV?$allocator@PEAUsMesh@@@0@AEA_K@Z DD imagerel $LN34@Allocate_a
	DD	imagerel $LN34@Allocate_a+115
	DD	imagerel $unwind$??$_Allocate_at_least_helper@V?$allocator@PEAUsMesh@@@std@@@std@@YAPEAPEAUsMesh@@AEAV?$allocator@PEAUsMesh@@@0@AEA_K@Z
pdata	ENDS
;	COMDAT pdata
pdata	SEGMENT
$pdata$??$_Uninitialized_move@PEAU?$pair@V?$basic_string@DU?$char_traits@D@std@@V?$allocator@D@2@@std@@_N@std@@V?$allocator@U?$pair@V?$basic_string@DU?$char_traits@D@std@@V?$allocator@D@2@@std@@_N@std@@@2@@std@@YAPEAU?$pair@V?$basic_string@DU?$char_traits@D@std@@V?$allocator@D@2@@std@@_N@0@QEAU10@0PEAU10@AEAV?$allocator@U?$pair@V?$basic_string@DU?$char_traits@D@std@@V?$allocator@D@2@@std@@_N@std@@@0@@Z DD imagerel $LN61@Uninitiali
	DD	imagerel $LN61@Uninitiali+128
	DD	imagerel $unwind$??$_Uninitialized_move@PEAU?$pair@V?$basic_string@DU?$char_traits@D@std@@V?$allocator@D@2@@std@@_N@std@@V?$allocator@U?$pair@V?$basic_string@DU?$char_traits@D@std@@V?$allocator@D@2@@std@@_N@std@@@2@@std@@YAPEAU?$pair@V?$basic_string@DU?$char_traits@D@std@@V?$allocator@D@2@@std@@_N@0@QEAU10@0PEAU10@AEAV?$allocator@U?$pair@V?$basic_string@DU?$char_traits@D@std@@V?$allocator@D@2@@std@@_N@std@@@0@@Z
pdata	ENDS
;	COMDAT pdata
pdata	SEGMENT
$pdata$??$_Allocate_at_least_helper@V?$allocator@U?$pair@V?$basic_string@DU?$char_traits@D@std@@V?$allocator@D@2@@std@@_N@std@@@std@@@std@@YAPEAU?$pair@V?$basic_string@DU?$char_traits@D@std@@V?$allocator@D@2@@std@@_N@0@AEAV?$allocator@U?$pair@V?$basic_string@DU?$char_traits@D@std@@V?$allocator@D@2@@std@@_N@std@@@0@AEA_K@Z DD imagerel $LN34@Allocate_a
	DD	imagerel $LN34@Allocate_a+115
	DD	imagerel $unwind$??$_Allocate_at_least_helper@V?$allocator@U?$pair@V?$basic_string@DU?$char_traits@D@std@@V?$allocator@D@2@@std@@_N@std@@@std@@@std@@YAPEAU?$pair@V?$basic_string@DU?$char_traits@D@std@@V?$allocator@D@2@@std@@_N@0@AEAV?$allocator@U?$pair@V?$basic_string@DU?$char_traits@D@std@@V?$allocator@D@2@@std@@_N@std@@@0@AEA_K@Z
pdata	ENDS
;	COMDAT pdata
pdata	SEGMENT
$pdata$?deallocate@?$allocator@UsLODInfo@sMesh@@@std@@QEAAXQEAUsLODInfo@sMesh@@_K@Z DD imagerel $LN23@deallocate
	DD	imagerel $LN23@deallocate+67
	DD	imagerel $unwind$?deallocate@?$allocator@UsLODInfo@sMesh@@@std@@QEAAXQEAUsLODInfo@sMesh@@_K@Z
pdata	ENDS
;	COMDAT pdata
pdata	SEGMENT
$pdata$?deallocate@?$allocator@PEAUsMesh@@@std@@QEAAXQEAPEAUsMesh@@_K@Z DD imagerel $LN23@deallocate
	DD	imagerel $LN23@deallocate+67
	DD	imagerel $unwind$?deallocate@?$allocator@PEAUsMesh@@@std@@QEAAXQEAPEAUsMesh@@_K@Z
pdata	ENDS
;	COMDAT pdata
pdata	SEGMENT
$pdata$?_Change_array@?$vector@UsLODInfo@sMesh@@V?$allocator@UsLODInfo@sMesh@@@std@@@std@@AEAAXQEAUsLODInfo@sMesh@@_K1@Z DD imagerel $LN31@Change_arr
	DD	imagerel $LN31@Change_arr+189
	DD	imagerel $unwind$?_Change_array@?$vector@UsLODInfo@sMesh@@V?$allocator@UsLODInfo@sMesh@@@std@@@std@@AEAAXQEAUsLODInfo@sMesh@@_K1@Z
pdata	ENDS
;	COMDAT pdata
pdata	SEGMENT
$pdata$?_Xlength@?$vector@UsLODInfo@sMesh@@V?$allocator@UsLODInfo@sMesh@@@std@@@std@@CAXXZ DD imagerel $LN4@Xlength
	DD	imagerel $LN4@Xlength+18
	DD	imagerel $unwind$?_Xlength@?$vector@UsLODInfo@sMesh@@V?$allocator@UsLODInfo@sMesh@@@std@@@std@@CAXXZ
pdata	ENDS
;	COMDAT pdata
pdata	SEGMENT
$pdata$?_Change_array@?$vector@PEAUsMesh@@V?$allocator@PEAUsMesh@@@std@@@std@@AEAAXQEAPEAUsMesh@@_K1@Z DD imagerel $LN31@Change_arr
	DD	imagerel $LN31@Change_arr+136
	DD	imagerel $unwind$?_Change_array@?$vector@PEAUsMesh@@V?$allocator@PEAUsMesh@@@std@@@std@@AEAAXQEAPEAUsMesh@@_K1@Z
pdata	ENDS
;	COMDAT pdata
pdata	SEGMENT
$pdata$?_Xlength@?$vector@PEAUsMesh@@V?$allocator@PEAUsMesh@@@std@@@std@@CAXXZ DD imagerel $LN4@Xlength
	DD	imagerel $LN4@Xlength+18
	DD	imagerel $unwind$?_Xlength@?$vector@PEAUsMesh@@V?$allocator@PEAUsMesh@@@std@@@std@@CAXXZ
pdata	ENDS
;	COMDAT pdata
pdata	SEGMENT
$pdata$?_Change_array@?$vector@U?$pair@V?$basic_string@DU?$char_traits@D@std@@V?$allocator@D@2@@std@@_N@std@@V?$allocator@U?$pair@V?$basic_string@DU?$char_traits@D@std@@V?$allocator@D@2@@std@@_N@std@@@2@@std@@AEAAXQEAU?$pair@V?$basic_string@DU?$char_traits@D@std@@V?$allocator@D@2@@std@@_N@2@_K1@Z DD imagerel $LN31@Change_arr
	DD	imagerel $LN31@Change_arr+189
	DD	imagerel $unwind$?_Change_array@?$vector@U?$pair@V?$basic_string@DU?$char_traits@D@std@@V?$allocator@D@2@@std@@_N@std@@V?$allocator@U?$pair@V?$basic_string@DU?$char_traits@D@std@@V?$allocator@D@2@@std@@_N@std@@@2@@std@@AEAAXQEAU?$pair@V?$basic_string@DU?$char_traits@D@std@@V?$allocator@D@2@@std@@_N@2@_K1@Z
pdata	ENDS
;	COMDAT pdata
pdata	SEGMENT
$pdata$?_Xlength@?$vector@U?$pair@V?$basic_string@DU?$char_traits@D@std@@V?$allocator@D@2@@std@@_N@std@@V?$allocator@U?$pair@V?$basic_string@DU?$char_traits@D@std@@V?$allocator@D@2@@std@@_N@std@@@2@@std@@CAXXZ DD imagerel $LN4@Xlength
	DD	imagerel $LN4@Xlength+18
	DD	imagerel $unwind$?_Xlength@?$vector@U?$pair@V?$basic_string@DU?$char_traits@D@std@@V?$allocator@D@2@@std@@_N@std@@V?$allocator@U?$pair@V?$basic_string@DU?$char_traits@D@std@@V?$allocator@D@2@@std@@_N@std@@@2@@std@@CAXXZ
pdata	ENDS
;	COMDAT pdata
pdata	SEGMENT
$pdata$?call@?$compute_normalize@$02M$0A@$0A@@detail@glm@@SA?AU?$vec@$02M$0A@@3@AEBU43@@Z DD imagerel $LN51@call
	DD	imagerel $LN51@call+176
	DD	imagerel $unwind$?call@?$compute_normalize@$02M$0A@$0A@@detail@glm@@SA?AU?$vec@$02M$0A@@3@AEBU43@@Z
pdata	ENDS
;	COMDAT pdata
pdata	SEGMENT
$pdata$??1_Reallocation_guard@?$vector@U?$pair@V?$basic_string@DU?$char_traits@D@std@@V?$allocator@D@2@@std@@_N@std@@V?$allocator@U?$pair@V?$basic_string@DU?$char_traits@D@std@@V?$allocator@D@2@@std@@_N@std@@@2@@std@@QEAA@XZ DD imagerel $LN31@Reallocati
	DD	imagerel $LN31@Reallocati+101
	DD	imagerel $unwind$??1_Reallocation_guard@?$vector@U?$pair@V?$basic_string@DU?$char_traits@D@std@@V?$allocator@D@2@@std@@_N@std@@V?$allocator@U?$pair@V?$basic_string@DU?$char_traits@D@std@@V?$allocator@D@2@@std@@_N@std@@@2@@std@@QEAA@XZ
pdata	ENDS
;	COMDAT pdata
pdata	SEGMENT
$pdata$??1_Reallocation_guard@?$vector@PEAUsMesh@@V?$allocator@PEAUsMesh@@@std@@@std@@QEAA@XZ DD imagerel $LN28@Reallocati
	DD	imagerel $LN28@Reallocati+78
	DD	imagerel $unwind$??1_Reallocation_guard@?$vector@PEAUsMesh@@V?$allocator@PEAUsMesh@@@std@@@std@@QEAA@XZ
pdata	ENDS
;	COMDAT pdata
pdata	SEGMENT
$pdata$??1_Reallocation_guard@?$vector@UsLODInfo@sMesh@@V?$allocator@UsLODInfo@sMesh@@@std@@@std@@QEAA@XZ DD imagerel $LN31@Reallocati
	DD	imagerel $LN31@Reallocati+101
	DD	imagerel $unwind$??1_Reallocation_guard@?$vector@UsLODInfo@sMesh@@V?$allocator@UsLODInfo@sMesh@@@std@@@std@@QEAA@XZ
pdata	ENDS
;	COMDAT pdata
pdata	SEGMENT
$pdata$??_G?$pair@V?$basic_string@DU?$char_traits@D@std@@V?$allocator@D@2@@std@@_N@std@@QEAAPEAXI@Z DD imagerel $LN55@scalar
	DD	imagerel $LN55@scalar+98
	DD	imagerel $unwind$??_G?$pair@V?$basic_string@DU?$char_traits@D@std@@V?$allocator@D@2@@std@@_N@std@@QEAAPEAXI@Z
pdata	ENDS
;	COMDAT pdata
pdata	SEGMENT
$pdata$??$_Traits_equal@U?$char_traits@D@std@@@std@@YA_NQEBD_K01@Z DD imagerel $LN11@Traits_equ
	DD	imagerel $LN11@Traits_equ+52
	DD	imagerel $unwind$??$_Traits_equal@U?$char_traits@D@std@@@std@@YA_NQEBD_K01@Z
pdata	ENDS
;	COMDAT pdata
pdata	SEGMENT
$pdata$??$destroy@U?$pair@V?$basic_string@DU?$char_traits@D@std@@V?$allocator@D@2@@std@@_N@std@@@?$_Default_allocator_traits@V?$allocator@U?$pair@V?$basic_string@DU?$char_traits@D@std@@V?$allocator@D@2@@std@@_N@std@@@std@@@std@@SAXAEAV?$allocator@U?$pair@V?$basic_string@DU?$char_traits@D@std@@V?$allocator@D@2@@std@@_N@std@@@1@QEAU?$pair@V?$basic_string@DU?$char_traits@D@std@@V?$allocator@D@2@@std@@_N@1@@Z DD imagerel $LN58@destroy
	DD	imagerel $LN58@destroy+95
	DD	imagerel $unwind$??$destroy@U?$pair@V?$basic_string@DU?$char_traits@D@std@@V?$allocator@D@2@@std@@_N@std@@@?$_Default_allocator_traits@V?$allocator@U?$pair@V?$basic_string@DU?$char_traits@D@std@@V?$allocator@D@2@@std@@_N@std@@@std@@@std@@SAXAEAV?$allocator@U?$pair@V?$basic_string@DU?$char_traits@D@std@@V?$allocator@D@2@@std@@_N@std@@@1@QEAU?$pair@V?$basic_string@DU?$char_traits@D@std@@V?$allocator@D@2@@std@@_N@1@@Z
pdata	ENDS
;	COMDAT pdata
pdata	SEGMENT
$pdata$??$_Allocate_for_capacity@$0A@@?$basic_string@DU?$char_traits@D@std@@V?$allocator@D@2@@std@@CAPEADAEAV?$allocator@D@1@AEA_K@Z DD imagerel $LN37@Allocate_f
	DD	imagerel $LN37@Allocate_f+111
	DD	imagerel $unwind$??$_Allocate_for_capacity@$0A@@?$basic_string@DU?$char_traits@D@std@@V?$allocator@D@2@@std@@CAPEADAEAV?$allocator@D@1@AEA_K@Z
pdata	ENDS
;	COMDAT pdata
pdata	SEGMENT
$pdata$??$_Emplace_reallocate@UsLODInfo@sMesh@@@?$vector@UsLODInfo@sMesh@@V?$allocator@UsLODInfo@sMesh@@@std@@@std@@AEAAPEAUsLODInfo@sMesh@@QEAU23@$$QEAU23@@Z DD imagerel $LN150@Emplace_re
	DD	imagerel $LN150@Emplace_re+115
	DD	imagerel $unwind$??$_Emplace_reallocate@UsLODInfo@sMesh@@@?$vector@UsLODInfo@sMesh@@V?$allocator@UsLODInfo@sMesh@@@std@@@std@@AEAAPEAUsLODInfo@sMesh@@QEAU23@$$QEAU23@@Z
pdata	ENDS
;	COMDAT pdata
pdata	SEGMENT
$pdata$2$??$_Emplace_reallocate@UsLODInfo@sMesh@@@?$vector@UsLODInfo@sMesh@@V?$allocator@UsLODInfo@sMesh@@@std@@@std@@AEAAPEAUsLODInfo@sMesh@@QEAU23@$$QEAU23@@Z DD imagerel $LN150@Emplace_re+115
	DD	imagerel $LN150@Emplace_re+285
	DD	imagerel $chain$2$??$_Emplace_reallocate@UsLODInfo@sMesh@@@?$vector@UsLODInfo@sMesh@@V?$allocator@UsLODInfo@sMesh@@@std@@@std@@AEAAPEAUsLODInfo@sMesh@@QEAU23@$$QEAU23@@Z
pdata	ENDS
;	COMDAT pdata
pdata	SEGMENT
$pdata$3$??$_Emplace_reallocate@UsLODInfo@sMesh@@@?$vector@UsLODInfo@sMesh@@V?$allocator@UsLODInfo@sMesh@@@std@@@std@@AEAAPEAUsLODInfo@sMesh@@QEAU23@$$QEAU23@@Z DD imagerel $LN150@Emplace_re+285
	DD	imagerel $LN150@Emplace_re+431
	DD	imagerel $chain$3$??$_Emplace_reallocate@UsLODInfo@sMesh@@@?$vector@UsLODInfo@sMesh@@V?$allocator@UsLODInfo@sMesh@@@std@@@std@@AEAAPEAUsLODInfo@sMesh@@QEAU23@$$QEAU23@@Z
pdata	ENDS
;	COMDAT pdata
pdata	SEGMENT
$pdata$4$??$_Emplace_reallocate@UsLODInfo@sMesh@@@?$vector@UsLODInfo@sMesh@@V?$allocator@UsLODInfo@sMesh@@@std@@@std@@AEAAPEAUsLODInfo@sMesh@@QEAU23@$$QEAU23@@Z DD imagerel $LN150@Emplace_re+431
	DD	imagerel $LN150@Emplace_re+578
	DD	imagerel $chain$4$??$_Emplace_reallocate@UsLODInfo@sMesh@@@?$vector@UsLODInfo@sMesh@@V?$allocator@UsLODInfo@sMesh@@@std@@@std@@AEAAPEAUsLODInfo@sMesh@@QEAU23@$$QEAU23@@Z
pdata	ENDS
;	COMDAT pdata
pdata	SEGMENT
$pdata$6$??$_Emplace_reallocate@UsLODInfo@sMesh@@@?$vector@UsLODInfo@sMesh@@V?$allocator@UsLODInfo@sMesh@@@std@@@std@@AEAAPEAUsLODInfo@sMesh@@QEAU23@$$QEAU23@@Z DD imagerel $LN150@Emplace_re+578
	DD	imagerel $LN150@Emplace_re+585
	DD	imagerel $chain$6$??$_Emplace_reallocate@UsLODInfo@sMesh@@@?$vector@UsLODInfo@sMesh@@V?$allocator@UsLODInfo@sMesh@@@std@@@std@@AEAAPEAUsLODInfo@sMesh@@QEAU23@$$QEAU23@@Z
pdata	ENDS
;	COMDAT pdata
pdata	SEGMENT
$pdata$7$??$_Emplace_reallocate@UsLODInfo@sMesh@@@?$vector@UsLODInfo@sMesh@@V?$allocator@UsLODInfo@sMesh@@@std@@@std@@AEAAPEAUsLODInfo@sMesh@@QEAU23@$$QEAU23@@Z DD imagerel $LN150@Emplace_re+585
	DD	imagerel $LN150@Emplace_re+591
	DD	imagerel $chain$7$??$_Emplace_reallocate@UsLODInfo@sMesh@@@?$vector@UsLODInfo@sMesh@@V?$allocator@UsLODInfo@sMesh@@@std@@@std@@AEAAPEAUsLODInfo@sMesh@@QEAU23@$$QEAU23@@Z
pdata	ENDS
;	COMDAT pdata
pdata	SEGMENT
$pdata$8$??$_Emplace_reallocate@UsLODInfo@sMesh@@@?$vector@UsLODInfo@sMesh@@V?$allocator@UsLODInfo@sMesh@@@std@@@std@@AEAAPEAUsLODInfo@sMesh@@QEAU23@$$QEAU23@@Z DD imagerel $LN150@Emplace_re+591
	DD	imagerel $LN150@Emplace_re+597
	DD	imagerel $chain$8$??$_Emplace_reallocate@UsLODInfo@sMesh@@@?$vector@UsLODInfo@sMesh@@V?$allocator@UsLODInfo@sMesh@@@std@@@std@@AEAAPEAUsLODInfo@sMesh@@QEAU23@$$QEAU23@@Z
pdata	ENDS
;	COMDAT pdata
pdata	SEGMENT
$pdata$??$_Emplace_reallocate@AEBQEAUsMesh@@@?$vector@PEAUsMesh@@V?$allocator@PEAUsMesh@@@std@@@std@@AEAAPEAPEAUsMesh@@QEAPEAU2@AEBQEAU2@@Z DD imagerel $LN168@Emplace_re
	DD	imagerel $LN168@Emplace_re+70
	DD	imagerel $unwind$??$_Emplace_reallocate@AEBQEAUsMesh@@@?$vector@PEAUsMesh@@V?$allocator@PEAUsMesh@@@std@@@std@@AEAAPEAPEAUsMesh@@QEAPEAU2@AEBQEAU2@@Z
pdata	ENDS
;	COMDAT pdata
pdata	SEGMENT
$pdata$2$??$_Emplace_reallocate@AEBQEAUsMesh@@@?$vector@PEAUsMesh@@V?$allocator@PEAUsMesh@@@std@@@std@@AEAAPEAPEAUsMesh@@QEAPEAU2@AEBQEAU2@@Z DD imagerel $LN168@Emplace_re+70
	DD	imagerel $LN168@Emplace_re+381
	DD	imagerel $chain$2$??$_Emplace_reallocate@AEBQEAUsMesh@@@?$vector@PEAUsMesh@@V?$allocator@PEAUsMesh@@@std@@@std@@AEAAPEAPEAUsMesh@@QEAPEAU2@AEBQEAU2@@Z
pdata	ENDS
;	COMDAT pdata
pdata	SEGMENT
$pdata$4$??$_Emplace_reallocate@AEBQEAUsMesh@@@?$vector@PEAUsMesh@@V?$allocator@PEAUsMesh@@@std@@@std@@AEAAPEAPEAUsMesh@@QEAPEAU2@AEBQEAU2@@Z DD imagerel $LN168@Emplace_re+381
	DD	imagerel $LN168@Emplace_re+388
	DD	imagerel $chain$4$??$_Emplace_reallocate@AEBQEAUsMesh@@@?$vector@PEAUsMesh@@V?$allocator@PEAUsMesh@@@std@@@std@@AEAAPEAPEAUsMesh@@QEAPEAU2@AEBQEAU2@@Z
pdata	ENDS
;	COMDAT pdata
pdata	SEGMENT
$pdata$5$??$_Emplace_reallocate@AEBQEAUsMesh@@@?$vector@PEAUsMesh@@V?$allocator@PEAUsMesh@@@std@@@std@@AEAAPEAPEAUsMesh@@QEAPEAU2@AEBQEAU2@@Z DD imagerel $LN168@Emplace_re+388
	DD	imagerel $LN168@Emplace_re+394
	DD	imagerel $chain$5$??$_Emplace_reallocate@AEBQEAUsMesh@@@?$vector@PEAUsMesh@@V?$allocator@PEAUsMesh@@@std@@@std@@AEAAPEAPEAUsMesh@@QEAPEAU2@AEBQEAU2@@Z
pdata	ENDS
;	COMDAT pdata
pdata	SEGMENT
$pdata$6$??$_Emplace_reallocate@AEBQEAUsMesh@@@?$vector@PEAUsMesh@@V?$allocator@PEAUsMesh@@@std@@@std@@AEAAPEAPEAUsMesh@@QEAPEAU2@AEBQEAU2@@Z DD imagerel $LN168@Emplace_re+394
	DD	imagerel $LN168@Emplace_re+400
	DD	imagerel $chain$6$??$_Emplace_reallocate@AEBQEAUsMesh@@@?$vector@PEAUsMesh@@V?$allocator@PEAUsMesh@@@std@@@std@@AEAAPEAPEAUsMesh@@QEAPEAU2@AEBQEAU2@@Z
pdata	ENDS
;	COMDAT pdata
pdata	SEGMENT
$pdata$??$_Emplace_reallocate@U?$pair@V?$basic_string@DU?$char_traits@D@std@@V?$allocator@D@2@@std@@_N@std@@@?$vector@U?$pair@V?$basic_string@DU?$char_traits@D@std@@V?$allocator@D@2@@std@@_N@std@@V?$allocator@U?$pair@V?$basic_string@DU?$char_traits@D@std@@V?$allocator@D@2@@std@@_N@std@@@2@@std@@AEAAPEAU?$pair@V?$basic_string@DU?$char_traits@D@std@@V?$allocator@D@2@@std@@_N@1@QEAU21@$$QEAU21@@Z DD imagerel $LN150@Emplace_re
	DD	imagerel $LN150@Emplace_re+115
	DD	imagerel $unwind$??$_Emplace_reallocate@U?$pair@V?$basic_string@DU?$char_traits@D@std@@V?$allocator@D@2@@std@@_N@std@@@?$vector@U?$pair@V?$basic_string@DU?$char_traits@D@std@@V?$allocator@D@2@@std@@_N@std@@V?$allocator@U?$pair@V?$basic_string@DU?$char_traits@D@std@@V?$allocator@D@2@@std@@_N@std@@@2@@std@@AEAAPEAU?$pair@V?$basic_string@DU?$char_traits@D@std@@V?$allocator@D@2@@std@@_N@1@QEAU21@$$QEAU21@@Z
pdata	ENDS
;	COMDAT pdata
pdata	SEGMENT
$pdata$2$??$_Emplace_reallocate@U?$pair@V?$basic_string@DU?$char_traits@D@std@@V?$allocator@D@2@@std@@_N@std@@@?$vector@U?$pair@V?$basic_string@DU?$char_traits@D@std@@V?$allocator@D@2@@std@@_N@std@@V?$allocator@U?$pair@V?$basic_string@DU?$char_traits@D@std@@V?$allocator@D@2@@std@@_N@std@@@2@@std@@AEAAPEAU?$pair@V?$basic_string@DU?$char_traits@D@std@@V?$allocator@D@2@@std@@_N@1@QEAU21@$$QEAU21@@Z DD imagerel $LN150@Emplace_re+115
	DD	imagerel $LN150@Emplace_re+285
	DD	imagerel $chain$2$??$_Emplace_reallocate@U?$pair@V?$basic_string@DU?$char_traits@D@std@@V?$allocator@D@2@@std@@_N@std@@@?$vector@U?$pair@V?$basic_string@DU?$char_traits@D@std@@V?$allocator@D@2@@std@@_N@std@@V?$allocator@U?$pair@V?$basic_string@DU?$char_traits@D@std@@V?$allocator@D@2@@std@@_N@std@@@2@@std@@AEAAPEAU?$pair@V?$basic_string@DU?$char_traits@D@std@@V?$allocator@D@2@@std@@_N@1@QEAU21@$$QEAU21@@Z
pdata	ENDS
;	COMDAT pdata
pdata	SEGMENT
$pdata$3$??$_Emplace_reallocate@U?$pair@V?$basic_string@DU?$char_traits@D@std@@V?$allocator@D@2@@std@@_N@std@@@?$vector@U?$pair@V?$basic_string@DU?$char_traits@D@std@@V?$allocator@D@2@@std@@_N@std@@V?$allocator@U?$pair@V?$basic_string@DU?$char_traits@D@std@@V?$allocator@D@2@@std@@_N@std@@@2@@std@@AEAAPEAU?$pair@V?$basic_string@DU?$char_traits@D@std@@V?$allocator@D@2@@std@@_N@1@QEAU21@$$QEAU21@@Z DD imagerel $LN150@Emplace_re+285
	DD	imagerel $LN150@Emplace_re+424
	DD	imagerel $chain$3$??$_Emplace_reallocate@U?$pair@V?$basic_string@DU?$char_traits@D@std@@V?$allocator@D@2@@std@@_N@std@@@?$vector@U?$pair@V?$basic_string@DU?$char_traits@D@std@@V?$allocator@D@2@@std@@_N@std@@V?$allocator@U?$pair@V?$basic_string@DU?$char_traits@D@std@@V?$allocator@D@2@@std@@_N@std@@@2@@std@@AEAAPEAU?$pair@V?$basic_string@DU?$char_traits@D@std@@V?$allocator@D@2@@std@@_N@1@QEAU21@$$QEAU21@@Z
pdata	ENDS
;	COMDAT pdata
pdata	SEGMENT
$pdata$4$??$_Emplace_reallocate@U?$pair@V?$basic_string@DU?$char_traits@D@std@@V?$allocator@D@2@@std@@_N@std@@@?$vector@U?$pair@V?$basic_string@DU?$char_traits@D@std@@V?$allocator@D@2@@std@@_N@std@@V?$allocator@U?$pair@V?$basic_string@DU?$char_traits@D@std@@V?$allocator@D@2@@std@@_N@std@@@2@@std@@AEAAPEAU?$pair@V?$basic_string@DU?$char_traits@D@std@@V?$allocator@D@2@@std@@_N@1@QEAU21@$$QEAU21@@Z DD imagerel $LN150@Emplace_re+424
	DD	imagerel $LN150@Emplace_re+571
	DD	imagerel $chain$4$??$_Emplace_reallocate@U?$pair@V?$basic_string@DU?$char_traits@D@std@@V?$allocator@D@2@@std@@_N@std@@@?$vector@U?$pair@V?$basic_string@DU?$char_traits@D@std@@V?$allocator@D@2@@std@@_N@std@@V?$allocator@U?$pair@V?$basic_string@DU?$char_traits@D@std@@V?$allocator@D@2@@std@@_N@std@@@2@@std@@AEAAPEAU?$pair@V?$basic_string@DU?$char_traits@D@std@@V?$allocator@D@2@@std@@_N@1@QEAU21@$$QEAU21@@Z
pdata	ENDS
;	COMDAT pdata
pdata	SEGMENT
$pdata$6$??$_Emplace_reallocate@U?$pair@V?$basic_string@DU?$char_traits@D@std@@V?$allocator@D@2@@std@@_N@std@@@?$vector@U?$pair@V?$basic_string@DU?$char_traits@D@std@@V?$allocator@D@2@@std@@_N@std@@V?$allocator@U?$pair@V?$basic_string@DU?$char_traits@D@std@@V?$allocator@D@2@@std@@_N@std@@@2@@std@@AEAAPEAU?$pair@V?$basic_string@DU?$char_traits@D@std@@V?$allocator@D@2@@std@@_N@1@QEAU21@$$QEAU21@@Z DD imagerel $LN150@Emplace_re+571
	DD	imagerel $LN150@Emplace_re+578
	DD	imagerel $chain$6$??$_Emplace_reallocate@U?$pair@V?$basic_string@DU?$char_traits@D@std@@V?$allocator@D@2@@std@@_N@std@@@?$vector@U?$pair@V?$basic_string@DU?$char_traits@D@std@@V?$allocator@D@2@@std@@_N@std@@V?$allocator@U?$pair@V?$basic_string@DU?$char_traits@D@std@@V?$allocator@D@2@@std@@_N@std@@@2@@std@@AEAAPEAU?$pair@V?$basic_string@DU?$char_traits@D@std@@V?$allocator@D@2@@std@@_N@1@QEAU21@$$QEAU21@@Z
pdata	ENDS
;	COMDAT pdata
pdata	SEGMENT
$pdata$7$??$_Emplace_reallocate@U?$pair@V?$basic_string@DU?$char_traits@D@std@@V?$allocator@D@2@@std@@_N@std@@@?$vector@U?$pair@V?$basic_string@DU?$char_traits@D@std@@V?$allocator@D@2@@std@@_N@std@@V?$allocator@U?$pair@V?$basic_string@DU?$char_traits@D@std@@V?$allocator@D@2@@std@@_N@std@@@2@@std@@AEAAPEAU?$pair@V?$basic_string@DU?$char_traits@D@std@@V?$allocator@D@2@@std@@_N@1@QEAU21@$$QEAU21@@Z DD imagerel $LN150@Emplace_re+578
	DD	imagerel $LN150@Emplace_re+584
	DD	imagerel $chain$7$??$_Emplace_reallocate@U?$pair@V?$basic_string@DU?$char_traits@D@std@@V?$allocator@D@2@@std@@_N@std@@@?$vector@U?$pair@V?$basic_string@DU?$char_traits@D@std@@V?$allocator@D@2@@std@@_N@std@@V?$allocator@U?$pair@V?$basic_string@DU?$char_traits@D@std@@V?$allocator@D@2@@std@@_N@std@@@2@@std@@AEAAPEAU?$pair@V?$basic_string@DU?$char_traits@D@std@@V?$allocator@D@2@@std@@_N@1@QEAU21@$$QEAU21@@Z
pdata	ENDS
;	COMDAT pdata
pdata	SEGMENT
$pdata$8$??$_Emplace_reallocate@U?$pair@V?$basic_string@DU?$char_traits@D@std@@V?$allocator@D@2@@std@@_N@std@@@?$vector@U?$pair@V?$basic_string@DU?$char_traits@D@std@@V?$allocator@D@2@@std@@_N@std@@V?$allocator@U?$pair@V?$basic_string@DU?$char_traits@D@std@@V?$allocator@D@2@@std@@_N@std@@@2@@std@@AEAAPEAU?$pair@V?$basic_string@DU?$char_traits@D@std@@V?$allocator@D@2@@std@@_N@1@QEAU21@$$QEAU21@@Z DD imagerel $LN150@Emplace_re+584
	DD	imagerel $LN150@Emplace_re+590
	DD	imagerel $chain$8$??$_Emplace_reallocate@U?$pair@V?$basic_string@DU?$char_traits@D@std@@V?$allocator@D@2@@std@@_N@std@@@?$vector@U?$pair@V?$basic_string@DU?$char_traits@D@std@@V?$allocator@D@2@@std@@_N@std@@V?$allocator@U?$pair@V?$basic_string@DU?$char_traits@D@std@@V?$allocator@D@2@@std@@_N@std@@@2@@std@@AEAAPEAU?$pair@V?$basic_string@DU?$char_traits@D@std@@V?$allocator@D@2@@std@@_N@1@QEAU21@$$QEAU21@@Z
pdata	ENDS
;	COMDAT pdata
pdata	SEGMENT
$pdata$??$?DM$0A@@glm@@YA?AU?$vec@$02M$0A@@0@MAEBU10@@Z DD imagerel $LN20@operator
	DD	imagerel $LN20@operator+65
	DD	imagerel $unwind$??$?DM$0A@@glm@@YA?AU?$vec@$02M$0A@@0@MAEBU10@@Z
pdata	ENDS
;	COMDAT pdata
pdata	SEGMENT
$pdata$??$normalize@$02M$0A@@glm@@YA?AU?$vec@$02M$0A@@0@AEBU10@@Z DD imagerel $LN53@normalize
	DD	imagerel $LN53@normalize+176
	DD	imagerel $unwind$??$normalize@$02M$0A@@glm@@YA?AU?$vec@$02M$0A@@0@AEBU10@@Z
pdata	ENDS
;	COMDAT pdata
pdata	SEGMENT
$pdata$??$?HM$0A@@glm@@YA?AU?$vec@$03M$0A@@0@AEBU10@0@Z DD imagerel $LN26@operator
	DD	imagerel $LN26@operator+109
	DD	imagerel $unwind$??$?HM$0A@@glm@@YA?AU?$vec@$03M$0A@@0@AEBU10@0@Z
pdata	ENDS
;	COMDAT pdata
pdata	SEGMENT
$pdata$??$_Insert_string@DU?$char_traits@D@std@@_K@std@@YAAEAV?$basic_ostream@DU?$char_traits@D@std@@@0@AEAV10@QEBD_K@Z DD imagerel $LN143@Insert_str
	DD	imagerel $LN143@Insert_str+440
	DD	imagerel $unwind$??$_Insert_string@DU?$char_traits@D@std@@_K@std@@YAAEAV?$basic_ostream@DU?$char_traits@D@std@@@0@AEAV10@QEBD_K@Z
pdata	ENDS
;	COMDAT pdata
pdata	SEGMENT
$pdata$?catch$17@?0???$_Insert_string@DU?$char_traits@D@std@@_K@std@@YAAEAV?$basic_ostream@DU?$char_traits@D@std@@@0@AEAV10@QEBD_K@Z@4HA DD imagerel ?catch$17@?0???$_Insert_string@DU?$char_traits@D@std@@_K@std@@YAAEAV?$basic_ostream@DU?$char_traits@D@std@@@0@AEAV10@QEBD_K@Z@4HA
	DD	imagerel ?catch$17@?0???$_Insert_string@DU?$char_traits@D@std@@_K@std@@YAAEAV?$basic_ostream@DU?$char_traits@D@std@@@0@AEAV10@QEBD_K@Z@4HA+59
	DD	imagerel $unwind$?catch$17@?0???$_Insert_string@DU?$char_traits@D@std@@_K@std@@YAAEAV?$basic_ostream@DU?$char_traits@D@std@@@0@AEAV10@QEBD_K@Z@4HA
pdata	ENDS
;	COMDAT pdata
pdata	SEGMENT
$pdata$??0_Sentry_base@?$basic_ostream@DU?$char_traits@D@std@@@std@@QEAA@AEAV12@@Z DD imagerel $LN13@Sentry_bas
	DD	imagerel $LN13@Sentry_bas+44
	DD	imagerel $unwind$??0_Sentry_base@?$basic_ostream@DU?$char_traits@D@std@@@std@@QEAA@AEAV12@@Z
pdata	ENDS
;	COMDAT pdata
pdata	SEGMENT
$pdata$??1_Sentry_base@?$basic_ostream@DU?$char_traits@D@std@@@std@@QEAA@XZ DD imagerel $LN12@Sentry_bas
	DD	imagerel $LN12@Sentry_bas+36
	DD	imagerel $unwind$??1_Sentry_base@?$basic_ostream@DU?$char_traits@D@std@@@std@@QEAA@XZ
pdata	ENDS
;	COMDAT pdata
pdata	SEGMENT
$pdata$?_Equal@?$basic_string@DU?$char_traits@D@std@@V?$allocator@D@2@@std@@QEBA_NQEBD@Z DD imagerel $LN25@Equal
	DD	imagerel $LN25@Equal+84
	DD	imagerel $unwind$?_Equal@?$basic_string@DU?$char_traits@D@std@@V?$allocator@D@2@@std@@QEBA_NQEBD@Z
pdata	ENDS
;	COMDAT pdata
pdata	SEGMENT
$pdata$??0sentry@?$basic_ostream@DU?$char_traits@D@std@@@std@@QEAA@AEAV12@@Z DD imagerel $LN22@sentry
	DD	imagerel $LN22@sentry+133
	DD	imagerel $unwind$??0sentry@?$basic_ostream@DU?$char_traits@D@std@@@std@@QEAA@AEAV12@@Z
pdata	ENDS
;	COMDAT pdata
pdata	SEGMENT
$pdata$??1sentry@?$basic_ostream@DU?$char_traits@D@std@@@std@@QEAA@XZ DD imagerel $LN19@sentry
	DD	imagerel $LN19@sentry+62
	DD	imagerel $unwind$??1sentry@?$basic_ostream@DU?$char_traits@D@std@@@std@@QEAA@XZ
pdata	ENDS
;	COMDAT pdata
pdata	SEGMENT
$pdata$??$_Deallocate@$0BA@@std@@YAXPEAX_K@Z DD imagerel $LN19@Deallocate
	DD	imagerel $LN19@Deallocate+53
	DD	imagerel $unwind$??$_Deallocate@$0BA@@std@@YAXPEAX_K@Z
pdata	ENDS
;	COMDAT pdata
pdata	SEGMENT
$pdata$??$_Reallocate_for@V<lambda_1>@?1??assign@?$basic_string@DU?$char_traits@D@std@@V?$allocator@D@2@@std@@QEAAAEAV34@QEBD_K@Z@PEBD@?$basic_string@DU?$char_traits@D@std@@V?$allocator@D@2@@std@@AEAAAEAV01@_KV<lambda_1>@?1??assign@01@QEAAAEAV01@QEBD0@Z@PEBD@Z DD imagerel $LN94@Reallocate
	DD	imagerel $LN94@Reallocate+43
	DD	imagerel $unwind$??$_Reallocate_for@V<lambda_1>@?1??assign@?$basic_string@DU?$char_traits@D@std@@V?$allocator@D@2@@std@@QEAAAEAV34@QEBD_K@Z@PEBD@?$basic_string@DU?$char_traits@D@std@@V?$allocator@D@2@@std@@AEAAAEAV01@_KV<lambda_1>@?1??assign@01@QEAAAEAV01@QEBD0@Z@PEBD@Z
pdata	ENDS
;	COMDAT pdata
pdata	SEGMENT
$pdata$1$??$_Reallocate_for@V<lambda_1>@?1??assign@?$basic_string@DU?$char_traits@D@std@@V?$allocator@D@2@@std@@QEAAAEAV34@QEBD_K@Z@PEBD@?$basic_string@DU?$char_traits@D@std@@V?$allocator@D@2@@std@@AEAAAEAV01@_KV<lambda_1>@?1??assign@01@QEAAAEAV01@QEBD0@Z@PEBD@Z DD imagerel $LN94@Reallocate+43
	DD	imagerel $LN94@Reallocate+284
	DD	imagerel $chain$1$??$_Reallocate_for@V<lambda_1>@?1??assign@?$basic_string@DU?$char_traits@D@std@@V?$allocator@D@2@@std@@QEAAAEAV34@QEBD_K@Z@PEBD@?$basic_string@DU?$char_traits@D@std@@V?$allocator@D@2@@std@@AEAAAEAV01@_KV<lambda_1>@?1??assign@01@QEAAAEAV01@QEBD0@Z@PEBD@Z
pdata	ENDS
;	COMDAT pdata
pdata	SEGMENT
$pdata$3$??$_Reallocate_for@V<lambda_1>@?1??assign@?$basic_string@DU?$char_traits@D@std@@V?$allocator@D@2@@std@@QEAAAEAV34@QEBD_K@Z@PEBD@?$basic_string@DU?$char_traits@D@std@@V?$allocator@D@2@@std@@AEAAAEAV01@_KV<lambda_1>@?1??assign@01@QEAAAEAV01@QEBD0@Z@PEBD@Z DD imagerel $LN94@Reallocate+284
	DD	imagerel $LN94@Reallocate+291
	DD	imagerel $chain$3$??$_Reallocate_for@V<lambda_1>@?1??assign@?$basic_string@DU?$char_traits@D@std@@V?$allocator@D@2@@std@@QEAAAEAV34@QEBD_K@Z@PEBD@?$basic_string@DU?$char_traits@D@std@@V?$allocator@D@2@@std@@AEAAAEAV01@_KV<lambda_1>@?1??assign@01@QEAAAEAV01@QEBD0@Z@PEBD@Z
pdata	ENDS
;	COMDAT pdata
pdata	SEGMENT
$pdata$4$??$_Reallocate_for@V<lambda_1>@?1??assign@?$basic_string@DU?$char_traits@D@std@@V?$allocator@D@2@@std@@QEAAAEAV34@QEBD_K@Z@PEBD@?$basic_string@DU?$char_traits@D@std@@V?$allocator@D@2@@std@@AEAAAEAV01@_KV<lambda_1>@?1??assign@01@QEAAAEAV01@QEBD0@Z@PEBD@Z DD imagerel $LN94@Reallocate+291
	DD	imagerel $LN94@Reallocate+297
	DD	imagerel $chain$4$??$_Reallocate_for@V<lambda_1>@?1??assign@?$basic_string@DU?$char_traits@D@std@@V?$allocator@D@2@@std@@QEAAAEAV34@QEBD_K@Z@PEBD@?$basic_string@DU?$char_traits@D@std@@V?$allocator@D@2@@std@@AEAAAEAV01@_KV<lambda_1>@?1??assign@01@QEAAAEAV01@QEBD0@Z@PEBD@Z
pdata	ENDS
;	COMDAT pdata
pdata	SEGMENT
$pdata$5$??$_Reallocate_for@V<lambda_1>@?1??assign@?$basic_string@DU?$char_traits@D@std@@V?$allocator@D@2@@std@@QEAAAEAV34@QEBD_K@Z@PEBD@?$basic_string@DU?$char_traits@D@std@@V?$allocator@D@2@@std@@AEAAAEAV01@_KV<lambda_1>@?1??assign@01@QEAAAEAV01@QEBD0@Z@PEBD@Z DD imagerel $LN94@Reallocate+297
	DD	imagerel $LN94@Reallocate+303
	DD	imagerel $chain$5$??$_Reallocate_for@V<lambda_1>@?1??assign@?$basic_string@DU?$char_traits@D@std@@V?$allocator@D@2@@std@@QEAAAEAV34@QEBD_K@Z@PEBD@?$basic_string@DU?$char_traits@D@std@@V?$allocator@D@2@@std@@AEAAAEAV01@_KV<lambda_1>@?1??assign@01@QEAAAEAV01@QEBD0@Z@PEBD@Z
pdata	ENDS
;	COMDAT pdata
pdata	SEGMENT
$pdata$??$_Destroy_range@V?$allocator@U?$pair@V?$basic_string@DU?$char_traits@D@std@@V?$allocator@D@2@@std@@_N@std@@@std@@@std@@YAXPEAU?$pair@V?$basic_string@DU?$char_traits@D@std@@V?$allocator@D@2@@std@@_N@0@QEAU10@AEAV?$allocator@U?$pair@V?$basic_string@DU?$char_traits@D@std@@V?$allocator@D@2@@std@@_N@std@@@0@@Z DD imagerel $LN73@Destroy_ra
	DD	imagerel $LN73@Destroy_ra+15
	DD	imagerel $unwind$??$_Destroy_range@V?$allocator@U?$pair@V?$basic_string@DU?$char_traits@D@std@@V?$allocator@D@2@@std@@_N@std@@@std@@@std@@YAXPEAU?$pair@V?$basic_string@DU?$char_traits@D@std@@V?$allocator@D@2@@std@@_N@0@QEAU10@AEAV?$allocator@U?$pair@V?$basic_string@DU?$char_traits@D@std@@V?$allocator@D@2@@std@@_N@std@@@0@@Z
pdata	ENDS
;	COMDAT pdata
pdata	SEGMENT
$pdata$0$??$_Destroy_range@V?$allocator@U?$pair@V?$basic_string@DU?$char_traits@D@std@@V?$allocator@D@2@@std@@_N@std@@@std@@@std@@YAXPEAU?$pair@V?$basic_string@DU?$char_traits@D@std@@V?$allocator@D@2@@std@@_N@0@QEAU10@AEAV?$allocator@U?$pair@V?$basic_string@DU?$char_traits@D@std@@V?$allocator@D@2@@std@@_N@std@@@0@@Z DD imagerel $LN73@Destroy_ra+15
	DD	imagerel $LN73@Destroy_ra+125
	DD	imagerel $chain$0$??$_Destroy_range@V?$allocator@U?$pair@V?$basic_string@DU?$char_traits@D@std@@V?$allocator@D@2@@std@@_N@std@@@std@@@std@@YAXPEAU?$pair@V?$basic_string@DU?$char_traits@D@std@@V?$allocator@D@2@@std@@_N@0@QEAU10@AEAV?$allocator@U?$pair@V?$basic_string@DU?$char_traits@D@std@@V?$allocator@D@2@@std@@_N@std@@@0@@Z
pdata	ENDS
;	COMDAT pdata
pdata	SEGMENT
$pdata$1$??$_Destroy_range@V?$allocator@U?$pair@V?$basic_string@DU?$char_traits@D@std@@V?$allocator@D@2@@std@@_N@std@@@std@@@std@@YAXPEAU?$pair@V?$basic_string@DU?$char_traits@D@std@@V?$allocator@D@2@@std@@_N@0@QEAU10@AEAV?$allocator@U?$pair@V?$basic_string@DU?$char_traits@D@std@@V?$allocator@D@2@@std@@_N@std@@@0@@Z DD imagerel $LN73@Destroy_ra+125
	DD	imagerel $LN73@Destroy_ra+126
	DD	imagerel $chain$1$??$_Destroy_range@V?$allocator@U?$pair@V?$basic_string@DU?$char_traits@D@std@@V?$allocator@D@2@@std@@_N@std@@@std@@@std@@YAXPEAU?$pair@V?$basic_string@DU?$char_traits@D@std@@V?$allocator@D@2@@std@@_N@0@QEAU10@AEAV?$allocator@U?$pair@V?$basic_string@DU?$char_traits@D@std@@V?$allocator@D@2@@std@@_N@std@@@0@@Z
pdata	ENDS
;	COMDAT pdata
pdata	SEGMENT
$pdata$2$??$_Destroy_range@V?$allocator@U?$pair@V?$basic_string@DU?$char_traits@D@std@@V?$allocator@D@2@@std@@_N@std@@@std@@@std@@YAXPEAU?$pair@V?$basic_string@DU?$char_traits@D@std@@V?$allocator@D@2@@std@@_N@0@QEAU10@AEAV?$allocator@U?$pair@V?$basic_string@DU?$char_traits@D@std@@V?$allocator@D@2@@std@@_N@std@@@0@@Z DD imagerel $LN73@Destroy_ra+126
	DD	imagerel $LN73@Destroy_ra+133
	DD	imagerel $chain$2$??$_Destroy_range@V?$allocator@U?$pair@V?$basic_string@DU?$char_traits@D@std@@V?$allocator@D@2@@std@@_N@std@@@std@@@std@@YAXPEAU?$pair@V?$basic_string@DU?$char_traits@D@std@@V?$allocator@D@2@@std@@_N@0@QEAU10@AEAV?$allocator@U?$pair@V?$basic_string@DU?$char_traits@D@std@@V?$allocator@D@2@@std@@_N@std@@@0@@Z
pdata	ENDS
;	COMDAT pdata
pdata	SEGMENT
$pdata$??$_Construct@$01PEBD@?$basic_string@DU?$char_traits@D@std@@V?$allocator@D@2@@std@@AEAAXQEBD_K@Z DD imagerel $LN62@Construct
	DD	imagerel $LN62@Construct+243
	DD	imagerel $unwind$??$_Construct@$01PEBD@?$basic_string@DU?$char_traits@D@std@@V?$allocator@D@2@@std@@AEAAXQEBD_K@Z
pdata	ENDS
;	COMDAT pdata
pdata	SEGMENT
$pdata$??$_Construct@$00PEBD@?$basic_string@DU?$char_traits@D@std@@V?$allocator@D@2@@std@@AEAAXQEBD_K@Z DD imagerel $LN63@Construct
	DD	imagerel $LN63@Construct+79
	DD	imagerel $unwind$??$_Construct@$00PEBD@?$basic_string@DU?$char_traits@D@std@@V?$allocator@D@2@@std@@AEAAXQEBD_K@Z
pdata	ENDS
;	COMDAT pdata
pdata	SEGMENT
$pdata$0$??$_Construct@$00PEBD@?$basic_string@DU?$char_traits@D@std@@V?$allocator@D@2@@std@@AEAAXQEBD_K@Z DD imagerel $LN63@Construct+79
	DD	imagerel $LN63@Construct+241
	DD	imagerel $chain$0$??$_Construct@$00PEBD@?$basic_string@DU?$char_traits@D@std@@V?$allocator@D@2@@std@@AEAAXQEBD_K@Z
pdata	ENDS
;	COMDAT pdata
pdata	SEGMENT
$pdata$1$??$_Construct@$00PEBD@?$basic_string@DU?$char_traits@D@std@@V?$allocator@D@2@@std@@AEAAXQEBD_K@Z DD imagerel $LN63@Construct+241
	DD	imagerel $LN63@Construct+247
	DD	imagerel $chain$1$??$_Construct@$00PEBD@?$basic_string@DU?$char_traits@D@std@@V?$allocator@D@2@@std@@AEAAXQEBD_K@Z
pdata	ENDS
;	COMDAT pdata
pdata	SEGMENT
$pdata$2$??$_Construct@$00PEBD@?$basic_string@DU?$char_traits@D@std@@V?$allocator@D@2@@std@@AEAAXQEBD_K@Z DD imagerel $LN63@Construct+247
	DD	imagerel $LN63@Construct+253
	DD	imagerel $chain$2$??$_Construct@$00PEBD@?$basic_string@DU?$char_traits@D@std@@V?$allocator@D@2@@std@@AEAAXQEBD_K@Z
pdata	ENDS
;	COMDAT pdata
pdata	SEGMENT
$pdata$??$rotate@M$0A@@glm@@YA?AU?$mat@$03$03M$0A@@0@AEBU10@MAEBU?$vec@$02M$0A@@0@@Z DD imagerel $LN997@rotate
	DD	imagerel $LN997@rotate+1107
	DD	imagerel $unwind$??$rotate@M$0A@@glm@@YA?AU?$mat@$03$03M$0A@@0@AEBU10@MAEBU?$vec@$02M$0A@@0@@Z
pdata	ENDS
;	COMDAT pdata
pdata	SEGMENT
$pdata$??$translate@M$0A@@glm@@YA?AU?$mat@$03$03M$0A@@0@AEBU10@AEBU?$vec@$02M$0A@@0@@Z DD imagerel $LN224@translate
	DD	imagerel $LN224@translate+366
	DD	imagerel $unwind$??$translate@M$0A@@glm@@YA?AU?$mat@$03$03M$0A@@0@AEBU10@AEBU?$vec@$02M$0A@@0@@Z
pdata	ENDS
;	COMDAT pdata
pdata	SEGMENT
$pdata$??$?0AEAY0CG@$$CBD_N$0A@@?$pair@V?$basic_string@DU?$char_traits@D@std@@V?$allocator@D@2@@std@@_N@std@@QEAA@AEAY0CG@$$CBD$$QEA_N@Z DD imagerel $LN6@allocator
	DD	imagerel $LN6@allocator+48
	DD	imagerel $unwind$??$?0AEAY0CG@$$CBD_N$0A@@?$pair@V?$basic_string@DU?$char_traits@D@std@@V?$allocator@D@2@@std@@_N@std@@QEAA@AEAY0CG@$$CBD$$QEA_N@Z
pdata	ENDS
;	COMDAT pdata
pdata	SEGMENT
$pdata$??$?0AEAY0CF@$$CBD_N$0A@@?$pair@V?$basic_string@DU?$char_traits@D@std@@V?$allocator@D@2@@std@@_N@std@@QEAA@AEAY0CF@$$CBD$$QEA_N@Z DD imagerel $LN6@allocator
	DD	imagerel $LN6@allocator+41
	DD	imagerel $unwind$??$?0AEAY0CF@$$CBD_N$0A@@?$pair@V?$basic_string@DU?$char_traits@D@std@@V?$allocator@D@2@@std@@_N@std@@QEAA@AEAY0CF@$$CBD$$QEA_N@Z
pdata	ENDS
;	COMDAT pdata
pdata	SEGMENT
$pdata$??$?0AEAY0CE@$$CBD_N$0A@@?$pair@V?$basic_string@DU?$char_traits@D@std@@V?$allocator@D@2@@std@@_N@std@@QEAA@AEAY0CE@$$CBD$$QEA_N@Z DD imagerel $LN6@allocator
	DD	imagerel $LN6@allocator+41
	DD	imagerel $unwind$??$?0AEAY0CE@$$CBD_N$0A@@?$pair@V?$basic_string@DU?$char_traits@D@std@@V?$allocator@D@2@@std@@_N@std@@QEAA@AEAY0CE@$$CBD$$QEA_N@Z
pdata	ENDS
;	COMDAT pdata
pdata	SEGMENT
$pdata$??$?0AEAY0CA@$$CBD_N$0A@@?$pair@V?$basic_string@DU?$char_traits@D@std@@V?$allocator@D@2@@std@@_N@std@@QEAA@AEAY0CA@$$CBD$$QEA_N@Z DD imagerel $LN6@allocator
	DD	imagerel $LN6@allocator+41
	DD	imagerel $unwind$??$?0AEAY0CA@$$CBD_N$0A@@?$pair@V?$basic_string@DU?$char_traits@D@std@@V?$allocator@D@2@@std@@_N@std@@QEAA@AEAY0CA@$$CBD$$QEA_N@Z
pdata	ENDS
;	COMDAT pdata
pdata	SEGMENT
$pdata$??$?0AEAY0CI@$$CBD_N$0A@@?$pair@V?$basic_string@DU?$char_traits@D@std@@V?$allocator@D@2@@std@@_N@std@@QEAA@AEAY0CI@$$CBD$$QEA_N@Z DD imagerel $LN6@allocator
	DD	imagerel $LN6@allocator+48
	DD	imagerel $unwind$??$?0AEAY0CI@$$CBD_N$0A@@?$pair@V?$basic_string@DU?$char_traits@D@std@@V?$allocator@D@2@@std@@_N@std@@QEAA@AEAY0CI@$$CBD$$QEA_N@Z
pdata	ENDS
;	COMDAT pdata
pdata	SEGMENT
$pdata$??$?0AEAY0CK@$$CBD_N$0A@@?$pair@V?$basic_string@DU?$char_traits@D@std@@V?$allocator@D@2@@std@@_N@std@@QEAA@AEAY0CK@$$CBD$$QEA_N@Z DD imagerel $LN6@allocator
	DD	imagerel $LN6@allocator+48
	DD	imagerel $unwind$??$?0AEAY0CK@$$CBD_N$0A@@?$pair@V?$basic_string@DU?$char_traits@D@std@@V?$allocator@D@2@@std@@_N@std@@QEAA@AEAY0CK@$$CBD$$QEA_N@Z
pdata	ENDS
;	COMDAT pdata
pdata	SEGMENT
$pdata$??$?0AEAY0CL@$$CBD_N$0A@@?$pair@V?$basic_string@DU?$char_traits@D@std@@V?$allocator@D@2@@std@@_N@std@@QEAA@AEAY0CL@$$CBD$$QEA_N@Z DD imagerel $LN6@allocator
	DD	imagerel $LN6@allocator+41
	DD	imagerel $unwind$??$?0AEAY0CL@$$CBD_N$0A@@?$pair@V?$basic_string@DU?$char_traits@D@std@@V?$allocator@D@2@@std@@_N@std@@QEAA@AEAY0CL@$$CBD$$QEA_N@Z
pdata	ENDS
;	COMDAT pdata
pdata	SEGMENT
$pdata$??$endl@DU?$char_traits@D@std@@@std@@YAAEAV?$basic_ostream@DU?$char_traits@D@std@@@0@AEAV10@@Z DD imagerel $LN4@endl
	DD	imagerel $LN4@endl+57
	DD	imagerel $unwind$??$endl@DU?$char_traits@D@std@@@std@@YAAEAV?$basic_ostream@DU?$char_traits@D@std@@@0@AEAV10@@Z
pdata	ENDS
;	COMDAT pdata
pdata	SEGMENT
$pdata$??$?6U?$char_traits@D@std@@@std@@YAAEAV?$basic_ostream@DU?$char_traits@D@std@@@0@AEAV10@PEBD@Z DD imagerel $LN143@operator
	DD	imagerel $LN143@operator+469
	DD	imagerel $unwind$??$?6U?$char_traits@D@std@@@std@@YAAEAV?$basic_ostream@DU?$char_traits@D@std@@@0@AEAV10@PEBD@Z
pdata	ENDS
;	COMDAT pdata
pdata	SEGMENT
$pdata$?catch$17@?0???$?6U?$char_traits@D@std@@@std@@YAAEAV?$basic_ostream@DU?$char_traits@D@std@@@0@AEAV10@PEBD@Z@4HA DD imagerel ?catch$17@?0???$?6U?$char_traits@D@std@@@std@@YAAEAV?$basic_ostream@DU?$char_traits@D@std@@@0@AEAV10@PEBD@Z@4HA
	DD	imagerel ?catch$17@?0???$?6U?$char_traits@D@std@@@std@@YAAEAV?$basic_ostream@DU?$char_traits@D@std@@@0@AEAV10@PEBD@Z@4HA+59
	DD	imagerel $unwind$?catch$17@?0???$?6U?$char_traits@D@std@@@std@@YAAEAV?$basic_ostream@DU?$char_traits@D@std@@@0@AEAV10@PEBD@Z@4HA
pdata	ENDS
;	COMDAT pdata
pdata	SEGMENT
$pdata$??$?8DU?$char_traits@D@std@@V?$allocator@D@1@@std@@YA_NAEBV?$basic_string@DU?$char_traits@D@std@@V?$allocator@D@2@@0@QEBD@Z DD imagerel $LN28@operator
	DD	imagerel $LN28@operator+84
	DD	imagerel $unwind$??$?8DU?$char_traits@D@std@@V?$allocator@D@1@@std@@YA_NAEBV?$basic_string@DU?$char_traits@D@std@@V?$allocator@D@2@@0@QEBD@Z
pdata	ENDS
;	COMDAT pdata
pdata	SEGMENT
$pdata$??$?DM$0A@@glm@@YA?AU?$vec@$03M$0A@@0@AEBU10@M@Z DD imagerel $LN34@operator
	DD	imagerel $LN34@operator+90
	DD	imagerel $unwind$??$?DM$0A@@glm@@YA?AU?$vec@$03M$0A@@0@AEBU10@M@Z
pdata	ENDS
;	COMDAT pdata
pdata	SEGMENT
$pdata$?deallocate@?$allocator@D@std@@QEAAXQEAD_K@Z DD imagerel $LN23@deallocate
	DD	imagerel $LN23@deallocate+62
	DD	imagerel $unwind$?deallocate@?$allocator@D@std@@QEAAXQEAD_K@Z
pdata	ENDS
;	COMDAT pdata
pdata	SEGMENT
$pdata$?move@?$_Char_traits@DH@std@@SAPEADQEADQEBD_K@Z DD imagerel $LN6@move
	DD	imagerel $LN6@move+23
	DD	imagerel $unwind$?move@?$_Char_traits@DH@std@@SAPEADQEADQEBD_K@Z
pdata	ENDS
;	COMDAT pdata
pdata	SEGMENT
$pdata$?_Deallocate_for_capacity@?$basic_string@DU?$char_traits@D@std@@V?$allocator@D@2@@std@@CAXAEAV?$allocator@D@2@QEAD_K@Z DD imagerel $LN27@Deallocate
	DD	imagerel $LN27@Deallocate+63
	DD	imagerel $unwind$?_Deallocate_for_capacity@?$basic_string@DU?$char_traits@D@std@@V?$allocator@D@2@@std@@CAXAEAV?$allocator@D@2@QEAD_K@Z
pdata	ENDS
;	COMDAT pdata
pdata	SEGMENT
$pdata$?deallocate@?$allocator@U?$pair@V?$basic_string@DU?$char_traits@D@std@@V?$allocator@D@2@@std@@_N@std@@@std@@QEAAXQEAU?$pair@V?$basic_string@DU?$char_traits@D@std@@V?$allocator@D@2@@std@@_N@2@_K@Z DD imagerel $LN23@deallocate
	DD	imagerel $LN23@deallocate+67
	DD	imagerel $unwind$?deallocate@?$allocator@U?$pair@V?$basic_string@DU?$char_traits@D@std@@V?$allocator@D@2@@std@@_N@std@@@std@@QEAAXQEAU?$pair@V?$basic_string@DU?$char_traits@D@std@@V?$allocator@D@2@@std@@_N@2@_K@Z
pdata	ENDS
;	COMDAT pdata
pdata	SEGMENT
$pdata$?copy@?$_Char_traits@DH@std@@SAPEADQEADQEBD_K@Z DD imagerel $LN6@copy
	DD	imagerel $LN6@copy+23
	DD	imagerel $unwind$?copy@?$_Char_traits@DH@std@@SAPEADQEADQEBD_K@Z
pdata	ENDS
;	COMDAT pdata
pdata	SEGMENT
$pdata$??R<lambda_1>@?1??assign@?$basic_string@DU?$char_traits@D@std@@V?$allocator@D@2@@std@@QEAAAEAV23@QEBD_K@Z@QEBA@QEAD10@Z DD imagerel $LN8@operator
	DD	imagerel $LN8@operator+42
	DD	imagerel $unwind$??R<lambda_1>@?1??assign@?$basic_string@DU?$char_traits@D@std@@V?$allocator@D@2@@std@@QEAAAEAV23@QEBD_K@Z@QEBA@QEAD10@Z
pdata	ENDS
;	COMDAT pdata
pdata	SEGMENT
$pdata$?assign@?$basic_string@DU?$char_traits@D@std@@V?$allocator@D@2@@std@@QEAAAEAV12@QEBD_K@Z DD imagerel $LN110@assign
	DD	imagerel $LN110@assign+93
	DD	imagerel $unwind$?assign@?$basic_string@DU?$char_traits@D@std@@V?$allocator@D@2@@std@@QEAAAEAV12@QEBD_K@Z
pdata	ENDS
;	COMDAT pdata
pdata	SEGMENT
$pdata$0$?assign@?$basic_string@DU?$char_traits@D@std@@V?$allocator@D@2@@std@@QEAAAEAV12@QEBD_K@Z DD imagerel $LN110@assign+93
	DD	imagerel $LN110@assign+325
	DD	imagerel $chain$0$?assign@?$basic_string@DU?$char_traits@D@std@@V?$allocator@D@2@@std@@QEAAAEAV12@QEBD_K@Z
pdata	ENDS
;	COMDAT pdata
pdata	SEGMENT
$pdata$2$?assign@?$basic_string@DU?$char_traits@D@std@@V?$allocator@D@2@@std@@QEAAAEAV12@QEBD_K@Z DD imagerel $LN110@assign+325
	DD	imagerel $LN110@assign+332
	DD	imagerel $chain$2$?assign@?$basic_string@DU?$char_traits@D@std@@V?$allocator@D@2@@std@@QEAAAEAV12@QEBD_K@Z
pdata	ENDS
;	COMDAT pdata
pdata	SEGMENT
$pdata$3$?assign@?$basic_string@DU?$char_traits@D@std@@V?$allocator@D@2@@std@@QEAAAEAV12@QEBD_K@Z DD imagerel $LN110@assign+332
	DD	imagerel $LN110@assign+338
	DD	imagerel $chain$3$?assign@?$basic_string@DU?$char_traits@D@std@@V?$allocator@D@2@@std@@QEAAAEAV12@QEBD_K@Z
pdata	ENDS
;	COMDAT pdata
pdata	SEGMENT
$pdata$4$?assign@?$basic_string@DU?$char_traits@D@std@@V?$allocator@D@2@@std@@QEAAAEAV12@QEBD_K@Z DD imagerel $LN110@assign+338
	DD	imagerel $LN110@assign+344
	DD	imagerel $chain$4$?assign@?$basic_string@DU?$char_traits@D@std@@V?$allocator@D@2@@std@@QEAAAEAV12@QEBD_K@Z
pdata	ENDS
;	COMDAT pdata
pdata	SEGMENT
$pdata$?_Tidy_deallocate@?$basic_string@DU?$char_traits@D@std@@V?$allocator@D@2@@std@@AEAAXXZ DD imagerel $LN38@Tidy_deall
	DD	imagerel $LN38@Tidy_deall+95
	DD	imagerel $unwind$?_Tidy_deallocate@?$basic_string@DU?$char_traits@D@std@@V?$allocator@D@2@@std@@AEAAXXZ
pdata	ENDS
;	COMDAT pdata
pdata	SEGMENT
$pdata$?_Tidy@?$vector@U?$pair@V?$basic_string@DU?$char_traits@D@std@@V?$allocator@D@2@@std@@_N@std@@V?$allocator@U?$pair@V?$basic_string@DU?$char_traits@D@std@@V?$allocator@D@2@@std@@_N@std@@@2@@std@@AEAAXXZ DD imagerel $LN31@Tidy
	DD	imagerel $LN31@Tidy+135
	DD	imagerel $unwind$?_Tidy@?$vector@U?$pair@V?$basic_string@DU?$char_traits@D@std@@V?$allocator@D@2@@std@@_N@std@@V?$allocator@U?$pair@V?$basic_string@DU?$char_traits@D@std@@V?$allocator@D@2@@std@@_N@std@@@2@@std@@AEAAXXZ
pdata	ENDS
;	COMDAT pdata
pdata	SEGMENT
$pdata$??0?$basic_string@DU?$char_traits@D@std@@V?$allocator@D@2@@std@@QEAA@AEBV01@@Z DD imagerel $LN86@basic_stri
	DD	imagerel $LN86@basic_stri+274
	DD	imagerel $unwind$??0?$basic_string@DU?$char_traits@D@std@@V?$allocator@D@2@@std@@QEAA@AEBV01@@Z
pdata	ENDS
;	COMDAT pdata
pdata	SEGMENT
$pdata$??0?$basic_string@DU?$char_traits@D@std@@V?$allocator@D@2@@std@@QEAA@QEBD@Z DD imagerel $LN83@basic_stri
	DD	imagerel $LN83@basic_stri+287
	DD	imagerel $unwind$??0?$basic_string@DU?$char_traits@D@std@@V?$allocator@D@2@@std@@QEAA@QEBD@Z
pdata	ENDS
;	COMDAT pdata
pdata	SEGMENT
$pdata$??1?$basic_string@DU?$char_traits@D@std@@V?$allocator@D@2@@std@@QEAA@XZ DD imagerel $LN42@basic_stri
	DD	imagerel $LN42@basic_stri+95
	DD	imagerel $unwind$??1?$basic_string@DU?$char_traits@D@std@@V?$allocator@D@2@@std@@QEAA@XZ
pdata	ENDS
;	COMDAT pdata
pdata	SEGMENT
$pdata$??4?$basic_string@DU?$char_traits@D@std@@V?$allocator@D@2@@std@@QEAAAEAV01@AEBV01@@Z DD imagerel $LN16@operator
	DD	imagerel $LN16@operator+48
	DD	imagerel $unwind$??4?$basic_string@DU?$char_traits@D@std@@V?$allocator@D@2@@std@@QEAAAEAV01@AEBV01@@Z
pdata	ENDS
;	COMDAT pdata
pdata	SEGMENT
$pdata$??1?$vector@U?$pair@V?$basic_string@DU?$char_traits@D@std@@V?$allocator@D@2@@std@@_N@std@@V?$allocator@U?$pair@V?$basic_string@DU?$char_traits@D@std@@V?$allocator@D@2@@std@@_N@std@@@2@@std@@QEAA@XZ DD imagerel $LN35@vector
	DD	imagerel $LN35@vector+135
	DD	imagerel $unwind$??1?$vector@U?$pair@V?$basic_string@DU?$char_traits@D@std@@V?$allocator@D@2@@std@@_N@std@@V?$allocator@U?$pair@V?$basic_string@DU?$char_traits@D@std@@V?$allocator@D@2@@std@@_N@std@@@2@@std@@QEAA@XZ
pdata	ENDS
;	COMDAT pdata
pdata	SEGMENT
$pdata$?Convert_AssimpHelperMesh_to_sModelDrawInfo@@YA_NPEAVcMesh@AH@@AEAUsModelDrawInfo@@@Z DD imagerel $LN149@Convert_As
	DD	imagerel $LN149@Convert_As+887
	DD	imagerel $unwind$?Convert_AssimpHelperMesh_to_sModelDrawInfo@@YA_NPEAVcMesh@AH@@AEAUsModelDrawInfo@@@Z
pdata	ENDS
;	COMDAT pdata
pdata	SEGMENT
$pdata$??0?$pair@V?$basic_string@DU?$char_traits@D@std@@V?$allocator@D@2@@std@@_N@std@@QEAA@AEBU01@@Z DD imagerel $LN6@pair
	DD	imagerel $LN6@pair+42
	DD	imagerel $unwind$??0?$pair@V?$basic_string@DU?$char_traits@D@std@@V?$allocator@D@2@@std@@_N@std@@QEAA@AEBU01@@Z
pdata	ENDS
;	COMDAT pdata
pdata	SEGMENT
$pdata$??1?$pair@V?$basic_string@DU?$char_traits@D@std@@V?$allocator@D@2@@std@@_N@std@@QEAA@XZ DD imagerel $LN48@pair
	DD	imagerel $LN48@pair+95
	DD	imagerel $unwind$??1?$pair@V?$basic_string@DU?$char_traits@D@std@@V?$allocator@D@2@@std@@_N@std@@QEAA@XZ
pdata	ENDS
;	COMDAT pdata
pdata	SEGMENT
$pdata$??1sLODInfo@sMesh@@QEAA@XZ DD imagerel $LN48@sLODInfo
	DD	imagerel $LN48@sLODInfo+95
	DD	imagerel $unwind$??1sLODInfo@sMesh@@QEAA@XZ
pdata	ENDS
;	COMDAT pdata
pdata	SEGMENT
$pdata$??1sModelDrawInfo@@QEAA@XZ DD imagerel $LN48@sModelDraw
	DD	imagerel $LN48@sModelDraw+95
	DD	imagerel $unwind$??1sModelDrawInfo@@QEAA@XZ
pdata	ENDS
;	COMDAT pdata
pdata	SEGMENT
$pdata$?AddModelsToScene@@YAXPEAVcVAOManager@@I@Z DD imagerel $LN2392
	DD	imagerel $LN2392+20087
	DD	imagerel $unwind$?AddModelsToScene@@YAXPEAVcVAOManager@@I@Z
pdata	ENDS
;	COMDAT pdata
pdata	SEGMENT
$pdata$?dtor$0@?0??AddModelsToScene@@YAXPEAVcVAOManager@@I@Z@4HA DD imagerel ?dtor$0@?0??AddModelsToScene@@YAXPEAVcVAOManager@@I@Z@4HA
	DD	imagerel ?dtor$0@?0??AddModelsToScene@@YAXPEAVcVAOManager@@I@Z@4HA+29
	DD	imagerel $unwind$?dtor$0@?0??AddModelsToScene@@YAXPEAVcVAOManager@@I@Z@4HA
pdata	ENDS
;	COMDAT pdata
pdata	SEGMENT
$pdata$?dtor$5@?0??AddModelsToScene@@YAXPEAVcVAOManager@@I@Z@4HA DD imagerel ?dtor$5@?0??AddModelsToScene@@YAXPEAVcVAOManager@@I@Z@4HA
	DD	imagerel ?dtor$5@?0??AddModelsToScene@@YAXPEAVcVAOManager@@I@Z@4HA+29
	DD	imagerel $unwind$?dtor$5@?0??AddModelsToScene@@YAXPEAVcVAOManager@@I@Z@4HA
pdata	ENDS
;	COMDAT pdata
pdata	SEGMENT
$pdata$?dtor$13@?0??AddModelsToScene@@YAXPEAVcVAOManager@@I@Z@4HA DD imagerel ?dtor$13@?0??AddModelsToScene@@YAXPEAVcVAOManager@@I@Z@4HA
	DD	imagerel ?dtor$13@?0??AddModelsToScene@@YAXPEAVcVAOManager@@I@Z@4HA+29
	DD	imagerel $unwind$?dtor$13@?0??AddModelsToScene@@YAXPEAVcVAOManager@@I@Z@4HA
pdata	ENDS
;	COMDAT pdata
pdata	SEGMENT
$pdata$?dtor$19@?0??AddModelsToScene@@YAXPEAVcVAOManager@@I@Z@4HA DD imagerel ?dtor$19@?0??AddModelsToScene@@YAXPEAVcVAOManager@@I@Z@4HA
	DD	imagerel ?dtor$19@?0??AddModelsToScene@@YAXPEAVcVAOManager@@I@Z@4HA+29
	DD	imagerel $unwind$?dtor$19@?0??AddModelsToScene@@YAXPEAVcVAOManager@@I@Z@4HA
pdata	ENDS
;	COMDAT pdata
pdata	SEGMENT
$pdata$?dtor$26@?0??AddModelsToScene@@YAXPEAVcVAOManager@@I@Z@4HA DD imagerel ?dtor$26@?0??AddModelsToScene@@YAXPEAVcVAOManager@@I@Z@4HA
	DD	imagerel ?dtor$26@?0??AddModelsToScene@@YAXPEAVcVAOManager@@I@Z@4HA+29
	DD	imagerel $unwind$?dtor$26@?0??AddModelsToScene@@YAXPEAVcVAOManager@@I@Z@4HA
pdata	ENDS
;	COMDAT pdata
pdata	SEGMENT
$pdata$?dtor$29@?0??AddModelsToScene@@YAXPEAVcVAOManager@@I@Z@4HA DD imagerel ?dtor$29@?0??AddModelsToScene@@YAXPEAVcVAOManager@@I@Z@4HA
	DD	imagerel ?dtor$29@?0??AddModelsToScene@@YAXPEAVcVAOManager@@I@Z@4HA+29
	DD	imagerel $unwind$?dtor$29@?0??AddModelsToScene@@YAXPEAVcVAOManager@@I@Z@4HA
pdata	ENDS
;	COMDAT pdata
pdata	SEGMENT
$pdata$?dtor$30@?0??AddModelsToScene@@YAXPEAVcVAOManager@@I@Z@4HA DD imagerel ?dtor$30@?0??AddModelsToScene@@YAXPEAVcVAOManager@@I@Z@4HA
	DD	imagerel ?dtor$30@?0??AddModelsToScene@@YAXPEAVcVAOManager@@I@Z@4HA+29
	DD	imagerel $unwind$?dtor$30@?0??AddModelsToScene@@YAXPEAVcVAOManager@@I@Z@4HA
pdata	ENDS
;	COMDAT pdata
pdata	SEGMENT
$pdata$?dtor$41@?0??AddModelsToScene@@YAXPEAVcVAOManager@@I@Z@4HA DD imagerel ?dtor$41@?0??AddModelsToScene@@YAXPEAVcVAOManager@@I@Z@4HA
	DD	imagerel ?dtor$41@?0??AddModelsToScene@@YAXPEAVcVAOManager@@I@Z@4HA+29
	DD	imagerel $unwind$?dtor$41@?0??AddModelsToScene@@YAXPEAVcVAOManager@@I@Z@4HA
pdata	ENDS
;	COMDAT pdata
pdata	SEGMENT
$pdata$?dtor$45@?0??AddModelsToScene@@YAXPEAVcVAOManager@@I@Z@4HA DD imagerel ?dtor$45@?0??AddModelsToScene@@YAXPEAVcVAOManager@@I@Z@4HA
	DD	imagerel ?dtor$45@?0??AddModelsToScene@@YAXPEAVcVAOManager@@I@Z@4HA+29
	DD	imagerel $unwind$?dtor$45@?0??AddModelsToScene@@YAXPEAVcVAOManager@@I@Z@4HA
pdata	ENDS
;	COMDAT pdata
pdata	SEGMENT
$pdata$?dtor$51@?0??AddModelsToScene@@YAXPEAVcVAOManager@@I@Z@4HA DD imagerel ?dtor$51@?0??AddModelsToScene@@YAXPEAVcVAOManager@@I@Z@4HA
	DD	imagerel ?dtor$51@?0??AddModelsToScene@@YAXPEAVcVAOManager@@I@Z@4HA+29
	DD	imagerel $unwind$?dtor$51@?0??AddModelsToScene@@YAXPEAVcVAOManager@@I@Z@4HA
pdata	ENDS
;	COMDAT pdata
pdata	SEGMENT
$pdata$?dtor$55@?0??AddModelsToScene@@YAXPEAVcVAOManager@@I@Z@4HA DD imagerel ?dtor$55@?0??AddModelsToScene@@YAXPEAVcVAOManager@@I@Z@4HA
	DD	imagerel ?dtor$55@?0??AddModelsToScene@@YAXPEAVcVAOManager@@I@Z@4HA+29
	DD	imagerel $unwind$?dtor$55@?0??AddModelsToScene@@YAXPEAVcVAOManager@@I@Z@4HA
pdata	ENDS
;	COMDAT pdata
pdata	SEGMENT
$pdata$?dtor$60@?0??AddModelsToScene@@YAXPEAVcVAOManager@@I@Z@4HA DD imagerel ?dtor$60@?0??AddModelsToScene@@YAXPEAVcVAOManager@@I@Z@4HA
	DD	imagerel ?dtor$60@?0??AddModelsToScene@@YAXPEAVcVAOManager@@I@Z@4HA+29
	DD	imagerel $unwind$?dtor$60@?0??AddModelsToScene@@YAXPEAVcVAOManager@@I@Z@4HA
pdata	ENDS
;	COMDAT pdata
pdata	SEGMENT
$pdata$?dtor$61@?0??AddModelsToScene@@YAXPEAVcVAOManager@@I@Z@4HA DD imagerel ?dtor$61@?0??AddModelsToScene@@YAXPEAVcVAOManager@@I@Z@4HA
	DD	imagerel ?dtor$61@?0??AddModelsToScene@@YAXPEAVcVAOManager@@I@Z@4HA+29
	DD	imagerel $unwind$?dtor$61@?0??AddModelsToScene@@YAXPEAVcVAOManager@@I@Z@4HA
pdata	ENDS
;	COMDAT pdata
pdata	SEGMENT
$pdata$?dtor$72@?0??AddModelsToScene@@YAXPEAVcVAOManager@@I@Z@4HA DD imagerel ?dtor$72@?0??AddModelsToScene@@YAXPEAVcVAOManager@@I@Z@4HA
	DD	imagerel ?dtor$72@?0??AddModelsToScene@@YAXPEAVcVAOManager@@I@Z@4HA+29
	DD	imagerel $unwind$?dtor$72@?0??AddModelsToScene@@YAXPEAVcVAOManager@@I@Z@4HA
pdata	ENDS
;	COMDAT pdata
pdata	SEGMENT
$pdata$?dtor$76@?0??AddModelsToScene@@YAXPEAVcVAOManager@@I@Z@4HA DD imagerel ?dtor$76@?0??AddModelsToScene@@YAXPEAVcVAOManager@@I@Z@4HA
	DD	imagerel ?dtor$76@?0??AddModelsToScene@@YAXPEAVcVAOManager@@I@Z@4HA+29
	DD	imagerel $unwind$?dtor$76@?0??AddModelsToScene@@YAXPEAVcVAOManager@@I@Z@4HA
pdata	ENDS
;	COMDAT pdata
pdata	SEGMENT
$pdata$?dtor$82@?0??AddModelsToScene@@YAXPEAVcVAOManager@@I@Z@4HA DD imagerel ?dtor$82@?0??AddModelsToScene@@YAXPEAVcVAOManager@@I@Z@4HA
	DD	imagerel ?dtor$82@?0??AddModelsToScene@@YAXPEAVcVAOManager@@I@Z@4HA+29
	DD	imagerel $unwind$?dtor$82@?0??AddModelsToScene@@YAXPEAVcVAOManager@@I@Z@4HA
pdata	ENDS
;	COMDAT pdata
pdata	SEGMENT
$pdata$?dtor$87@?0??AddModelsToScene@@YAXPEAVcVAOManager@@I@Z@4HA DD imagerel ?dtor$87@?0??AddModelsToScene@@YAXPEAVcVAOManager@@I@Z@4HA
	DD	imagerel ?dtor$87@?0??AddModelsToScene@@YAXPEAVcVAOManager@@I@Z@4HA+29
	DD	imagerel $unwind$?dtor$87@?0??AddModelsToScene@@YAXPEAVcVAOManager@@I@Z@4HA
pdata	ENDS
;	COMDAT pdata
pdata	SEGMENT
$pdata$?dtor$95@?0??AddModelsToScene@@YAXPEAVcVAOManager@@I@Z@4HA DD imagerel ?dtor$95@?0??AddModelsToScene@@YAXPEAVcVAOManager@@I@Z@4HA
	DD	imagerel ?dtor$95@?0??AddModelsToScene@@YAXPEAVcVAOManager@@I@Z@4HA+29
	DD	imagerel $unwind$?dtor$95@?0??AddModelsToScene@@YAXPEAVcVAOManager@@I@Z@4HA
pdata	ENDS
;	COMDAT pdata
pdata	SEGMENT
$pdata$?dtor$101@?0??AddModelsToScene@@YAXPEAVcVAOManager@@I@Z@4HA DD imagerel ?dtor$101@?0??AddModelsToScene@@YAXPEAVcVAOManager@@I@Z@4HA
	DD	imagerel ?dtor$101@?0??AddModelsToScene@@YAXPEAVcVAOManager@@I@Z@4HA+29
	DD	imagerel $unwind$?dtor$101@?0??AddModelsToScene@@YAXPEAVcVAOManager@@I@Z@4HA
pdata	ENDS
;	COMDAT pdata
pdata	SEGMENT
$pdata$?dtor$108@?0??AddModelsToScene@@YAXPEAVcVAOManager@@I@Z@4HA DD imagerel ?dtor$108@?0??AddModelsToScene@@YAXPEAVcVAOManager@@I@Z@4HA
	DD	imagerel ?dtor$108@?0??AddModelsToScene@@YAXPEAVcVAOManager@@I@Z@4HA+29
	DD	imagerel $unwind$?dtor$108@?0??AddModelsToScene@@YAXPEAVcVAOManager@@I@Z@4HA
pdata	ENDS
;	COMDAT pdata
pdata	SEGMENT
$pdata$?dtor$113@?0??AddModelsToScene@@YAXPEAVcVAOManager@@I@Z@4HA DD imagerel ?dtor$113@?0??AddModelsToScene@@YAXPEAVcVAOManager@@I@Z@4HA
	DD	imagerel ?dtor$113@?0??AddModelsToScene@@YAXPEAVcVAOManager@@I@Z@4HA+29
	DD	imagerel $unwind$?dtor$113@?0??AddModelsToScene@@YAXPEAVcVAOManager@@I@Z@4HA
pdata	ENDS
;	COMDAT pdata
pdata	SEGMENT
$pdata$?dtor$119@?0??AddModelsToScene@@YAXPEAVcVAOManager@@I@Z@4HA DD imagerel ?dtor$119@?0??AddModelsToScene@@YAXPEAVcVAOManager@@I@Z@4HA
	DD	imagerel ?dtor$119@?0??AddModelsToScene@@YAXPEAVcVAOManager@@I@Z@4HA+29
	DD	imagerel $unwind$?dtor$119@?0??AddModelsToScene@@YAXPEAVcVAOManager@@I@Z@4HA
pdata	ENDS
;	COMDAT pdata
pdata	SEGMENT
$pdata$?dtor$125@?0??AddModelsToScene@@YAXPEAVcVAOManager@@I@Z@4HA DD imagerel ?dtor$125@?0??AddModelsToScene@@YAXPEAVcVAOManager@@I@Z@4HA
	DD	imagerel ?dtor$125@?0??AddModelsToScene@@YAXPEAVcVAOManager@@I@Z@4HA+29
	DD	imagerel $unwind$?dtor$125@?0??AddModelsToScene@@YAXPEAVcVAOManager@@I@Z@4HA
pdata	ENDS
;	COMDAT pdata
pdata	SEGMENT
$pdata$?dtor$128@?0??AddModelsToScene@@YAXPEAVcVAOManager@@I@Z@4HA DD imagerel ?dtor$128@?0??AddModelsToScene@@YAXPEAVcVAOManager@@I@Z@4HA
	DD	imagerel ?dtor$128@?0??AddModelsToScene@@YAXPEAVcVAOManager@@I@Z@4HA+29
	DD	imagerel $unwind$?dtor$128@?0??AddModelsToScene@@YAXPEAVcVAOManager@@I@Z@4HA
pdata	ENDS
;	COMDAT pdata
pdata	SEGMENT
$pdata$?dtor$131@?0??AddModelsToScene@@YAXPEAVcVAOManager@@I@Z@4HA DD imagerel ?dtor$131@?0??AddModelsToScene@@YAXPEAVcVAOManager@@I@Z@4HA
	DD	imagerel ?dtor$131@?0??AddModelsToScene@@YAXPEAVcVAOManager@@I@Z@4HA+29
	DD	imagerel $unwind$?dtor$131@?0??AddModelsToScene@@YAXPEAVcVAOManager@@I@Z@4HA
pdata	ENDS
;	COMDAT pdata
pdata	SEGMENT
$pdata$?dtor$150@?0??AddModelsToScene@@YAXPEAVcVAOManager@@I@Z@4HA DD imagerel ?dtor$150@?0??AddModelsToScene@@YAXPEAVcVAOManager@@I@Z@4HA
	DD	imagerel ?dtor$150@?0??AddModelsToScene@@YAXPEAVcVAOManager@@I@Z@4HA+29
	DD	imagerel $unwind$?dtor$150@?0??AddModelsToScene@@YAXPEAVcVAOManager@@I@Z@4HA
pdata	ENDS
;	COMDAT pdata
pdata	SEGMENT
$pdata$?dtor$151@?0??AddModelsToScene@@YAXPEAVcVAOManager@@I@Z@4HA DD imagerel ?dtor$151@?0??AddModelsToScene@@YAXPEAVcVAOManager@@I@Z@4HA
	DD	imagerel ?dtor$151@?0??AddModelsToScene@@YAXPEAVcVAOManager@@I@Z@4HA+29
	DD	imagerel $unwind$?dtor$151@?0??AddModelsToScene@@YAXPEAVcVAOManager@@I@Z@4HA
pdata	ENDS
;	COMDAT pdata
pdata	SEGMENT
$pdata$?dtor$152@?0??AddModelsToScene@@YAXPEAVcVAOManager@@I@Z@4HA DD imagerel ?dtor$152@?0??AddModelsToScene@@YAXPEAVcVAOManager@@I@Z@4HA
	DD	imagerel ?dtor$152@?0??AddModelsToScene@@YAXPEAVcVAOManager@@I@Z@4HA+29
	DD	imagerel $unwind$?dtor$152@?0??AddModelsToScene@@YAXPEAVcVAOManager@@I@Z@4HA
pdata	ENDS
;	COMDAT pdata
pdata	SEGMENT
$pdata$?dtor$153@?0??AddModelsToScene@@YAXPEAVcVAOManager@@I@Z@4HA DD imagerel ?dtor$153@?0??AddModelsToScene@@YAXPEAVcVAOManager@@I@Z@4HA
	DD	imagerel ?dtor$153@?0??AddModelsToScene@@YAXPEAVcVAOManager@@I@Z@4HA+29
	DD	imagerel $unwind$?dtor$153@?0??AddModelsToScene@@YAXPEAVcVAOManager@@I@Z@4HA
pdata	ENDS
;	COMDAT pdata
pdata	SEGMENT
$pdata$?dtor$154@?0??AddModelsToScene@@YAXPEAVcVAOManager@@I@Z@4HA DD imagerel ?dtor$154@?0??AddModelsToScene@@YAXPEAVcVAOManager@@I@Z@4HA
	DD	imagerel ?dtor$154@?0??AddModelsToScene@@YAXPEAVcVAOManager@@I@Z@4HA+29
	DD	imagerel $unwind$?dtor$154@?0??AddModelsToScene@@YAXPEAVcVAOManager@@I@Z@4HA
pdata	ENDS
;	COMDAT pdata
pdata	SEGMENT
$pdata$?dtor$155@?0??AddModelsToScene@@YAXPEAVcVAOManager@@I@Z@4HA DD imagerel ?dtor$155@?0??AddModelsToScene@@YAXPEAVcVAOManager@@I@Z@4HA
	DD	imagerel ?dtor$155@?0??AddModelsToScene@@YAXPEAVcVAOManager@@I@Z@4HA+29
	DD	imagerel $unwind$?dtor$155@?0??AddModelsToScene@@YAXPEAVcVAOManager@@I@Z@4HA
pdata	ENDS
;	COMDAT pdata
pdata	SEGMENT
$pdata$?dtor$156@?0??AddModelsToScene@@YAXPEAVcVAOManager@@I@Z@4HA DD imagerel ?dtor$156@?0??AddModelsToScene@@YAXPEAVcVAOManager@@I@Z@4HA
	DD	imagerel ?dtor$156@?0??AddModelsToScene@@YAXPEAVcVAOManager@@I@Z@4HA+29
	DD	imagerel $unwind$?dtor$156@?0??AddModelsToScene@@YAXPEAVcVAOManager@@I@Z@4HA
pdata	ENDS
;	COMDAT pdata
pdata	SEGMENT
$pdata$?dtor$157@?0??AddModelsToScene@@YAXPEAVcVAOManager@@I@Z@4HA DD imagerel ?dtor$157@?0??AddModelsToScene@@YAXPEAVcVAOManager@@I@Z@4HA
	DD	imagerel ?dtor$157@?0??AddModelsToScene@@YAXPEAVcVAOManager@@I@Z@4HA+29
	DD	imagerel $unwind$?dtor$157@?0??AddModelsToScene@@YAXPEAVcVAOManager@@I@Z@4HA
pdata	ENDS
;	COMDAT pdata
pdata	SEGMENT
$pdata$?dtor$158@?0??AddModelsToScene@@YAXPEAVcVAOManager@@I@Z@4HA DD imagerel ?dtor$158@?0??AddModelsToScene@@YAXPEAVcVAOManager@@I@Z@4HA
	DD	imagerel ?dtor$158@?0??AddModelsToScene@@YAXPEAVcVAOManager@@I@Z@4HA+29
	DD	imagerel $unwind$?dtor$158@?0??AddModelsToScene@@YAXPEAVcVAOManager@@I@Z@4HA
pdata	ENDS
;	COMDAT pdata
pdata	SEGMENT
$pdata$?dtor$159@?0??AddModelsToScene@@YAXPEAVcVAOManager@@I@Z@4HA DD imagerel ?dtor$159@?0??AddModelsToScene@@YAXPEAVcVAOManager@@I@Z@4HA
	DD	imagerel ?dtor$159@?0??AddModelsToScene@@YAXPEAVcVAOManager@@I@Z@4HA+29
	DD	imagerel $unwind$?dtor$159@?0??AddModelsToScene@@YAXPEAVcVAOManager@@I@Z@4HA
pdata	ENDS
;	COMDAT pdata
pdata	SEGMENT
$pdata$?dtor$164@?0??AddModelsToScene@@YAXPEAVcVAOManager@@I@Z@4HA DD imagerel ?dtor$164@?0??AddModelsToScene@@YAXPEAVcVAOManager@@I@Z@4HA
	DD	imagerel ?dtor$164@?0??AddModelsToScene@@YAXPEAVcVAOManager@@I@Z@4HA+29
	DD	imagerel $unwind$?dtor$164@?0??AddModelsToScene@@YAXPEAVcVAOManager@@I@Z@4HA
pdata	ENDS
;	COMDAT pdata
pdata	SEGMENT
$pdata$?dtor$166@?0??AddModelsToScene@@YAXPEAVcVAOManager@@I@Z@4HA DD imagerel ?dtor$166@?0??AddModelsToScene@@YAXPEAVcVAOManager@@I@Z@4HA
	DD	imagerel ?dtor$166@?0??AddModelsToScene@@YAXPEAVcVAOManager@@I@Z@4HA+29
	DD	imagerel $unwind$?dtor$166@?0??AddModelsToScene@@YAXPEAVcVAOManager@@I@Z@4HA
pdata	ENDS
;	COMDAT pdata
pdata	SEGMENT
$pdata$?dtor$168@?0??AddModelsToScene@@YAXPEAVcVAOManager@@I@Z@4HA DD imagerel ?dtor$168@?0??AddModelsToScene@@YAXPEAVcVAOManager@@I@Z@4HA
	DD	imagerel ?dtor$168@?0??AddModelsToScene@@YAXPEAVcVAOManager@@I@Z@4HA+29
	DD	imagerel $unwind$?dtor$168@?0??AddModelsToScene@@YAXPEAVcVAOManager@@I@Z@4HA
pdata	ENDS
;	COMDAT pdata
pdata	SEGMENT
$pdata$?dtor$170@?0??AddModelsToScene@@YAXPEAVcVAOManager@@I@Z@4HA DD imagerel ?dtor$170@?0??AddModelsToScene@@YAXPEAVcVAOManager@@I@Z@4HA
	DD	imagerel ?dtor$170@?0??AddModelsToScene@@YAXPEAVcVAOManager@@I@Z@4HA+29
	DD	imagerel $unwind$?dtor$170@?0??AddModelsToScene@@YAXPEAVcVAOManager@@I@Z@4HA
pdata	ENDS
;	COMDAT pdata
pdata	SEGMENT
$pdata$?dtor$172@?0??AddModelsToScene@@YAXPEAVcVAOManager@@I@Z@4HA DD imagerel ?dtor$172@?0??AddModelsToScene@@YAXPEAVcVAOManager@@I@Z@4HA
	DD	imagerel ?dtor$172@?0??AddModelsToScene@@YAXPEAVcVAOManager@@I@Z@4HA+29
	DD	imagerel $unwind$?dtor$172@?0??AddModelsToScene@@YAXPEAVcVAOManager@@I@Z@4HA
pdata	ENDS
;	COMDAT pdata
pdata	SEGMENT
$pdata$?dtor$173@?0??AddModelsToScene@@YAXPEAVcVAOManager@@I@Z@4HA DD imagerel ?dtor$173@?0??AddModelsToScene@@YAXPEAVcVAOManager@@I@Z@4HA
	DD	imagerel ?dtor$173@?0??AddModelsToScene@@YAXPEAVcVAOManager@@I@Z@4HA+29
	DD	imagerel $unwind$?dtor$173@?0??AddModelsToScene@@YAXPEAVcVAOManager@@I@Z@4HA
pdata	ENDS
;	COMDAT pdata
pdata	SEGMENT
$pdata$?dtor$174@?0??AddModelsToScene@@YAXPEAVcVAOManager@@I@Z@4HA DD imagerel ?dtor$174@?0??AddModelsToScene@@YAXPEAVcVAOManager@@I@Z@4HA
	DD	imagerel ?dtor$174@?0??AddModelsToScene@@YAXPEAVcVAOManager@@I@Z@4HA+29
	DD	imagerel $unwind$?dtor$174@?0??AddModelsToScene@@YAXPEAVcVAOManager@@I@Z@4HA
pdata	ENDS
;	COMDAT pdata
pdata	SEGMENT
$pdata$?dtor$175@?0??AddModelsToScene@@YAXPEAVcVAOManager@@I@Z@4HA DD imagerel ?dtor$175@?0??AddModelsToScene@@YAXPEAVcVAOManager@@I@Z@4HA
	DD	imagerel ?dtor$175@?0??AddModelsToScene@@YAXPEAVcVAOManager@@I@Z@4HA+29
	DD	imagerel $unwind$?dtor$175@?0??AddModelsToScene@@YAXPEAVcVAOManager@@I@Z@4HA
pdata	ENDS
;	COMDAT pdata
pdata	SEGMENT
$pdata$?dtor$176@?0??AddModelsToScene@@YAXPEAVcVAOManager@@I@Z@4HA DD imagerel ?dtor$176@?0??AddModelsToScene@@YAXPEAVcVAOManager@@I@Z@4HA
	DD	imagerel ?dtor$176@?0??AddModelsToScene@@YAXPEAVcVAOManager@@I@Z@4HA+29
	DD	imagerel $unwind$?dtor$176@?0??AddModelsToScene@@YAXPEAVcVAOManager@@I@Z@4HA
pdata	ENDS
;	COMDAT pdata
pdata	SEGMENT
$pdata$?dtor$177@?0??AddModelsToScene@@YAXPEAVcVAOManager@@I@Z@4HA DD imagerel ?dtor$177@?0??AddModelsToScene@@YAXPEAVcVAOManager@@I@Z@4HA
	DD	imagerel ?dtor$177@?0??AddModelsToScene@@YAXPEAVcVAOManager@@I@Z@4HA+29
	DD	imagerel $unwind$?dtor$177@?0??AddModelsToScene@@YAXPEAVcVAOManager@@I@Z@4HA
pdata	ENDS
;	COMDAT pdata
pdata	SEGMENT
$pdata$?dtor$178@?0??AddModelsToScene@@YAXPEAVcVAOManager@@I@Z@4HA DD imagerel ?dtor$178@?0??AddModelsToScene@@YAXPEAVcVAOManager@@I@Z@4HA
	DD	imagerel ?dtor$178@?0??AddModelsToScene@@YAXPEAVcVAOManager@@I@Z@4HA+29
	DD	imagerel $unwind$?dtor$178@?0??AddModelsToScene@@YAXPEAVcVAOManager@@I@Z@4HA
pdata	ENDS
;	COMDAT pdata
pdata	SEGMENT
$pdata$??0sLODInfo@sMesh@@QEAA@V?$basic_string@DU?$char_traits@D@std@@V?$allocator@D@2@@std@@MI@Z DD imagerel $LN125@sLODInfo
	DD	imagerel $LN125@sLODInfo+234
	DD	imagerel $unwind$??0sLODInfo@sMesh@@QEAA@V?$basic_string@DU?$char_traits@D@std@@V?$allocator@D@2@@std@@MI@Z
pdata	ENDS
;	COMDAT pdata
pdata	SEGMENT
$pdata$?_Xlen_string@std@@YAXXZ DD imagerel $LN4@Xlen_strin
	DD	imagerel $LN4@Xlen_strin+18
	DD	imagerel $unwind$?_Xlen_string@std@@YAXXZ
pdata	ENDS
;	COMDAT pdata
pdata	SEGMENT
$pdata$?_Adjust_manually_vector_aligned@std@@YAXAEAPEAXAEA_K@Z DD imagerel $LN13@Adjust_man
	DD	imagerel $LN13@Adjust_man+43
	DD	imagerel $unwind$?_Adjust_manually_vector_aligned@std@@YAXAEAPEAXAEA_K@Z
pdata	ENDS
;	COMDAT pdata
pdata	SEGMENT
$pdata$??0bad_alloc@std@@QEAA@AEBV01@@Z DD imagerel $LN9@bad_alloc
	DD	imagerel $LN9@bad_alloc+61
	DD	imagerel $unwind$??0bad_alloc@std@@QEAA@AEBV01@@Z
pdata	ENDS
;	COMDAT pdata
pdata	SEGMENT
$pdata$??0bad_array_new_length@std@@QEAA@AEBV01@@Z DD imagerel $LN14@bad_array_
	DD	imagerel $LN14@bad_array_+61
	DD	imagerel $unwind$??0bad_array_new_length@std@@QEAA@AEBV01@@Z
pdata	ENDS
;	COMDAT pdata
pdata	SEGMENT
$pdata$?_Throw_bad_array_new_length@std@@YAXXZ DD imagerel $LN4@Throw_bad_
	DD	imagerel $LN4@Throw_bad_+32
	DD	imagerel $unwind$?_Throw_bad_array_new_length@std@@YAXXZ
pdata	ENDS
;	COMDAT pdata
pdata	SEGMENT
$pdata$??_Gbad_array_new_length@std@@UEAAPEAXI@Z DD imagerel $LN22@scalar
	DD	imagerel $LN22@scalar+67
	DD	imagerel $unwind$??_Gbad_array_new_length@std@@UEAAPEAXI@Z
pdata	ENDS
;	COMDAT pdata
pdata	SEGMENT
$pdata$??_Gbad_alloc@std@@UEAAPEAXI@Z DD imagerel $LN17@scalar
	DD	imagerel $LN17@scalar+67
	DD	imagerel $unwind$??_Gbad_alloc@std@@UEAAPEAXI@Z
pdata	ENDS
;	COMDAT pdata
pdata	SEGMENT
$pdata$??_Gexception@std@@UEAAPEAXI@Z DD imagerel $LN12@scalar
	DD	imagerel $LN12@scalar+67
	DD	imagerel $unwind$??_Gexception@std@@UEAAPEAXI@Z
pdata	ENDS
;	COMDAT pdata
pdata	SEGMENT
$pdata$??0exception@std@@QEAA@AEBV01@@Z DD imagerel $LN6@exception
	DD	imagerel $LN6@exception+51
	DD	imagerel $unwind$??0exception@std@@QEAA@AEBV01@@Z
;	COMDAT __xmm@80000000800000008000000080000000
CONST	SEGMENT
__xmm@80000000800000008000000080000000 DB 00H, 00H, 00H, 080H, 00H, 00H, 00H
	DB	080H, 00H, 00H, 00H, 080H, 00H, 00H, 00H, 080H
CONST	ENDS
;	COMDAT __xmm@7e7fffff7e7fffff7e7ffffffe7fffff
CONST	SEGMENT
__xmm@7e7fffff7e7fffff7e7ffffffe7fffff DB 0ffH, 0ffH, 07fH, 0feH, 0ffH, 0ffH
	DB	07fH, '~', 0ffH, 0ffH, 07fH, '~', 0ffH, 0ffH, 07fH, '~'
CONST	ENDS
;	COMDAT __xmm@3f8000003f8000003f8000003f800000
CONST	SEGMENT
__xmm@3f8000003f8000003f8000003f800000 DB 00H, 00H, 080H, '?', 00H, 00H, 080H
	DB	'?', 00H, 00H, 080H, '?', 00H, 00H, 080H, '?'
CONST	ENDS
;	COMDAT __xmm@3f8000003f8000003f80000000000000
CONST	SEGMENT
__xmm@3f8000003f8000003f80000000000000 DB 00H, 00H, 00H, 00H, 00H, 00H, 080H
	DB	'?', 00H, 00H, 080H, '?', 00H, 00H, 080H, '?'
CONST	ENDS
;	COMDAT __xmm@3f8000003f19999a3f19999a3f19999a
CONST	SEGMENT
__xmm@3f8000003f19999a3f19999a3f19999a DB 09aH, 099H, 019H, '?', 09aH, 099H
	DB	019H, '?', 09aH, 099H, 019H, '?', 00H, 00H, 080H, '?'
CONST	ENDS
;	COMDAT __xmm@3f8000003e99999a0000000000000000
CONST	SEGMENT
__xmm@3f8000003e99999a0000000000000000 DB 00H, 00H, 00H, 00H, 00H, 00H, 00H
	DB	00H, 09aH, 099H, 099H, '>', 00H, 00H, 080H, '?'
CONST	ENDS
;	COMDAT __xmm@3f800000000000003e99999a3e99999a
CONST	SEGMENT
__xmm@3f800000000000003e99999a3e99999a DB 09aH, 099H, 099H, '>', 09aH, 099H
	DB	099H, '>', 00H, 00H, 00H, 00H, 00H, 00H, 080H, '?'
CONST	ENDS
;	COMDAT __xmm@3f800000000000003e99999a00000000
CONST	SEGMENT
__xmm@3f800000000000003e99999a00000000 DB 00H, 00H, 00H, 00H, 09aH, 099H, 099H
	DB	'>', 00H, 00H, 00H, 00H, 00H, 00H, 080H, '?'
CONST	ENDS
;	COMDAT __xmm@3f80000000000000000000003f800000
CONST	SEGMENT
__xmm@3f80000000000000000000003f800000 DB 00H, 00H, 080H, '?', 00H, 00H, 00H
	DB	00H, 00H, 00H, 00H, 00H, 00H, 00H, 080H, '?'
CONST	ENDS
;	COMDAT __xmm@3f80000000000000000000003e99999a
CONST	SEGMENT
__xmm@3f80000000000000000000003e99999a DB 09aH, 099H, 099H, '>', 00H, 00H
	DB	00H, 00H, 00H, 00H, 00H, 00H, 00H, 00H, 080H, '?'
CONST	ENDS
;	COMDAT __xmm@3f800000000000000000000000000000
CONST	SEGMENT
__xmm@3f800000000000000000000000000000 DB 00H, 00H, 00H, 00H, 00H, 00H, 00H
	DB	00H, 00H, 00H, 00H, 00H, 00H, 00H, 080H, '?'
CONST	ENDS
;	COMDAT __xmm@00000001000000010000000100000001
CONST	SEGMENT
__xmm@00000001000000010000000100000001 DB 01H, 00H, 00H, 00H, 01H, 00H, 00H
	DB	00H, 01H, 00H, 00H, 00H, 01H, 00H, 00H, 00H
CONST	ENDS
;	COMDAT __xmm@000000003f8000000000000000000000
CONST	SEGMENT
__xmm@000000003f8000000000000000000000 DB 00H, 00H, 00H, 00H, 00H, 00H, 00H
	DB	00H, 00H, 00H, 080H, '?', 00H, 00H, 00H, 00H
CONST	ENDS
;	COMDAT __xmm@00000000000000003f80000000000000
CONST	SEGMENT
__xmm@00000000000000003f80000000000000 DB 00H, 00H, 00H, 00H, 00H, 00H, 080H
	DB	'?', 00H, 00H, 00H, 00H, 00H, 00H, 00H, 00H
CONST	ENDS
;	COMDAT __xmm@0000000000000000000000003f800000
CONST	SEGMENT
__xmm@0000000000000000000000003f800000 DB 00H, 00H, 080H, '?', 00H, 00H, 00H
	DB	00H, 00H, 00H, 00H, 00H, 00H, 00H, 00H, 00H
CONST	ENDS
;	COMDAT __real@c3fa0000
CONST	SEGMENT
__real@c3fa0000 DD 0c3fa0000r			; -500
CONST	ENDS
;	COMDAT __real@c3340000
CONST	SEGMENT
__real@c3340000 DD 0c3340000r			; -180
CONST	ENDS
;	COMDAT __real@c32f0000
CONST	SEGMENT
__real@c32f0000 DD 0c32f0000r			; -175
CONST	ENDS
;	COMDAT __real@c2960000
CONST	SEGMENT
__real@c2960000 DD 0c2960000r			; -75
CONST	ENDS
;	COMDAT __real@c2700000
CONST	SEGMENT
__real@c2700000 DD 0c2700000r			; -60
CONST	ENDS
;	COMDAT __real@c25c0000
CONST	SEGMENT
__real@c25c0000 DD 0c25c0000r			; -55
CONST	ENDS
;	COMDAT __real@c24a0000
CONST	SEGMENT
__real@c24a0000 DD 0c24a0000r			; -50.5
CONST	ENDS
;	COMDAT __real@c2480000
CONST	SEGMENT
__real@c2480000 DD 0c2480000r			; -50
CONST	ENDS
;	COMDAT __real@c2400000
CONST	SEGMENT
__real@c2400000 DD 0c2400000r			; -48
CONST	ENDS
;	COMDAT __real@c1f00000
CONST	SEGMENT
__real@c1f00000 DD 0c1f00000r			; -30
CONST	ENDS
;	COMDAT __real@c1a80000
CONST	SEGMENT
__real@c1a80000 DD 0c1a80000r			; -21
CONST	ENDS
;	COMDAT __real@c1700000
CONST	SEGMENT
__real@c1700000 DD 0c1700000r			; -15
CONST	ENDS
;	COMDAT __real@c13c0000
CONST	SEGMENT
__real@c13c0000 DD 0c13c0000r			; -11.75
CONST	ENDS
;	COMDAT __real@c1280000
CONST	SEGMENT
__real@c1280000 DD 0c1280000r			; -10.5
CONST	ENDS
;	COMDAT __real@c127d70a
CONST	SEGMENT
__real@c127d70a DD 0c127d70ar			; -10.49
CONST	ENDS
;	COMDAT __real@c0500000
CONST	SEGMENT
__real@c0500000 DD 0c0500000r			; -3.25
CONST	ENDS
;	COMDAT __real@c0000000
CONST	SEGMENT
__real@c0000000 DD 0c0000000r			; -2
CONST	ENDS
;	COMDAT __real@bfc6d3f2
CONST	SEGMENT
__real@bfc6d3f2 DD 0bfc6d3f2r			; -1.55334
CONST	ENDS
;	COMDAT __real@bfa00000
CONST	SEGMENT
__real@bfa00000 DD 0bfa00000r			; -1.25
CONST	ENDS
;	COMDAT __real@bf800000
CONST	SEGMENT
__real@bf800000 DD 0bf800000r			; -1
CONST	ENDS
;	COMDAT __real@bef14639
CONST	SEGMENT
__real@bef14639 DD 0bef14639r			; -0.471239
CONST	ENDS
;	COMDAT __real@be19999a
CONST	SEGMENT
__real@be19999a DD 0be19999ar			; -0.15
CONST	ENDS
;	COMDAT __real@bdcccccd
CONST	SEGMENT
__real@bdcccccd DD 0bdcccccdr			; -0.1
CONST	ENDS
;	COMDAT __real@bdc8e8a7
CONST	SEGMENT
__real@bdc8e8a7 DD 0bdc8e8a7r			; -0.0981
CONST	ENDS
;	COMDAT __real@bdb2b8c2
CONST	SEGMENT
__real@bdb2b8c2 DD 0bdb2b8c2r			; -0.0872665
CONST	ENDS
;	COMDAT __real@bd4ccccd
CONST	SEGMENT
__real@bd4ccccd DD 0bd4ccccdr			; -0.05
CONST	ENDS
;	COMDAT __real@b4000000
CONST	SEGMENT
__real@b4000000 DD 0b4000000r			; -1.19209e-07
CONST	ENDS
;	COMDAT __real@7f7fffff
CONST	SEGMENT
__real@7f7fffff DD 07f7fffffr			; 3.40282e+38
CONST	ENDS
;	COMDAT __real@47435000
CONST	SEGMENT
__real@47435000 DD 047435000r			; 50000
CONST	ENDS
;	COMDAT __real@46fffe00
CONST	SEGMENT
__real@46fffe00 DD 046fffe00r			; 32767
CONST	ENDS
;	COMDAT __real@461c4000
CONST	SEGMENT
__real@461c4000 DD 0461c4000r			; 10000
CONST	ENDS
;	COMDAT __real@44fa0000
CONST	SEGMENT
__real@44fa0000 DD 044fa0000r			; 2000
CONST	ENDS
;	COMDAT __real@43fa0000
CONST	SEGMENT
__real@43fa0000 DD 043fa0000r			; 500
CONST	ENDS
;	COMDAT __real@43b40000
CONST	SEGMENT
__real@43b40000 DD 043b40000r			; 360
CONST	ENDS
;	COMDAT __real@43480000
CONST	SEGMENT
__real@43480000 DD 043480000r			; 200
CONST	ENDS
;	COMDAT __real@42b40000
CONST	SEGMENT
__real@42b40000 DD 042b40000r			; 90
CONST	ENDS
;	COMDAT __real@42700000
CONST	SEGMENT
__real@42700000 DD 042700000r			; 60
CONST	ENDS
;	COMDAT __real@42652ee1
CONST	SEGMENT
__real@42652ee1 DD 042652ee1r			; 57.2958
CONST	ENDS
;	COMDAT __real@42480000
CONST	SEGMENT
__real@42480000 DD 042480000r			; 50
CONST	ENDS
;	COMDAT __real@41f00000
CONST	SEGMENT
__real@41f00000 DD 041f00000r			; 30
CONST	ENDS
;	COMDAT __real@41a00000
CONST	SEGMENT
__real@41a00000 DD 041a00000r			; 20
CONST	ENDS
;	COMDAT __real@41700000
CONST	SEGMENT
__real@41700000 DD 041700000r			; 15
CONST	ENDS
;	COMDAT __real@415c0000
CONST	SEGMENT
__real@415c0000 DD 0415c0000r			; 13.75
CONST	ENDS
;	COMDAT __real@41580000
CONST	SEGMENT
__real@41580000 DD 041580000r			; 13.5
CONST	ENDS
;	COMDAT __real@41400000
CONST	SEGMENT
__real@41400000 DD 041400000r			; 12
CONST	ENDS
;	COMDAT __real@41200000
CONST	SEGMENT
__real@41200000 DD 041200000r			; 10
CONST	ENDS
;	COMDAT __real@41000000
CONST	SEGMENT
__real@41000000 DD 041000000r			; 8
CONST	ENDS
;	COMDAT __real@40f00000
CONST	SEGMENT
__real@40f00000 DD 040f00000r			; 7.5
CONST	ENDS
;	COMDAT __real@40e00000
CONST	SEGMENT
__real@40e00000 DD 040e00000r			; 7
CONST	ENDS
;	COMDAT __real@40c00000
CONST	SEGMENT
__real@40c00000 DD 040c00000r			; 6
CONST	ENDS
;	COMDAT __real@40b80000
CONST	SEGMENT
__real@40b80000 DD 040b80000r			; 5.75
CONST	ENDS
;	COMDAT __real@40b00000
CONST	SEGMENT
__real@40b00000 DD 040b00000r			; 5.5
CONST	ENDS
;	COMDAT __real@40a00000
CONST	SEGMENT
__real@40a00000 DD 040a00000r			; 5
CONST	ENDS
;	COMDAT __real@40900000
CONST	SEGMENT
__real@40900000 DD 040900000r			; 4.5
CONST	ENDS
;	COMDAT __real@408f400000000000
CONST	SEGMENT
__real@408f400000000000 DQ 0408f400000000000r	; 1000
CONST	ENDS
;	COMDAT __real@40833333
CONST	SEGMENT
__real@40833333 DD 040833333r			; 4.1
CONST	ENDS
;	COMDAT __real@4059000000000000
CONST	SEGMENT
__real@4059000000000000 DQ 04059000000000000r	; 100
CONST	ENDS
;	COMDAT __real@404a800000000000
CONST	SEGMENT
__real@404a800000000000 DQ 0404a800000000000r	; 53
CONST	ENDS
;	COMDAT __real@40400000
CONST	SEGMENT
__real@40400000 DD 040400000r			; 3
CONST	ENDS
;	COMDAT __real@403a000000000000
CONST	SEGMENT
__real@403a000000000000 DQ 0403a000000000000r	; 26
CONST	ENDS
;	COMDAT __real@4039000000000000
CONST	SEGMENT
__real@4039000000000000 DQ 04039000000000000r	; 25
CONST	ENDS
;	COMDAT __real@4030000000000000
CONST	SEGMENT
__real@4030000000000000 DQ 04030000000000000r	; 16
CONST	ENDS
;	COMDAT __real@4028000000000000
CONST	SEGMENT
__real@4028000000000000 DQ 04028000000000000r	; 12
CONST	ENDS
;	COMDAT __real@40200000
CONST	SEGMENT
__real@40200000 DD 040200000r			; 2.5
CONST	ENDS
;	COMDAT __real@40000000
CONST	SEGMENT
__real@40000000 DD 040000000r			; 2
CONST	ENDS
;	COMDAT __real@3ff0000000000000
CONST	SEGMENT
__real@3ff0000000000000 DQ 03ff0000000000000r	; 1
CONST	ENDS
;	COMDAT __real@3fe0000000000000
CONST	SEGMENT
__real@3fe0000000000000 DQ 03fe0000000000000r	; 0.5
CONST	ENDS
;	COMDAT __real@3fc999999999999a
CONST	SEGMENT
__real@3fc999999999999a DQ 03fc999999999999ar	; 0.2
CONST	ENDS
;	COMDAT __real@3fc6d3f2
CONST	SEGMENT
__real@3fc6d3f2 DD 03fc6d3f2r			; 1.55334
CONST	ENDS
;	COMDAT __real@3fc00000
CONST	SEGMENT
__real@3fc00000 DD 03fc00000r			; 1.5
CONST	ENDS
;	COMDAT __real@3fa00000
CONST	SEGMENT
__real@3fa00000 DD 03fa00000r			; 1.25
CONST	ENDS
;	COMDAT __real@3f91111111111111
CONST	SEGMENT
__real@3f91111111111111 DQ 03f91111111111111r	; 0.0166667
CONST	ENDS
;	COMDAT __real@3f8147ae
CONST	SEGMENT
__real@3f8147ae DD 03f8147aer			; 1.01
CONST	ENDS
;	COMDAT __real@3f800000
CONST	SEGMENT
__real@3f800000 DD 03f800000r			; 1
CONST	ENDS
;	COMDAT __real@3f7d70a4
CONST	SEGMENT
__real@3f7d70a4 DD 03f7d70a4r			; 0.99
CONST	ENDS
;	COMDAT __real@3f60624dd2f1a9fc
CONST	SEGMENT
__real@3f60624dd2f1a9fc DQ 03f60624dd2f1a9fcr	; 0.002
CONST	ENDS
;	COMDAT __real@3f4ccccd
CONST	SEGMENT
__real@3f4ccccd DD 03f4ccccdr			; 0.8
CONST	ENDS
;	COMDAT __real@3f48c8c9
CONST	SEGMENT
__real@3f48c8c9 DD 03f48c8c9r			; 0.784314
CONST	ENDS
;	COMDAT __real@3f400000
CONST	SEGMENT
__real@3f400000 DD 03f400000r			; 0.75
CONST	ENDS
;	COMDAT __real@3f19999a
CONST	SEGMENT
__real@3f19999a DD 03f19999ar			; 0.6
CONST	ENDS
;	COMDAT __real@3f169697
CONST	SEGMENT
__real@3f169697 DD 03f169697r			; 0.588235
CONST	ENDS
;	COMDAT __real@3f000000
CONST	SEGMENT
__real@3f000000 DD 03f000000r			; 0.5
CONST	ENDS
;	COMDAT __real@3ef14639
CONST	SEGMENT
__real@3ef14639 DD 03ef14639r			; 0.471239
CONST	ENDS
;	COMDAT __real@3ecccccd
CONST	SEGMENT
__real@3ecccccd DD 03ecccccdr			; 0.4
CONST	ENDS
;	COMDAT __real@3ec8c8c9
CONST	SEGMENT
__real@3ec8c8c9 DD 03ec8c8c9r			; 0.392157
CONST	ENDS
;	COMDAT __real@3eb33333
CONST	SEGMENT
__real@3eb33333 DD 03eb33333r			; 0.35
CONST	ENDS
;	COMDAT __real@3e99999a
CONST	SEGMENT
__real@3e99999a DD 03e99999ar			; 0.3
CONST	ENDS
;	COMDAT __real@3e800000
CONST	SEGMENT
__real@3e800000 DD 03e800000r			; 0.25
CONST	ENDS
;	COMDAT __real@3e4ccccd
CONST	SEGMENT
__real@3e4ccccd DD 03e4ccccdr			; 0.2
CONST	ENDS
;	COMDAT __real@3e48c8c9
CONST	SEGMENT
__real@3e48c8c9 DD 03e48c8c9r			; 0.196078
CONST	ENDS
;	COMDAT __real@3e20a0a1
CONST	SEGMENT
__real@3e20a0a1 DD 03e20a0a1r			; 0.156863
CONST	ENDS
;	COMDAT __real@3dcccccd
CONST	SEGMENT
__real@3dcccccd DD 03dcccccdr			; 0.1
CONST	ENDS
;	COMDAT __real@3db2b8c2
CONST	SEGMENT
__real@3db2b8c2 DD 03db2b8c2r			; 0.0872665
CONST	ENDS
;	COMDAT __real@3d4ccccd
CONST	SEGMENT
__real@3d4ccccd DD 03d4ccccdr			; 0.05
CONST	ENDS
;	COMDAT __real@3d23d70a
CONST	SEGMENT
__real@3d23d70a DD 03d23d70ar			; 0.04
CONST	ENDS
;	COMDAT __real@3ccccccd
CONST	SEGMENT
__real@3ccccccd DD 03ccccccdr			; 0.025
CONST	ENDS
;	COMDAT __real@3c8efa35
CONST	SEGMENT
__real@3c8efa35 DD 03c8efa35r			; 0.0174533
CONST	ENDS
;	COMDAT __real@3c888889
CONST	SEGMENT
__real@3c888889 DD 03c888889r			; 0.0166667
CONST	ENDS
;	COMDAT __real@3c23d70a
CONST	SEGMENT
__real@3c23d70a DD 03c23d70ar			; 0.01
CONST	ENDS
;	COMDAT __real@38d1b717
CONST	SEGMENT
__real@38d1b717 DD 038d1b717r			; 0.0001
CONST	ENDS
;	COMDAT __real@34000000
CONST	SEGMENT
__real@34000000 DD 034000000r			; 1.19209e-07
CONST	ENDS
;	COMDAT xdata
xdata	SEGMENT
$unwind$??0exception@std@@QEAA@AEBV01@@Z DQ 03002320600020601r ; 1.96423e-77
xdata	ENDS
;	COMDAT xdata
xdata	SEGMENT
$unwind$??_Gexception@std@@UEAAPEAXI@Z DQ 00006340a00040a01r ; 8.62672e-309
	DD	07006320aH
xdata	ENDS
;	COMDAT xdata
xdata	SEGMENT
$unwind$??_Gbad_alloc@std@@UEAAPEAXI@Z DQ 00006340a00040a01r ; 8.62672e-309
	DD	07006320aH
xdata	ENDS
;	COMDAT xdata
xdata	SEGMENT
$unwind$??_Gbad_array_new_length@std@@UEAAPEAXI@Z DQ 00006340a00040a01r ; 8.62672e-309
	DD	07006320aH
xdata	ENDS
;	COMDAT xdata
xdata	SEGMENT
$unwind$?_Throw_bad_array_new_length@std@@YAXXZ DQ 00000820400010401r ; 7.06285e-310
xdata	ENDS
;	COMDAT xdata
xdata	SEGMENT
$unwind$??0bad_array_new_length@std@@QEAA@AEBV01@@Z DQ 03002320600020601r ; 1.96423e-77
xdata	ENDS
;	COMDAT xdata
xdata	SEGMENT
$unwind$??0bad_alloc@std@@QEAA@AEBV01@@Z DQ 03002320600020601r ; 1.96423e-77
xdata	ENDS
;	COMDAT xdata
xdata	SEGMENT
$unwind$?_Adjust_manually_vector_aligned@std@@YAXAEAPEAXAEA_K@Z DQ 00000420400010401r ; 3.58617e-310
xdata	ENDS
;	COMDAT xdata
xdata	SEGMENT
$unwind$?_Xlen_string@std@@YAXXZ DQ 00000420400010401r ; 3.58617e-310
xdata	ENDS
;	COMDAT xdata
xdata	SEGMENT
$ip2state$??0sLODInfo@sMesh@@QEAA@V?$basic_string@DU?$char_traits@D@std@@V?$allocator@D@2@@std@@MI@Z DD 0c204d004H
	DB	00H
xdata	ENDS
;	COMDAT xdata
xdata	SEGMENT
$stateUnwindMap$??0sLODInfo@sMesh@@QEAA@V?$basic_string@DU?$char_traits@D@std@@V?$allocator@D@2@@std@@MI@Z DW 0c04H
	DD	imagerel ??1?$basic_string@DU?$char_traits@D@std@@V?$allocator@D@2@@std@@QEAA@XZ
	DW	03450H
	DD	imagerel ??1?$basic_string@DU?$char_traits@D@std@@V?$allocator@D@2@@std@@QEAA@XZ
	DB	040H
xdata	ENDS
;	COMDAT xdata
xdata	SEGMENT
$cppxdata$??0sLODInfo@sMesh@@QEAA@V?$basic_string@DU?$char_traits@D@std@@V?$allocator@D@2@@std@@MI@Z DB 028H
	DD	imagerel $stateUnwindMap$??0sLODInfo@sMesh@@QEAA@V?$basic_string@DU?$char_traits@D@std@@V?$allocator@D@2@@std@@MI@Z
	DD	imagerel $ip2state$??0sLODInfo@sMesh@@QEAA@V?$basic_string@DU?$char_traits@D@std@@V?$allocator@D@2@@std@@MI@Z
xdata	ENDS
;	COMDAT xdata
xdata	SEGMENT
$unwind$??0sLODInfo@sMesh@@QEAA@V?$basic_string@DU?$char_traits@D@std@@V?$allocator@D@2@@std@@MI@Z DQ 00004681400082319r ; 6.12807e-309
	DQ	0000e340f000f640fr		; 1.97522e-308
	DD	0700b920fH
	DD	imagerel __GSHandlerCheck_EH4
	DD	imagerel $cppxdata$??0sLODInfo@sMesh@@QEAA@V?$basic_string@DU?$char_traits@D@std@@V?$allocator@D@2@@std@@MI@Z
	DD	032H
xdata	ENDS
;	COMDAT xdata
xdata	SEGMENT
$unwind$?dtor$178@?0??AddModelsToScene@@YAXPEAVcVAOManager@@I@Z@4HA DD 020601H
	DD	050023206H
xdata	ENDS
;	COMDAT xdata
xdata	SEGMENT
$unwind$?dtor$177@?0??AddModelsToScene@@YAXPEAVcVAOManager@@I@Z@4HA DD 020601H
	DD	050023206H
xdata	ENDS
;	COMDAT xdata
xdata	SEGMENT
$unwind$?dtor$176@?0??AddModelsToScene@@YAXPEAVcVAOManager@@I@Z@4HA DD 020601H
	DD	050023206H
xdata	ENDS
;	COMDAT xdata
xdata	SEGMENT
$unwind$?dtor$175@?0??AddModelsToScene@@YAXPEAVcVAOManager@@I@Z@4HA DD 020601H
	DD	050023206H
xdata	ENDS
;	COMDAT xdata
xdata	SEGMENT
$unwind$?dtor$174@?0??AddModelsToScene@@YAXPEAVcVAOManager@@I@Z@4HA DD 020601H
	DD	050023206H
xdata	ENDS
;	COMDAT xdata
xdata	SEGMENT
$unwind$?dtor$173@?0??AddModelsToScene@@YAXPEAVcVAOManager@@I@Z@4HA DD 020601H
	DD	050023206H
xdata	ENDS
;	COMDAT xdata
xdata	SEGMENT
$unwind$?dtor$172@?0??AddModelsToScene@@YAXPEAVcVAOManager@@I@Z@4HA DD 020601H
	DD	050023206H
xdata	ENDS
;	COMDAT xdata
xdata	SEGMENT
$unwind$?dtor$170@?0??AddModelsToScene@@YAXPEAVcVAOManager@@I@Z@4HA DD 020601H
	DD	050023206H
xdata	ENDS
;	COMDAT xdata
xdata	SEGMENT
$unwind$?dtor$168@?0??AddModelsToScene@@YAXPEAVcVAOManager@@I@Z@4HA DD 020601H
	DD	050023206H
xdata	ENDS
;	COMDAT xdata
xdata	SEGMENT
$unwind$?dtor$166@?0??AddModelsToScene@@YAXPEAVcVAOManager@@I@Z@4HA DD 020601H
	DD	050023206H
xdata	ENDS
;	COMDAT xdata
xdata	SEGMENT
$unwind$?dtor$164@?0??AddModelsToScene@@YAXPEAVcVAOManager@@I@Z@4HA DD 020601H
	DD	050023206H
xdata	ENDS
;	COMDAT xdata
xdata	SEGMENT
$unwind$?dtor$159@?0??AddModelsToScene@@YAXPEAVcVAOManager@@I@Z@4HA DD 020601H
	DD	050023206H
xdata	ENDS
;	COMDAT xdata
xdata	SEGMENT
$unwind$?dtor$158@?0??AddModelsToScene@@YAXPEAVcVAOManager@@I@Z@4HA DD 020601H
	DD	050023206H
xdata	ENDS
;	COMDAT xdata
xdata	SEGMENT
$unwind$?dtor$157@?0??AddModelsToScene@@YAXPEAVcVAOManager@@I@Z@4HA DD 020601H
	DD	050023206H
xdata	ENDS
;	COMDAT xdata
xdata	SEGMENT
$unwind$?dtor$156@?0??AddModelsToScene@@YAXPEAVcVAOManager@@I@Z@4HA DD 020601H
	DD	050023206H
xdata	ENDS
;	COMDAT xdata
xdata	SEGMENT
$unwind$?dtor$155@?0??AddModelsToScene@@YAXPEAVcVAOManager@@I@Z@4HA DD 020601H
	DD	050023206H
xdata	ENDS
;	COMDAT xdata
xdata	SEGMENT
$unwind$?dtor$154@?0??AddModelsToScene@@YAXPEAVcVAOManager@@I@Z@4HA DD 020601H
	DD	050023206H
xdata	ENDS
;	COMDAT xdata
xdata	SEGMENT
$unwind$?dtor$153@?0??AddModelsToScene@@YAXPEAVcVAOManager@@I@Z@4HA DD 020601H
	DD	050023206H
xdata	ENDS
;	COMDAT xdata
xdata	SEGMENT
$unwind$?dtor$152@?0??AddModelsToScene@@YAXPEAVcVAOManager@@I@Z@4HA DD 020601H
	DD	050023206H
xdata	ENDS
;	COMDAT xdata
xdata	SEGMENT
$unwind$?dtor$151@?0??AddModelsToScene@@YAXPEAVcVAOManager@@I@Z@4HA DD 020601H
	DD	050023206H
xdata	ENDS
;	COMDAT xdata
xdata	SEGMENT
$unwind$?dtor$150@?0??AddModelsToScene@@YAXPEAVcVAOManager@@I@Z@4HA DD 020601H
	DD	050023206H
xdata	ENDS
;	COMDAT xdata
xdata	SEGMENT
$unwind$?dtor$131@?0??AddModelsToScene@@YAXPEAVcVAOManager@@I@Z@4HA DD 020601H
	DD	050023206H
xdata	ENDS
;	COMDAT xdata
xdata	SEGMENT
$unwind$?dtor$128@?0??AddModelsToScene@@YAXPEAVcVAOManager@@I@Z@4HA DD 020601H
	DD	050023206H
xdata	ENDS
;	COMDAT xdata
xdata	SEGMENT
$unwind$?dtor$125@?0??AddModelsToScene@@YAXPEAVcVAOManager@@I@Z@4HA DD 020601H
	DD	050023206H
xdata	ENDS
;	COMDAT xdata
xdata	SEGMENT
$unwind$?dtor$119@?0??AddModelsToScene@@YAXPEAVcVAOManager@@I@Z@4HA DD 020601H
	DD	050023206H
xdata	ENDS
;	COMDAT xdata
xdata	SEGMENT
$unwind$?dtor$113@?0??AddModelsToScene@@YAXPEAVcVAOManager@@I@Z@4HA DD 020601H
	DD	050023206H
xdata	ENDS
;	COMDAT xdata
xdata	SEGMENT
$unwind$?dtor$108@?0??AddModelsToScene@@YAXPEAVcVAOManager@@I@Z@4HA DD 020601H
	DD	050023206H
xdata	ENDS
;	COMDAT xdata
xdata	SEGMENT
$unwind$?dtor$101@?0??AddModelsToScene@@YAXPEAVcVAOManager@@I@Z@4HA DD 020601H
	DD	050023206H
xdata	ENDS
;	COMDAT xdata
xdata	SEGMENT
$unwind$?dtor$95@?0??AddModelsToScene@@YAXPEAVcVAOManager@@I@Z@4HA DD 020601H
	DD	050023206H
xdata	ENDS
;	COMDAT xdata
xdata	SEGMENT
$unwind$?dtor$87@?0??AddModelsToScene@@YAXPEAVcVAOManager@@I@Z@4HA DD 020601H
	DD	050023206H
xdata	ENDS
;	COMDAT xdata
xdata	SEGMENT
$unwind$?dtor$82@?0??AddModelsToScene@@YAXPEAVcVAOManager@@I@Z@4HA DD 020601H
	DD	050023206H
xdata	ENDS
;	COMDAT xdata
xdata	SEGMENT
$unwind$?dtor$76@?0??AddModelsToScene@@YAXPEAVcVAOManager@@I@Z@4HA DD 020601H
	DD	050023206H
xdata	ENDS
;	COMDAT xdata
xdata	SEGMENT
$unwind$?dtor$72@?0??AddModelsToScene@@YAXPEAVcVAOManager@@I@Z@4HA DD 020601H
	DD	050023206H
xdata	ENDS
;	COMDAT xdata
xdata	SEGMENT
$unwind$?dtor$61@?0??AddModelsToScene@@YAXPEAVcVAOManager@@I@Z@4HA DD 020601H
	DD	050023206H
xdata	ENDS
;	COMDAT xdata
xdata	SEGMENT
$unwind$?dtor$60@?0??AddModelsToScene@@YAXPEAVcVAOManager@@I@Z@4HA DD 020601H
	DD	050023206H
xdata	ENDS
;	COMDAT xdata
xdata	SEGMENT
$unwind$?dtor$55@?0??AddModelsToScene@@YAXPEAVcVAOManager@@I@Z@4HA DD 020601H
	DD	050023206H
xdata	ENDS
;	COMDAT xdata
xdata	SEGMENT
$unwind$?dtor$51@?0??AddModelsToScene@@YAXPEAVcVAOManager@@I@Z@4HA DD 020601H
	DD	050023206H
xdata	ENDS
;	COMDAT xdata
xdata	SEGMENT
$unwind$?dtor$45@?0??AddModelsToScene@@YAXPEAVcVAOManager@@I@Z@4HA DD 020601H
	DD	050023206H
xdata	ENDS
;	COMDAT xdata
xdata	SEGMENT
$unwind$?dtor$41@?0??AddModelsToScene@@YAXPEAVcVAOManager@@I@Z@4HA DD 020601H
	DD	050023206H
xdata	ENDS
;	COMDAT xdata
xdata	SEGMENT
$unwind$?dtor$30@?0??AddModelsToScene@@YAXPEAVcVAOManager@@I@Z@4HA DD 020601H
	DD	050023206H
xdata	ENDS
;	COMDAT xdata
xdata	SEGMENT
$unwind$?dtor$29@?0??AddModelsToScene@@YAXPEAVcVAOManager@@I@Z@4HA DD 020601H
	DD	050023206H
xdata	ENDS
;	COMDAT xdata
xdata	SEGMENT
$unwind$?dtor$26@?0??AddModelsToScene@@YAXPEAVcVAOManager@@I@Z@4HA DD 020601H
	DD	050023206H
xdata	ENDS
;	COMDAT xdata
xdata	SEGMENT
$unwind$?dtor$19@?0??AddModelsToScene@@YAXPEAVcVAOManager@@I@Z@4HA DD 020601H
	DD	050023206H
xdata	ENDS
;	COMDAT xdata
xdata	SEGMENT
$unwind$?dtor$13@?0??AddModelsToScene@@YAXPEAVcVAOManager@@I@Z@4HA DD 020601H
	DD	050023206H
xdata	ENDS
;	COMDAT xdata
xdata	SEGMENT
$unwind$?dtor$5@?0??AddModelsToScene@@YAXPEAVcVAOManager@@I@Z@4HA DD 020601H
	DD	050023206H
xdata	ENDS
;	COMDAT xdata
xdata	SEGMENT
$unwind$?dtor$0@?0??AddModelsToScene@@YAXPEAVcVAOManager@@I@Z@4HA DD 020601H
	DD	050023206H
xdata	ENDS
;	COMDAT xdata
xdata	SEGMENT
$ip2state$?AddModelsToScene@@YAXPEAVcVAOManager@@I@Z DB 099H, 03H
	DB	0ecH
	DB	00H
	DB	'$'
	DB	02H
	DB	'b'
	DB	00H
	DB	0e5H, 02H
	DB	04H
	DB	016H
	DB	00H
	DB	0e0H
	DB	06H
	DB	0ceH
	DB	00H
	DB	'q', 02H
	DB	08H
	DB	' '
	DB	00H
	DB	0a9H, 02H
	DB	06H
	DB	0ceH
	DB	00H
	DB	'6'
	DB	0aH
	DB	016H
	DB	00H
	DB	'A', 02H
	DB	08H
	DB	018H
	DB	00H
	DB	0a1H, 02H
	DB	06H
	DB	0ceH
	DB	00H
	DB	'6'
	DB	0cH
	DB	016H
	DB	00H
	DB	'1', 02H
	DB	08H
	DB	018H
	DB	00H
	DB	'i', 03H
	DB	06H
	DB	0ceH
	DB	00H
	DB	'6'
	DB	0eH
	DB	016H
	DB	00H
	DB	'Y', 03H
	DB	010H
	DB	016H
	DB	00H
	DB	'&'
	DB	012H
	DB	016H
	DB	00H
	DB	0eaH
	DB	06H
	DB	0ceH
	DB	00H
	DB	0c5H, 02H
	DB	08H
	DB	'"'
	DB	00H
	DB	0e0H
	DB	06H
	DB	0baH
	DB	00H
	DB	'}', 02H
	DB	08H
	DB	'*'
	DB	00H
	DB	0d5H, 02H
	DB	06H
	DB	0ceH
	DB	00H
	DB	'@'
	DB	014H
	DB	016H
	DB	00H
	DB	'M', 02H
	DB	08H
	DB	' '
	DB	00H
	DB	0ceH
	DB	06H
	DB	0baH
	DB	00H
	DB	'6'
	DB	016H
	DB	016H
	DB	00H
	DB	'M', 02H
	DB	08H
	DB	018H
	DB	00H
	DB	0c9H, 02H
	DB	06H
	DB	0ceH
	DB	00H
	DB	'@'
	DB	018H
	DB	016H
	DB	00H
	DB	'M', 02H
	DB	08H
	DB	018H
	DB	00H
	DB	0d2H
	DB	06H
	DB	0baH
	DB	00H
	DB	'6'
	DB	01aH
	DB	016H
	DB	00H
	DB	'M', 02H
	DB	08H
	DB	018H
	DB	00H
	DB	'5', 02H
	DB	01cH
	DB	016H
	DB	00H
	DB	'&'
	DB	01eH
	DB	016H
	DB	00H
	DB	0e4H
	DB	06H
	DB	0ceH
	DB	00H
	DB	0c5H, 02H
	DB	08H
	DB	'"'
	DB	00H
	DB	0daH
	DB	06H
	DB	0baH
	DB	00H
	DB	0faH
	DB	08H
	DB	'$'
	DB	00H
	DB	0f1H, 02H
	DB	06H
	DB	0ceH
	DB	00H
	DB	'6'
	DB	' '
	DB	016H
	DB	00H
	DB	']', 02H
	DB	08H
	DB	' '
	DB	00H
	DB	0ceH
	DB	06H
	DB	0baH
	DB	00H
	DB	'6'
	DB	'"'
	DB	016H
	DB	00H
	DB	0e8H
	DB	08H
	DB	01cH
	DB	00H
	DB	0fdH, 02H
	DB	06H
	DB	0ceH
	DB	00H
	DB	'6'
	DB	'$'
	DB	016H
	DB	00H
	DB	'M', 02H
	DB	08H
	DB	018H
	DB	00H
	DB	011H, 02H
	DB	'&'
	DB	016H
	DB	00H
	DB	0e8H
	DB	06H
	DB	0ceH
	DB	00H
	DB	091H, 02H
	DB	08H
	DB	' '
	DB	00H
	DB	0a1H, 02H
	DB	06H
	DB	0ceH
	DB	00H
	DB	'6'
	DB	'('
	DB	016H
	DB	00H
	DB	'-', 02H
	DB	08H
	DB	018H
	DB	00H
	DB	0a5H, 02H
	DB	06H
	DB	0ceH
	DB	00H
	DB	'6'
	DB	'*'
	DB	016H
	DB	00H
	DB	'-', 02H
	DB	08H
	DB	018H
	DB	00H
	DB	'q', 03H
	DB	06H
	DB	0ceH
	DB	00H
	DB	'6'
	DB	','
	DB	016H
	DB	00H
	DB	0dH, 05H
	DB	06H
	DB	0ceH
	DB	00H
	DB	'6'
	DB	'.'
	DB	016H
	DB	00H
	DB	0c5H, 02H
	DB	08H
	DB	' '
	DB	00H
	DB	0c9H, 02H
	DB	06H
	DB	0ceH
	DB	00H
	DB	'6'
	DB	'0'
	DB	016H
	DB	00H
	DB	'E', 02H
	DB	08H
	DB	018H
	DB	00H
	DB	0a1H, 02H
	DB	06H
	DB	0ceH
	DB	00H
	DB	'6'
	DB	'2'
	DB	016H
	DB	00H
	DB	'5', 02H
	DB	08H
	DB	018H
	DB	00H
	DB	'R'
	DB	'4'
	DB	016H
	DB	00H
	DB	0c1H, 02H
	DB	'6'
	DB	'r'
	DB	'8'
	DB	016H
	DB	'6'
	DB	0e9H, 02H
	DB	':'
	DB	'6'
	DB	'<'
	DB	' '
	DB	':'
	DB	'H'
	DB	'<'
	DB	' '
	DB	':'
	DB	':'
	DB	'<'
	DB	' '
	DB	':'
	DB	'>'
	DB	'<'
	DB	'd'
	DB	':'
	DB	'Z'
	DB	'>'
	DB	0deH
	DB	'@'
	DB	0c9H, 02H
	DB	'B'
	DB	' '
	DB	'D'
	DB	':'
	DB	'B'
	DB	'1', 04H
	DB	'F'
	DB	0a6H
	DB	'H'
	DB	098H
	DB	'F'
	DB	'|'
	DB	'H'
	DB	098H
	DB	'F'
	DB	'|'
	DB	'H'
	DB	098H
	DB	'F'
	DB	'|'
	DB	'H'
	DB	098H
	DB	'F'
	DB	08aH
	DB	'H'
	DB	'H'
	DB	'F'
	DB	0a0H
	DB	'H'
	DB	0b2H
	DB	'F'
	DB	01aH
	DB	'H'
	DB	'4'
	DB	'F'
	DB	'|'
	DB	'H'
	DB	098H
	DB	'F'
	DB	'|'
	DB	'H'
	DB	0b0H
	DB	'F'
	DB	'5', 03H
	DB	'J'
	DB	0a1H, 02H
	DB	'N'
	DB	' '
	DB	'P'
	DB	':'
	DB	'N'
	DB	'U', 04H
	DB	'F'
	DB	'p'
	DB	'H'
	DB	'l'
	DB	'F'
	DB	'B'
	DB	'R'
	DB	016H
	DB	'F'
	DB	'Y', 02H
	DB	'T'
	DB	016H
	DB	'F'
	DB	0c8H
	DB	'V'
	DB	016H
	DB	'F'
	DB	0baH
	DB	'X'
	DB	016H
	DB	'F'
	DB	'}', 04H
	DB	'Z'
	DB	016H
	DB	'F'
	DB	0c1H, 09H
	DB	'\'
	DB	016H
	DB	'F'
	DB	0d9H, 04H
	DB	'^'
	DB	016H
	DB	'F'
	DB	'}', 04H
	DB	'`'
	DB	016H
	DB	'F'
	DB	0c2H
	DB	'b'
	DB	016H
	DB	'F'
	DB	'E', 04H
	DB	'd'
	DB	016H
	DB	'F'
	DB	0f1H, 06H
	DB	'f'
	DB	0ceH
	DB	'F'
	DB	'6'
	DB	'h'
	DB	016H
	DB	'F'
	DB	'I', 04H
	DB	'f'
	DB	0ceH
	DB	'F'
	DB	'6'
	DB	'j'
	DB	016H
	DB	'F'
	DB	0cdH, 03H
	DB	'f'
	DB	0ceH
	DB	'F'
	DB	'6'
	DB	'l'
	DB	016H
	DB	'F'
	DB	08dH, 03H
	DB	'f'
	DB	0ceH
	DB	'F'
	DB	'6'
	DB	'n'
	DB	016H
	DB	'F'
	DB	'M', 03H
	DB	'f'
	DB	0ceH
	DB	'F'
	DB	'6'
	DB	'p'
	DB	016H
	DB	'F'
	DB	0e0H
	DB	'r'
	DB	016H
	DB	'F'
	DB	0e8H
	DB	't'
	DB	016H
	DB	'F'
	DB	']', 02H
	DB	'v'
	DB	016H
	DB	'F'
	DB	']', 02H
	DB	'x'
	DB	016H
	DB	'F'
	DB	']', 02H
	DB	'z'
	DB	016H
	DB	'F'
	DB	0f5H, 02H
	DB	'|'
	DB	016H
	DB	'F'
	DB	'y', 05H
	DB	':'
	DB	'Q', 05H
	DB	00H
xdata	ENDS
;	COMDAT xdata
xdata	SEGMENT
$stateUnwindMap$?AddModelsToScene@@YAXPEAVcVAOManager@@I@Z DB 07cH
	DB	0eH
	DD	imagerel ?dtor$0@?0??AddModelsToScene@@YAXPEAVcVAOManager@@I@Z@4HA
	DB	036H
	DD	imagerel ?dtor$5@?0??AddModelsToScene@@YAXPEAVcVAOManager@@I@Z@4HA
	DB	05aH
	DD	imagerel ??1sModelDrawInfo@@QEAA@XZ
	DB	01H
	DB	06H
	DB	092H
	DD	imagerel ??1sLODInfo@sMesh@@QEAA@XZ
	DB	01H
	DB	05H
	DB	0ceH
	DD	imagerel ?dtor$13@?0??AddModelsToScene@@YAXPEAVcVAOManager@@I@Z@4HA
	DB	0f6H
	DD	imagerel ?dtor$19@?0??AddModelsToScene@@YAXPEAVcVAOManager@@I@Z@4HA
	DB	03dH
	DB	02H
	DD	imagerel ?dtor$26@?0??AddModelsToScene@@YAXPEAVcVAOManager@@I@Z@4HA
	DB	09dH
	DB	02H
	DD	imagerel ?dtor$29@?0??AddModelsToScene@@YAXPEAVcVAOManager@@I@Z@4HA
	DB	0fdH
	DB	02H
	DD	imagerel ?dtor$30@?0??AddModelsToScene@@YAXPEAVcVAOManager@@I@Z@4HA
	DB	05dH
	DB	03H
	DD	imagerel ?dtor$41@?0??AddModelsToScene@@YAXPEAVcVAOManager@@I@Z@4HA
	DB	0bdH
	DB	03H
	DD	imagerel ?dtor$45@?0??AddModelsToScene@@YAXPEAVcVAOManager@@I@Z@4HA
	DB	01dH
	DB	04H
	DD	imagerel ?dtor$51@?0??AddModelsToScene@@YAXPEAVcVAOManager@@I@Z@4HA
	DB	07dH
	DB	04H
	DD	imagerel ?dtor$55@?0??AddModelsToScene@@YAXPEAVcVAOManager@@I@Z@4HA
	DB	0ddH
	DB	04H
	DD	imagerel ?dtor$60@?0??AddModelsToScene@@YAXPEAVcVAOManager@@I@Z@4HA
	DB	03dH
	DB	05H
	DD	imagerel ?dtor$61@?0??AddModelsToScene@@YAXPEAVcVAOManager@@I@Z@4HA
	DB	09dH
	DB	05H
	DD	imagerel ?dtor$72@?0??AddModelsToScene@@YAXPEAVcVAOManager@@I@Z@4HA
	DB	0fdH
	DB	05H
	DD	imagerel ?dtor$76@?0??AddModelsToScene@@YAXPEAVcVAOManager@@I@Z@4HA
	DB	05dH
	DB	06H
	DD	imagerel ?dtor$82@?0??AddModelsToScene@@YAXPEAVcVAOManager@@I@Z@4HA
	DB	0bdH
	DB	06H
	DD	imagerel ?dtor$87@?0??AddModelsToScene@@YAXPEAVcVAOManager@@I@Z@4HA
	DB	01dH
	DB	07H
	DD	imagerel ?dtor$95@?0??AddModelsToScene@@YAXPEAVcVAOManager@@I@Z@4HA
	DB	07dH
	DB	07H
	DD	imagerel ?dtor$101@?0??AddModelsToScene@@YAXPEAVcVAOManager@@I@Z@4HA
	DB	0ddH
	DB	07H
	DD	imagerel ?dtor$108@?0??AddModelsToScene@@YAXPEAVcVAOManager@@I@Z@4HA
	DB	03dH
	DB	08H
	DD	imagerel ?dtor$113@?0??AddModelsToScene@@YAXPEAVcVAOManager@@I@Z@4HA
	DB	09dH
	DB	08H
	DD	imagerel ?dtor$119@?0??AddModelsToScene@@YAXPEAVcVAOManager@@I@Z@4HA
	DB	0fdH
	DB	08H
	DD	imagerel ?dtor$125@?0??AddModelsToScene@@YAXPEAVcVAOManager@@I@Z@4HA
	DB	05dH
	DB	09H
	DD	imagerel ?dtor$128@?0??AddModelsToScene@@YAXPEAVcVAOManager@@I@Z@4HA
	DB	0b5H
	DB	09H
	DD	imagerel ??1sModelDrawInfo@@QEAA@XZ
	DB	0c1H
	DB	08H
	DB	046H
	DD	imagerel ?dtor$131@?0??AddModelsToScene@@YAXPEAVcVAOManager@@I@Z@4HA
	DB	06aH
	DD	imagerel ??1?$vector@U?$pair@V?$basic_string@DU?$char_traits@D@std@@V?$allocator@D@2@@std@@_N@std@@V?$allocator@U?$pair@V?$basic_string@DU?$char_traits@D@std@@V?$allocator@D@2@@std@@_N@std@@@2@@std@@QEAA@XZ
	DB	041H
	DB	08H
	DB	03aH
	DD	imagerel ??1?$pair@V?$basic_string@DU?$char_traits@D@std@@V?$allocator@D@2@@std@@_N@std@@QEAA@XZ
	DB	01H
	DB	05H
	DB	074H
	DD	imagerel ??1?$basic_string@DU?$char_traits@D@std@@V?$allocator@D@2@@std@@QEAA@XZ
	DB	0a0H
	DB	032H
	DD	imagerel ??1?$basic_string@DU?$char_traits@D@std@@V?$allocator@D@2@@std@@QEAA@XZ
	DB	01H
	DB	04H
	DB	03aH
	DD	imagerel ??1sModelDrawInfo@@QEAA@XZ
	DB	01H
	DB	06H
	DB	03cH
	DD	imagerel ??1?$basic_string@DU?$char_traits@D@std@@V?$allocator@D@2@@std@@QEAA@XZ
	DB	041H
	DB	02H
	DB	095H
	DB	02H
	DD	imagerel ??1?$vector@U?$pair@V?$basic_string@DU?$char_traits@D@std@@V?$allocator@D@2@@std@@_N@std@@V?$allocator@U?$pair@V?$basic_string@DU?$char_traits@D@std@@V?$allocator@D@2@@std@@_N@std@@@2@@std@@QEAA@XZ
	DB	081H
	DB	04H
	DB	042H
	DD	imagerel ??1?$pair@V?$basic_string@DU?$char_traits@D@std@@V?$allocator@D@2@@std@@_N@std@@QEAA@XZ
	DB	01H
	DB	05H
	DB	07cH
	DD	imagerel ??1?$basic_string@DU?$char_traits@D@std@@V?$allocator@D@2@@std@@QEAA@XZ
	DB	0a0H
	DB	032H
	DD	imagerel ??1?$basic_string@DU?$char_traits@D@std@@V?$allocator@D@2@@std@@QEAA@XZ
	DB	081H
	DB	03H
	DB	03aH
	DD	imagerel ??1sModelDrawInfo@@QEAA@XZ
	DB	01H
	DB	06H
	DB	03cH
	DD	imagerel ??1?$basic_string@DU?$char_traits@D@std@@V?$allocator@D@2@@std@@QEAA@XZ
	DB	041H
	DB	02H
	DB	0adH
	DB	02H
	DD	imagerel ?dtor$150@?0??AddModelsToScene@@YAXPEAVcVAOManager@@I@Z@4HA
	DB	0dH
	DB	03H
	DD	imagerel ?dtor$151@?0??AddModelsToScene@@YAXPEAVcVAOManager@@I@Z@4HA
	DB	06dH
	DB	03H
	DD	imagerel ?dtor$152@?0??AddModelsToScene@@YAXPEAVcVAOManager@@I@Z@4HA
	DB	0cdH
	DB	03H
	DD	imagerel ?dtor$153@?0??AddModelsToScene@@YAXPEAVcVAOManager@@I@Z@4HA
	DB	02dH
	DB	04H
	DD	imagerel ?dtor$154@?0??AddModelsToScene@@YAXPEAVcVAOManager@@I@Z@4HA
	DB	08dH
	DB	04H
	DD	imagerel ?dtor$155@?0??AddModelsToScene@@YAXPEAVcVAOManager@@I@Z@4HA
	DB	0edH
	DB	04H
	DD	imagerel ?dtor$156@?0??AddModelsToScene@@YAXPEAVcVAOManager@@I@Z@4HA
	DB	04dH
	DB	05H
	DD	imagerel ?dtor$157@?0??AddModelsToScene@@YAXPEAVcVAOManager@@I@Z@4HA
	DB	0adH
	DB	05H
	DD	imagerel ?dtor$158@?0??AddModelsToScene@@YAXPEAVcVAOManager@@I@Z@4HA
	DB	0dH
	DB	06H
	DD	imagerel ?dtor$159@?0??AddModelsToScene@@YAXPEAVcVAOManager@@I@Z@4HA
	DB	065H
	DB	06H
	DD	imagerel ??1sModelDrawInfo@@QEAA@XZ
	DB	01H
	DB	06H
	DB	0edH
	DB	06H
	DD	imagerel ?dtor$164@?0??AddModelsToScene@@YAXPEAVcVAOManager@@I@Z@4HA
	DB	04dH
	DB	07H
	DD	imagerel ?dtor$166@?0??AddModelsToScene@@YAXPEAVcVAOManager@@I@Z@4HA
	DB	0adH
	DB	07H
	DD	imagerel ?dtor$168@?0??AddModelsToScene@@YAXPEAVcVAOManager@@I@Z@4HA
	DB	0dH
	DB	08H
	DD	imagerel ?dtor$170@?0??AddModelsToScene@@YAXPEAVcVAOManager@@I@Z@4HA
	DB	06dH
	DB	08H
	DD	imagerel ?dtor$172@?0??AddModelsToScene@@YAXPEAVcVAOManager@@I@Z@4HA
	DB	0cdH
	DB	08H
	DD	imagerel ?dtor$173@?0??AddModelsToScene@@YAXPEAVcVAOManager@@I@Z@4HA
	DB	02dH
	DB	09H
	DD	imagerel ?dtor$174@?0??AddModelsToScene@@YAXPEAVcVAOManager@@I@Z@4HA
	DB	08dH
	DB	09H
	DD	imagerel ?dtor$175@?0??AddModelsToScene@@YAXPEAVcVAOManager@@I@Z@4HA
	DB	0edH
	DB	09H
	DD	imagerel ?dtor$176@?0??AddModelsToScene@@YAXPEAVcVAOManager@@I@Z@4HA
	DB	04dH
	DB	0aH
	DD	imagerel ?dtor$177@?0??AddModelsToScene@@YAXPEAVcVAOManager@@I@Z@4HA
	DB	0adH
	DB	0aH
	DD	imagerel ?dtor$178@?0??AddModelsToScene@@YAXPEAVcVAOManager@@I@Z@4HA
xdata	ENDS
;	COMDAT xdata
xdata	SEGMENT
$cppxdata$?AddModelsToScene@@YAXPEAVcVAOManager@@I@Z DB 028H
	DD	imagerel $stateUnwindMap$?AddModelsToScene@@YAXPEAVcVAOManager@@I@Z
	DD	imagerel $ip2state$?AddModelsToScene@@YAXPEAVcVAOManager@@I@Z
xdata	ENDS
;	COMDAT xdata
xdata	SEGMENT
$unwind$?AddModelsToScene@@YAXPEAVcVAOManager@@I@Z DD 01f6e19H
	DD	02df85dH
	DD	02ed855H
	DD	02fc84dH
	DD	030b845H
	DD	031a83dH
	DD	0329838H
	DD	0338833H
	DD	034782eH
	DD	035682aH
	DD	0757426H
	DD	0746426H
	DD	0723426H
	DD	06c0126H
	DD	0e016f018H
	DD	0c012d014H
	DD	05010H
	DD	imagerel __GSHandlerCheck_EH4
	DD	imagerel $cppxdata$?AddModelsToScene@@YAXPEAVcVAOManager@@I@Z
	DD	02c2H
xdata	ENDS
;	COMDAT xdata
xdata	SEGMENT
$unwind$??1sModelDrawInfo@@QEAA@XZ DQ 03002320600020601r ; 1.96423e-77
xdata	ENDS
;	COMDAT xdata
xdata	SEGMENT
$unwind$??1sLODInfo@sMesh@@QEAA@XZ DQ 03002320600020601r ; 1.96423e-77
xdata	ENDS
;	COMDAT xdata
xdata	SEGMENT
$unwind$??1?$pair@V?$basic_string@DU?$char_traits@D@std@@V?$allocator@D@2@@std@@_N@std@@QEAA@XZ DQ 03002320600020601r ; 1.96423e-77
xdata	ENDS
;	COMDAT xdata
xdata	SEGMENT
$unwind$??0?$pair@V?$basic_string@DU?$char_traits@D@std@@V?$allocator@D@2@@std@@_N@std@@QEAA@AEBU01@@Z DQ 00006340a00040a01r ; 8.62672e-309
	DD	07006320aH
xdata	ENDS
;	COMDAT xdata
xdata	SEGMENT
$unwind$?Convert_AssimpHelperMesh_to_sModelDrawInfo@@YA_NPEAVcMesh@AH@@AEAUsModelDrawInfo@@@Z DQ 00009741a000a1a01r ; 1.31467e-308
	DQ	00007541a0008641ar		; 1.01916e-308
	DQ	0e016321a0006341ar		; -7.4399e+154
xdata	ENDS
;	COMDAT xdata
xdata	SEGMENT
$unwind$??1?$vector@U?$pair@V?$basic_string@DU?$char_traits@D@std@@V?$allocator@D@2@@std@@_N@std@@V?$allocator@U?$pair@V?$basic_string@DU?$char_traits@D@std@@V?$allocator@D@2@@std@@_N@std@@@2@@std@@QEAA@XZ DQ 03002320600020601r ; 1.96423e-77
xdata	ENDS
;	COMDAT xdata
xdata	SEGMENT
$unwind$??4?$basic_string@DU?$char_traits@D@std@@V?$allocator@D@2@@std@@QEAAAEAV01@AEBV01@@Z DQ 03002320600020601r ; 1.96423e-77
xdata	ENDS
;	COMDAT xdata
xdata	SEGMENT
$unwind$??1?$basic_string@DU?$char_traits@D@std@@V?$allocator@D@2@@std@@QEAA@XZ DQ 03002320600020601r ; 1.96423e-77
xdata	ENDS
;	COMDAT xdata
xdata	SEGMENT
$unwind$??0?$basic_string@DU?$char_traits@D@std@@V?$allocator@D@2@@std@@QEAA@QEBD@Z DQ 0000b541200081201r ; 1.57541e-308
	DQ	0e00e3212000a3412r		; -5.06071e+154
	DD	0600b700cH
xdata	ENDS
;	COMDAT xdata
xdata	SEGMENT
$unwind$??0?$basic_string@DU?$char_traits@D@std@@V?$allocator@D@2@@std@@QEAA@AEBV01@@Z DQ 0000a340c00060c01r ; 1.41894e-308
	DQ	0500660077008320cr		; 3.23858e+77
xdata	ENDS
;	COMDAT xdata
xdata	SEGMENT
$unwind$?_Tidy@?$vector@U?$pair@V?$basic_string@DU?$char_traits@D@std@@V?$allocator@D@2@@std@@_N@std@@V?$allocator@U?$pair@V?$basic_string@DU?$char_traits@D@std@@V?$allocator@D@2@@std@@_N@std@@@2@@std@@AEAAXXZ DQ 03002320600020601r ; 1.96423e-77
xdata	ENDS
;	COMDAT xdata
xdata	SEGMENT
$unwind$?_Tidy_deallocate@?$basic_string@DU?$char_traits@D@std@@V?$allocator@D@2@@std@@AEAAXXZ DQ 03002320600020601r ; 1.96423e-77
xdata	ENDS
;	COMDAT xdata
xdata	SEGMENT
$chain$4$?assign@?$basic_string@DU?$char_traits@D@std@@V?$allocator@D@2@@std@@QEAAAEAV12@QEBD_K@Z DQ 0000de40000020021r ; 1.93173e-308
	DD	imagerel $LN110@assign
	DD	imagerel $LN110@assign+93
	DD	imagerel $unwind$?assign@?$basic_string@DU?$char_traits@D@std@@V?$allocator@D@2@@std@@QEAAAEAV12@QEBD_K@Z
xdata	ENDS
;	COMDAT xdata
xdata	SEGMENT
$chain$3$?assign@?$basic_string@DU?$char_traits@D@std@@V?$allocator@D@2@@std@@QEAAAEAV12@QEBD_K@Z DD 021H
	DD	imagerel $LN110@assign
	DD	imagerel $LN110@assign+93
	DD	imagerel $unwind$?assign@?$basic_string@DU?$char_traits@D@std@@V?$allocator@D@2@@std@@QEAAAEAV12@QEBD_K@Z
xdata	ENDS
;	COMDAT xdata
xdata	SEGMENT
$chain$2$?assign@?$basic_string@DU?$char_traits@D@std@@V?$allocator@D@2@@std@@QEAAAEAV12@QEBD_K@Z DQ 0000de40000020021r ; 1.93173e-308
	DD	imagerel $LN110@assign
	DD	imagerel $LN110@assign+93
	DD	imagerel $unwind$?assign@?$basic_string@DU?$char_traits@D@std@@V?$allocator@D@2@@std@@QEAAAEAV12@QEBD_K@Z
xdata	ENDS
;	COMDAT xdata
xdata	SEGMENT
$chain$0$?assign@?$basic_string@DU?$char_traits@D@std@@V?$allocator@D@2@@std@@QEAAAEAV12@QEBD_K@Z DQ 0000de40500020521r ; 1.93174e-308
	DD	imagerel $LN110@assign
	DD	imagerel $LN110@assign+93
	DD	imagerel $unwind$?assign@?$basic_string@DU?$char_traits@D@std@@V?$allocator@D@2@@std@@QEAAAEAV12@QEBD_K@Z
xdata	ENDS
;	COMDAT xdata
xdata	SEGMENT
$unwind$?assign@?$basic_string@DU?$char_traits@D@std@@V?$allocator@D@2@@std@@QEAAAEAV12@QEBD_K@Z DQ 0f007320b00060b01r ; -4.50143e+231
	DQ	03002500360047005r		; 1.97688e-77
xdata	ENDS
;	COMDAT xdata
xdata	SEGMENT
$unwind$??R<lambda_1>@?1??assign@?$basic_string@DU?$char_traits@D@std@@V?$allocator@D@2@@std@@QEAAAEAV23@QEBD_K@Z@QEBA@QEAD10@Z DQ 00006340a00040a01r ; 8.62672e-309
	DD	07006320aH
xdata	ENDS
;	COMDAT xdata
xdata	SEGMENT
$unwind$?copy@?$_Char_traits@DH@std@@SAPEADQEADQEBD_K@Z DQ 03002320600020601r ; 1.96423e-77
xdata	ENDS
;	COMDAT xdata
xdata	SEGMENT
$unwind$?deallocate@?$allocator@U?$pair@V?$basic_string@DU?$char_traits@D@std@@V?$allocator@D@2@@std@@_N@std@@@std@@QEAAXQEAU?$pair@V?$basic_string@DU?$char_traits@D@std@@V?$allocator@D@2@@std@@_N@2@_K@Z DQ 00000420400010401r ; 3.58617e-310
xdata	ENDS
;	COMDAT xdata
xdata	SEGMENT
$unwind$?_Deallocate_for_capacity@?$basic_string@DU?$char_traits@D@std@@V?$allocator@D@2@@std@@CAXAEAV?$allocator@D@2@QEAD_K@Z DQ 00000420400010401r ; 3.58617e-310
xdata	ENDS
;	COMDAT xdata
xdata	SEGMENT
$unwind$?move@?$_Char_traits@DH@std@@SAPEADQEADQEBD_K@Z DQ 03002320600020601r ; 1.96423e-77
xdata	ENDS
;	COMDAT xdata
xdata	SEGMENT
$unwind$?deallocate@?$allocator@D@std@@QEAAXQEAD_K@Z DQ 00000420400010401r ; 3.58617e-310
xdata	ENDS
;	COMDAT xdata
xdata	SEGMENT
$unwind$??$?DM$0A@@glm@@YA?AU?$vec@$03M$0A@@0@AEBU10@M@Z DQ 00000220400010401r ; 1.84783e-310
xdata	ENDS
;	COMDAT xdata
xdata	SEGMENT
$unwind$??$?8DU?$char_traits@D@std@@V?$allocator@D@1@@std@@YA_NAEBV?$basic_string@DU?$char_traits@D@std@@V?$allocator@D@2@@0@QEBD@Z DQ 00000420400010401r ; 3.58617e-310
xdata	ENDS
;	COMDAT xdata
xdata	SEGMENT
$unwind$?catch$17@?0???$?6U?$char_traits@D@std@@@std@@YAAEAV?$basic_ostream@DU?$char_traits@D@std@@@0@AEAV10@PEBD@Z@4HA DQ 05006320a00020a01r ; 3.21257e+77
xdata	ENDS
;	COMDAT xdata
xdata	SEGMENT
$ip2state$??$?6U?$char_traits@D@std@@@std@@YAAEAV?$basic_ostream@DU?$char_traits@D@std@@@0@AEAV10@PEBD@Z DQ 0ee06ba025c00d60cr ; -1.02688e+222
	DD	052004c04H
	DB	0aH
xdata	ENDS
;	COMDAT xdata
xdata	SEGMENT
$handlerMap$??$?6U?$char_traits@D@std@@@std@@YAAEAV?$basic_ostream@DU?$char_traits@D@std@@@0@AEAV10@PEBD@Z DW 01102H
	DB	080H
	DD	imagerel ?catch$17@?0???$?6U?$char_traits@D@std@@@std@@YAAEAV?$basic_ostream@DU?$char_traits@D@std@@@0@AEAV10@PEBD@Z@4HA
	DW	05bdH
xdata	ENDS
;	COMDAT xdata
xdata	SEGMENT
$tryMap$??$?6U?$char_traits@D@std@@@std@@YAAEAV?$basic_ostream@DU?$char_traits@D@std@@@0@AEAV10@PEBD@Z DD 06040402H
	DD	imagerel $handlerMap$??$?6U?$char_traits@D@std@@@std@@YAAEAV?$basic_ostream@DU?$char_traits@D@std@@@0@AEAV10@PEBD@Z
xdata	ENDS
;	COMDAT xdata
xdata	SEGMENT
$stateUnwindMap$??$?6U?$char_traits@D@std@@@std@@YAAEAV?$basic_ostream@DU?$char_traits@D@std@@@0@AEAV10@PEBD@Z DW 0a0aH
	DD	imagerel ??1_Sentry_base@?$basic_ostream@DU?$char_traits@D@std@@@std@@QEAA@XZ
	DW	03a40H
	DD	imagerel ??1sentry@?$basic_ostream@DU?$char_traits@D@std@@@std@@QEAA@XZ
	DD	07e383040H
	DD	imagerel __std_terminate
xdata	ENDS
;	COMDAT xdata
xdata	SEGMENT
$cppxdata$??$?6U?$char_traits@D@std@@@std@@YAAEAV?$basic_ostream@DU?$char_traits@D@std@@@0@AEAV10@PEBD@Z DB 038H
	DD	imagerel $stateUnwindMap$??$?6U?$char_traits@D@std@@@std@@YAAEAV?$basic_ostream@DU?$char_traits@D@std@@@0@AEAV10@PEBD@Z
	DD	imagerel $tryMap$??$?6U?$char_traits@D@std@@@std@@YAAEAV?$basic_ostream@DU?$char_traits@D@std@@@0@AEAV10@PEBD@Z
	DD	imagerel $ip2state$??$?6U?$char_traits@D@std@@@std@@YAAEAV?$basic_ostream@DU?$char_traits@D@std@@@0@AEAV10@PEBD@Z
xdata	ENDS
;	COMDAT xdata
xdata	SEGMENT
$unwind$??$?6U?$char_traits@D@std@@@std@@YAAEAV?$basic_ostream@DU?$char_traits@D@std@@@0@AEAV10@PEBD@Z DQ 0000d341600081619r ; 1.83617e-308
	DQ	0c00ee010f0125216r		; -3.85941
	DD	0600b700cH
	DD	imagerel __CxxFrameHandler4
	DD	imagerel $cppxdata$??$?6U?$char_traits@D@std@@@std@@YAAEAV?$basic_ostream@DU?$char_traits@D@std@@@0@AEAV10@PEBD@Z
xdata	ENDS
;	COMDAT xdata
xdata	SEGMENT
$unwind$??$endl@DU?$char_traits@D@std@@@std@@YAAEAV?$basic_ostream@DU?$char_traits@D@std@@@0@AEAV10@@Z DQ 03002320600020601r ; 1.96423e-77
xdata	ENDS
;	COMDAT xdata
xdata	SEGMENT
$unwind$??$?0AEAY0CL@$$CBD_N$0A@@?$pair@V?$basic_string@DU?$char_traits@D@std@@V?$allocator@D@2@@std@@_N@std@@QEAA@AEAY0CL@$$CBD$$QEA_N@Z DQ 00006340a00040a01r ; 8.62672e-309
	DD	07006320aH
xdata	ENDS
;	COMDAT xdata
xdata	SEGMENT
$unwind$??$?0AEAY0CK@$$CBD_N$0A@@?$pair@V?$basic_string@DU?$char_traits@D@std@@V?$allocator@D@2@@std@@_N@std@@QEAA@AEAY0CK@$$CBD$$QEA_N@Z DQ 00006340a00040a01r ; 8.62672e-309
	DD	07006320aH
xdata	ENDS
;	COMDAT xdata
xdata	SEGMENT
$unwind$??$?0AEAY0CI@$$CBD_N$0A@@?$pair@V?$basic_string@DU?$char_traits@D@std@@V?$allocator@D@2@@std@@_N@std@@QEAA@AEAY0CI@$$CBD$$QEA_N@Z DQ 00006340a00040a01r ; 8.62672e-309
	DD	07006320aH
xdata	ENDS
;	COMDAT xdata
xdata	SEGMENT
$unwind$??$?0AEAY0CA@$$CBD_N$0A@@?$pair@V?$basic_string@DU?$char_traits@D@std@@V?$allocator@D@2@@std@@_N@std@@QEAA@AEAY0CA@$$CBD$$QEA_N@Z DQ 00006340a00040a01r ; 8.62672e-309
	DD	07006320aH
xdata	ENDS
;	COMDAT xdata
xdata	SEGMENT
$unwind$??$?0AEAY0CE@$$CBD_N$0A@@?$pair@V?$basic_string@DU?$char_traits@D@std@@V?$allocator@D@2@@std@@_N@std@@QEAA@AEAY0CE@$$CBD$$QEA_N@Z DQ 00006340a00040a01r ; 8.62672e-309
	DD	07006320aH
xdata	ENDS
;	COMDAT xdata
xdata	SEGMENT
$unwind$??$?0AEAY0CF@$$CBD_N$0A@@?$pair@V?$basic_string@DU?$char_traits@D@std@@V?$allocator@D@2@@std@@_N@std@@QEAA@AEAY0CF@$$CBD$$QEA_N@Z DQ 00006340a00040a01r ; 8.62672e-309
	DD	07006320aH
xdata	ENDS
;	COMDAT xdata
xdata	SEGMENT
$unwind$??$?0AEAY0CG@$$CBD_N$0A@@?$pair@V?$basic_string@DU?$char_traits@D@std@@V?$allocator@D@2@@std@@_N@std@@QEAA@AEAY0CG@$$CBD$$QEA_N@Z DQ 00006340a00040a01r ; 8.62672e-309
	DD	07006320aH
xdata	ENDS
;	COMDAT xdata
xdata	SEGMENT
$unwind$??$translate@M$0A@@glm@@YA?AU?$mat@$03$03M$0A@@0@AEBU10@AEBU?$vec@$02M$0A@@0@@Z DQ 00001a83d000b3d01r ; 2.30459e-309
	DQ	00003882900029837r		; 4.91168e-309
	DQ	00005680f0004781br		; 7.51863e-309
	DD	0c204H
xdata	ENDS
;	COMDAT xdata
xdata	SEGMENT
$unwind$??$rotate@M$0A@@glm@@YA?AU?$mat@$03$03M$0A@@0@AEBU10@MAEBU?$vec@$02M$0A@@0@@Z DQ 00004f855001b5501r ; 6.9117e-309
	DQ	00006d8490005e84fr		; 9.51895e-309
	DQ	00008b83e0007c843r		; 1.21262e-308
	DQ	0000a982e0009a836r		; 1.47334e-308
	DQ	0000c781e000b8826r		; 1.73406e-308
	DQ	000206413000d6817r		; 4.55887e-308
	DQ	0001c0113001f3413r		; 3.89446e-308
	DD	0700cH
xdata	ENDS
;	COMDAT xdata
xdata	SEGMENT
$chain$2$??$_Construct@$00PEBD@?$basic_string@DU?$char_traits@D@std@@V?$allocator@D@2@@std@@AEAAXQEBD_K@Z DQ 00004740000020021r ; 6.19283e-309
	DD	imagerel $LN63@Construct
	DD	imagerel $LN63@Construct+79
	DD	imagerel $unwind$??$_Construct@$00PEBD@?$basic_string@DU?$char_traits@D@std@@V?$allocator@D@2@@std@@AEAAXQEBD_K@Z
xdata	ENDS
;	COMDAT xdata
xdata	SEGMENT
$chain$1$??$_Construct@$00PEBD@?$basic_string@DU?$char_traits@D@std@@V?$allocator@D@2@@std@@AEAAXQEBD_K@Z DD 021H
	DD	imagerel $LN63@Construct
	DD	imagerel $LN63@Construct+79
	DD	imagerel $unwind$??$_Construct@$00PEBD@?$basic_string@DU?$char_traits@D@std@@V?$allocator@D@2@@std@@AEAAXQEBD_K@Z
xdata	ENDS
;	COMDAT xdata
xdata	SEGMENT
$chain$0$??$_Construct@$00PEBD@?$basic_string@DU?$char_traits@D@std@@V?$allocator@D@2@@std@@AEAAXQEBD_K@Z DQ 00004740500020521r ; 6.19294e-309
	DD	imagerel $LN63@Construct
	DD	imagerel $LN63@Construct+79
	DD	imagerel $unwind$??$_Construct@$00PEBD@?$basic_string@DU?$char_traits@D@std@@V?$allocator@D@2@@std@@AEAAXQEBD_K@Z
xdata	ENDS
;	COMDAT xdata
xdata	SEGMENT
$unwind$??$_Construct@$00PEBD@?$basic_string@DU?$char_traits@D@std@@V?$allocator@D@2@@std@@AEAAXQEBD_K@Z DQ 0e006420a00050a01r ; -3.73038e+154
	DQ	00000300250036004r		; 2.608e-310
xdata	ENDS
;	COMDAT xdata
xdata	SEGMENT
$unwind$??$_Construct@$01PEBD@?$basic_string@DU?$char_traits@D@std@@V?$allocator@D@2@@std@@AEAAXQEBD_K@Z DQ 0000b340c00060c01r ; 1.55801e-308
	DQ	0500660077008320cr		; 3.23858e+77
xdata	ENDS
;	COMDAT xdata
xdata	SEGMENT
$chain$2$??$_Destroy_range@V?$allocator@U?$pair@V?$basic_string@DU?$char_traits@D@std@@V?$allocator@D@2@@std@@_N@std@@@std@@@std@@YAXPEAU?$pair@V?$basic_string@DU?$char_traits@D@std@@V?$allocator@D@2@@std@@_N@0@QEAU10@AEAV?$allocator@U?$pair@V?$basic_string@DU?$char_traits@D@std@@V?$allocator@D@2@@std@@_N@std@@@0@@Z DQ 00007640000020021r ; 1.02779e-308
	DD	imagerel $LN73@Destroy_ra
	DD	imagerel $LN73@Destroy_ra+15
	DD	imagerel $unwind$??$_Destroy_range@V?$allocator@U?$pair@V?$basic_string@DU?$char_traits@D@std@@V?$allocator@D@2@@std@@_N@std@@@std@@@std@@YAXPEAU?$pair@V?$basic_string@DU?$char_traits@D@std@@V?$allocator@D@2@@std@@_N@0@QEAU10@AEAV?$allocator@U?$pair@V?$basic_string@DU?$char_traits@D@std@@V?$allocator@D@2@@std@@_N@std@@@0@@Z
xdata	ENDS
;	COMDAT xdata
xdata	SEGMENT
$chain$1$??$_Destroy_range@V?$allocator@U?$pair@V?$basic_string@DU?$char_traits@D@std@@V?$allocator@D@2@@std@@_N@std@@@std@@@std@@YAXPEAU?$pair@V?$basic_string@DU?$char_traits@D@std@@V?$allocator@D@2@@std@@_N@0@QEAU10@AEAV?$allocator@U?$pair@V?$basic_string@DU?$char_traits@D@std@@V?$allocator@D@2@@std@@_N@std@@@0@@Z DD 021H
	DD	imagerel $LN73@Destroy_ra
	DD	imagerel $LN73@Destroy_ra+15
	DD	imagerel $unwind$??$_Destroy_range@V?$allocator@U?$pair@V?$basic_string@DU?$char_traits@D@std@@V?$allocator@D@2@@std@@_N@std@@@std@@@std@@YAXPEAU?$pair@V?$basic_string@DU?$char_traits@D@std@@V?$allocator@D@2@@std@@_N@0@QEAU10@AEAV?$allocator@U?$pair@V?$basic_string@DU?$char_traits@D@std@@V?$allocator@D@2@@std@@_N@std@@@0@@Z
xdata	ENDS
;	COMDAT xdata
xdata	SEGMENT
$chain$0$??$_Destroy_range@V?$allocator@U?$pair@V?$basic_string@DU?$char_traits@D@std@@V?$allocator@D@2@@std@@_N@std@@@std@@@std@@YAXPEAU?$pair@V?$basic_string@DU?$char_traits@D@std@@V?$allocator@D@2@@std@@_N@0@QEAU10@AEAV?$allocator@U?$pair@V?$basic_string@DU?$char_traits@D@std@@V?$allocator@D@2@@std@@_N@std@@@0@@Z DQ 00007640500020521r ; 1.0278e-308
	DD	imagerel $LN73@Destroy_ra
	DD	imagerel $LN73@Destroy_ra+15
	DD	imagerel $unwind$??$_Destroy_range@V?$allocator@U?$pair@V?$basic_string@DU?$char_traits@D@std@@V?$allocator@D@2@@std@@_N@std@@@std@@@std@@YAXPEAU?$pair@V?$basic_string@DU?$char_traits@D@std@@V?$allocator@D@2@@std@@_N@0@QEAU10@AEAV?$allocator@U?$pair@V?$basic_string@DU?$char_traits@D@std@@V?$allocator@D@2@@std@@_N@std@@@0@@Z
xdata	ENDS
;	COMDAT xdata
xdata	SEGMENT
$unwind$??$_Destroy_range@V?$allocator@U?$pair@V?$basic_string@DU?$char_traits@D@std@@V?$allocator@D@2@@std@@_N@std@@@std@@@std@@YAXPEAU?$pair@V?$basic_string@DU?$char_traits@D@std@@V?$allocator@D@2@@std@@_N@0@QEAU10@AEAV?$allocator@U?$pair@V?$basic_string@DU?$char_traits@D@std@@V?$allocator@D@2@@std@@_N@std@@@0@@Z DQ 00008340f00040f01r ; 1.14082e-308
	DD	0700b320fH
xdata	ENDS
;	COMDAT xdata
xdata	SEGMENT
$chain$5$??$_Reallocate_for@V<lambda_1>@?1??assign@?$basic_string@DU?$char_traits@D@std@@V?$allocator@D@2@@std@@QEAAAEAV34@QEBD_K@Z@PEBD@?$basic_string@DU?$char_traits@D@std@@V?$allocator@D@2@@std@@AEAAAEAV01@_KV<lambda_1>@?1??assign@01@QEAAAEAV01@QEBD0@Z@PEBD@Z DQ 00004540000040021r ; 6.019e-309
	DD	0c3400H
	DD	imagerel $LN94@Reallocate
	DD	imagerel $LN94@Reallocate+43
	DD	imagerel $unwind$??$_Reallocate_for@V<lambda_1>@?1??assign@?$basic_string@DU?$char_traits@D@std@@V?$allocator@D@2@@std@@QEAAAEAV34@QEBD_K@Z@PEBD@?$basic_string@DU?$char_traits@D@std@@V?$allocator@D@2@@std@@AEAAAEAV01@_KV<lambda_1>@?1??assign@01@QEAAAEAV01@QEBD0@Z@PEBD@Z
xdata	ENDS
;	COMDAT xdata
xdata	SEGMENT
$chain$4$??$_Reallocate_for@V<lambda_1>@?1??assign@?$basic_string@DU?$char_traits@D@std@@V?$allocator@D@2@@std@@QEAAAEAV34@QEBD_K@Z@PEBD@?$basic_string@DU?$char_traits@D@std@@V?$allocator@D@2@@std@@AEAAAEAV01@_KV<lambda_1>@?1??assign@01@QEAAAEAV01@QEBD0@Z@PEBD@Z DD 021H
	DD	imagerel $LN94@Reallocate
	DD	imagerel $LN94@Reallocate+43
	DD	imagerel $unwind$??$_Reallocate_for@V<lambda_1>@?1??assign@?$basic_string@DU?$char_traits@D@std@@V?$allocator@D@2@@std@@QEAAAEAV34@QEBD_K@Z@PEBD@?$basic_string@DU?$char_traits@D@std@@V?$allocator@D@2@@std@@AEAAAEAV01@_KV<lambda_1>@?1??assign@01@QEAAAEAV01@QEBD0@Z@PEBD@Z
xdata	ENDS
;	COMDAT xdata
xdata	SEGMENT
$chain$3$??$_Reallocate_for@V<lambda_1>@?1??assign@?$basic_string@DU?$char_traits@D@std@@V?$allocator@D@2@@std@@QEAAAEAV34@QEBD_K@Z@PEBD@?$basic_string@DU?$char_traits@D@std@@V?$allocator@D@2@@std@@AEAAAEAV01@_KV<lambda_1>@?1??assign@01@QEAAAEAV01@QEBD0@Z@PEBD@Z DQ 00004540000040021r ; 6.019e-309
	DD	0c3400H
	DD	imagerel $LN94@Reallocate
	DD	imagerel $LN94@Reallocate+43
	DD	imagerel $unwind$??$_Reallocate_for@V<lambda_1>@?1??assign@?$basic_string@DU?$char_traits@D@std@@V?$allocator@D@2@@std@@QEAAAEAV34@QEBD_K@Z@PEBD@?$basic_string@DU?$char_traits@D@std@@V?$allocator@D@2@@std@@AEAAAEAV01@_KV<lambda_1>@?1??assign@01@QEAAAEAV01@QEBD0@Z@PEBD@Z
xdata	ENDS
;	COMDAT xdata
xdata	SEGMENT
$chain$1$??$_Reallocate_for@V<lambda_1>@?1??assign@?$basic_string@DU?$char_traits@D@std@@V?$allocator@D@2@@std@@QEAAAEAV34@QEBD_K@Z@PEBD@?$basic_string@DU?$char_traits@D@std@@V?$allocator@D@2@@std@@AEAAAEAV01@_KV<lambda_1>@?1??assign@01@QEAAAEAV01@QEBD0@Z@PEBD@Z DQ 00004540a00040a21r ; 6.01921e-309
	DD	0c3405H
	DD	imagerel $LN94@Reallocate
	DD	imagerel $LN94@Reallocate+43
	DD	imagerel $unwind$??$_Reallocate_for@V<lambda_1>@?1??assign@?$basic_string@DU?$char_traits@D@std@@V?$allocator@D@2@@std@@QEAAAEAV34@QEBD_K@Z@PEBD@?$basic_string@DU?$char_traits@D@std@@V?$allocator@D@2@@std@@AEAAAEAV01@_KV<lambda_1>@?1??assign@01@QEAAAEAV01@QEBD0@Z@PEBD@Z
xdata	ENDS
;	COMDAT xdata
xdata	SEGMENT
$unwind$??$_Reallocate_for@V<lambda_1>@?1??assign@?$basic_string@DU?$char_traits@D@std@@V?$allocator@D@2@@std@@QEAAAEAV34@QEBD_K@Z@PEBD@?$basic_string@DU?$char_traits@D@std@@V?$allocator@D@2@@std@@AEAAAEAV01@_KV<lambda_1>@?1??assign@01@QEAAAEAV01@QEBD0@Z@PEBD@Z DQ 0f007420b00050b01r ; -4.51355e+231
	DQ	0000060027003e005r		; 5.21553e-310
xdata	ENDS
;	COMDAT xdata
xdata	SEGMENT
$unwind$??$_Deallocate@$0BA@@std@@YAXPEAX_K@Z DQ 00000420400010401r ; 3.58617e-310
xdata	ENDS
;	COMDAT xdata
xdata	SEGMENT
$ip2state$??1sentry@?$basic_ostream@DU?$char_traits@D@std@@@std@@QEAA@XZ DW 06802H
	DB	02H
xdata	ENDS
;	COMDAT xdata
xdata	SEGMENT
$stateUnwindMap$??1sentry@?$basic_ostream@DU?$char_traits@D@std@@@std@@QEAA@XZ DW 0e02H
	DD	imagerel __std_terminate
xdata	ENDS
;	COMDAT xdata
xdata	SEGMENT
$cppxdata$??1sentry@?$basic_ostream@DU?$char_traits@D@std@@@std@@QEAA@XZ DB 068H
	DD	imagerel $stateUnwindMap$??1sentry@?$basic_ostream@DU?$char_traits@D@std@@@std@@QEAA@XZ
	DD	imagerel $ip2state$??1sentry@?$basic_ostream@DU?$char_traits@D@std@@@std@@QEAA@XZ
xdata	ENDS
;	COMDAT xdata
xdata	SEGMENT
$unwind$??1sentry@?$basic_ostream@DU?$char_traits@D@std@@@std@@QEAA@XZ DQ 03002320600020619r ; 1.96423e-77
	DD	imagerel __CxxFrameHandler4
	DD	imagerel $cppxdata$??1sentry@?$basic_ostream@DU?$char_traits@D@std@@@std@@QEAA@XZ
xdata	ENDS
;	COMDAT xdata
xdata	SEGMENT
$ip2state$??0sentry@?$basic_ostream@DU?$char_traits@D@std@@@std@@QEAA@AEAV12@@Z DD 05c005804H
	DB	02H
xdata	ENDS
;	COMDAT xdata
xdata	SEGMENT
$stateUnwindMap$??0sentry@?$basic_ostream@DU?$char_traits@D@std@@@std@@QEAA@AEAV12@@Z DW 0c02H
	DD	imagerel ??1_Sentry_base@?$basic_ostream@DU?$char_traits@D@std@@@std@@QEAA@XZ
	DB	060H
xdata	ENDS
;	COMDAT xdata
xdata	SEGMENT
$cppxdata$??0sentry@?$basic_ostream@DU?$char_traits@D@std@@@std@@QEAA@AEAV12@@Z DB 028H
	DD	imagerel $stateUnwindMap$??0sentry@?$basic_ostream@DU?$char_traits@D@std@@@std@@QEAA@AEAV12@@Z
	DD	imagerel $ip2state$??0sentry@?$basic_ostream@DU?$char_traits@D@std@@@std@@QEAA@AEAV12@@Z
xdata	ENDS
;	COMDAT xdata
xdata	SEGMENT
$unwind$??0sentry@?$basic_ostream@DU?$char_traits@D@std@@@std@@QEAA@AEAV12@@Z DQ 00007340f00040f11r ; 1.00175e-308
	DD	0700b320fH
	DD	imagerel __CxxFrameHandler4
	DD	imagerel $cppxdata$??0sentry@?$basic_ostream@DU?$char_traits@D@std@@@std@@QEAA@AEAV12@@Z
xdata	ENDS
;	COMDAT xdata
xdata	SEGMENT
$unwind$?_Equal@?$basic_string@DU?$char_traits@D@std@@V?$allocator@D@2@@std@@QEBA_NQEBD@Z DQ 00000420400010401r ; 3.58617e-310
xdata	ENDS
;	COMDAT xdata
xdata	SEGMENT
$ip2state$??1_Sentry_base@?$basic_ostream@DU?$char_traits@D@std@@@std@@QEAA@XZ DW 03602H
	DB	00H
xdata	ENDS
;	COMDAT xdata
xdata	SEGMENT
$cppxdata$??1_Sentry_base@?$basic_ostream@DU?$char_traits@D@std@@@std@@QEAA@XZ DB 060H
	DD	imagerel $ip2state$??1_Sentry_base@?$basic_ostream@DU?$char_traits@D@std@@@std@@QEAA@XZ
xdata	ENDS
;	COMDAT xdata
xdata	SEGMENT
$unwind$??1_Sentry_base@?$basic_ostream@DU?$char_traits@D@std@@@std@@QEAA@XZ DQ 00000420400010419r ; 3.58617e-310
	DD	imagerel __CxxFrameHandler4
	DD	imagerel $cppxdata$??1_Sentry_base@?$basic_ostream@DU?$char_traits@D@std@@@std@@QEAA@XZ
xdata	ENDS
;	COMDAT xdata
xdata	SEGMENT
$unwind$??0_Sentry_base@?$basic_ostream@DU?$char_traits@D@std@@@std@@QEAA@AEAV12@@Z DQ 03002320600020601r ; 1.96423e-77
xdata	ENDS
;	COMDAT xdata
xdata	SEGMENT
$unwind$?catch$17@?0???$_Insert_string@DU?$char_traits@D@std@@_K@std@@YAAEAV?$basic_ostream@DU?$char_traits@D@std@@@0@AEAV10@QEBD_K@Z@4HA DQ 05006320a00020a01r ; 3.21257e+77
xdata	ENDS
;	COMDAT xdata
xdata	SEGMENT
$ip2state$??$_Insert_string@DU?$char_traits@D@std@@_K@std@@YAAEAV?$basic_ostream@DU?$char_traits@D@std@@@0@AEAV10@QEBD_K@Z DQ 0ea06ae025c00ae0cr ; -5.55527e+202
	DD	050004c04H
	DB	0aH
xdata	ENDS
;	COMDAT xdata
xdata	SEGMENT
$handlerMap$??$_Insert_string@DU?$char_traits@D@std@@_K@std@@YAAEAV?$basic_ostream@DU?$char_traits@D@std@@@0@AEAV10@QEBD_K@Z DW 01102H
	DB	080H
	DD	imagerel ?catch$17@?0???$_Insert_string@DU?$char_traits@D@std@@_K@std@@YAAEAV?$basic_ostream@DU?$char_traits@D@std@@@0@AEAV10@QEBD_K@Z@4HA
	DW	054dH
xdata	ENDS
;	COMDAT xdata
xdata	SEGMENT
$tryMap$??$_Insert_string@DU?$char_traits@D@std@@_K@std@@YAAEAV?$basic_ostream@DU?$char_traits@D@std@@@0@AEAV10@QEBD_K@Z DD 06040402H
	DD	imagerel $handlerMap$??$_Insert_string@DU?$char_traits@D@std@@_K@std@@YAAEAV?$basic_ostream@DU?$char_traits@D@std@@@0@AEAV10@QEBD_K@Z
xdata	ENDS
;	COMDAT xdata
xdata	SEGMENT
$stateUnwindMap$??$_Insert_string@DU?$char_traits@D@std@@_K@std@@YAAEAV?$basic_ostream@DU?$char_traits@D@std@@@0@AEAV10@QEBD_K@Z DW 0a0aH
	DD	imagerel ??1_Sentry_base@?$basic_ostream@DU?$char_traits@D@std@@@std@@QEAA@XZ
	DW	03a40H
	DD	imagerel ??1sentry@?$basic_ostream@DU?$char_traits@D@std@@@std@@QEAA@XZ
	DD	07e383040H
	DD	imagerel __std_terminate
xdata	ENDS
;	COMDAT xdata
xdata	SEGMENT
$cppxdata$??$_Insert_string@DU?$char_traits@D@std@@_K@std@@YAAEAV?$basic_ostream@DU?$char_traits@D@std@@@0@AEAV10@QEBD_K@Z DB 038H
	DD	imagerel $stateUnwindMap$??$_Insert_string@DU?$char_traits@D@std@@_K@std@@YAAEAV?$basic_ostream@DU?$char_traits@D@std@@@0@AEAV10@QEBD_K@Z
	DD	imagerel $tryMap$??$_Insert_string@DU?$char_traits@D@std@@_K@std@@YAAEAV?$basic_ostream@DU?$char_traits@D@std@@@0@AEAV10@QEBD_K@Z
	DD	imagerel $ip2state$??$_Insert_string@DU?$char_traits@D@std@@_K@std@@YAAEAV?$basic_ostream@DU?$char_traits@D@std@@@0@AEAV10@QEBD_K@Z
xdata	ENDS
;	COMDAT xdata
xdata	SEGMENT
$unwind$??$_Insert_string@DU?$char_traits@D@std@@_K@std@@YAAEAV?$basic_ostream@DU?$char_traits@D@std@@@0@AEAV10@QEBD_K@Z DQ 0000d341600081619r ; 1.83617e-308
	DQ	0c00ee010f0125216r		; -3.85941
	DD	0600b700cH
	DD	imagerel __CxxFrameHandler4
	DD	imagerel $cppxdata$??$_Insert_string@DU?$char_traits@D@std@@_K@std@@YAAEAV?$basic_ostream@DU?$char_traits@D@std@@@0@AEAV10@QEBD_K@Z
xdata	ENDS
;	COMDAT xdata
xdata	SEGMENT
$unwind$??$?HM$0A@@glm@@YA?AU?$vec@$03M$0A@@0@AEBU10@0@Z DQ 00000220400010401r ; 1.84783e-310
xdata	ENDS
;	COMDAT xdata
xdata	SEGMENT
$unwind$??$normalize@$02M$0A@@glm@@YA?AU?$vec@$02M$0A@@0@AEBU10@@Z DQ 00009340a00040a01r ; 1.27987e-308
	DD	07006520aH
xdata	ENDS
;	COMDAT xdata
xdata	SEGMENT
$unwind$??$?DM$0A@@glm@@YA?AU?$vec@$02M$0A@@0@MAEBU10@@Z DQ 00000220400010401r ; 1.84783e-310
xdata	ENDS
;	COMDAT xdata
xdata	SEGMENT
$chain$8$??$_Emplace_reallocate@U?$pair@V?$basic_string@DU?$char_traits@D@std@@V?$allocator@D@2@@std@@_N@std@@@?$vector@U?$pair@V?$basic_string@DU?$char_traits@D@std@@V?$allocator@D@2@@std@@_N@std@@V?$allocator@U?$pair@V?$basic_string@DU?$char_traits@D@std@@V?$allocator@D@2@@std@@_N@std@@@2@@std@@AEAAPEAU?$pair@V?$basic_string@DU?$char_traits@D@std@@V?$allocator@D@2@@std@@_N@1@QEAU21@$$QEAU21@@Z DQ 00004e40000060021r ; 6.80125e-309
	DQ	0000f340000066400r		; 2.11425e-308
	DD	imagerel $LN150@Emplace_re
	DD	imagerel $LN150@Emplace_re+115
	DD	imagerel $unwind$??$_Emplace_reallocate@U?$pair@V?$basic_string@DU?$char_traits@D@std@@V?$allocator@D@2@@std@@_N@std@@@?$vector@U?$pair@V?$basic_string@DU?$char_traits@D@std@@V?$allocator@D@2@@std@@_N@std@@V?$allocator@U?$pair@V?$basic_string@DU?$char_traits@D@std@@V?$allocator@D@2@@std@@_N@std@@@2@@std@@AEAAPEAU?$pair@V?$basic_string@DU?$char_traits@D@std@@V?$allocator@D@2@@std@@_N@1@QEAU21@$$QEAU21@@Z
xdata	ENDS
;	COMDAT xdata
xdata	SEGMENT
$chain$7$??$_Emplace_reallocate@U?$pair@V?$basic_string@DU?$char_traits@D@std@@V?$allocator@D@2@@std@@_N@std@@@?$vector@U?$pair@V?$basic_string@DU?$char_traits@D@std@@V?$allocator@D@2@@std@@_N@std@@V?$allocator@U?$pair@V?$basic_string@DU?$char_traits@D@std@@V?$allocator@D@2@@std@@_N@std@@@2@@std@@AEAAPEAU?$pair@V?$basic_string@DU?$char_traits@D@std@@V?$allocator@D@2@@std@@_N@1@QEAU21@$$QEAU21@@Z DD 021H
	DD	imagerel $LN150@Emplace_re
	DD	imagerel $LN150@Emplace_re+115
	DD	imagerel $unwind$??$_Emplace_reallocate@U?$pair@V?$basic_string@DU?$char_traits@D@std@@V?$allocator@D@2@@std@@_N@std@@@?$vector@U?$pair@V?$basic_string@DU?$char_traits@D@std@@V?$allocator@D@2@@std@@_N@std@@V?$allocator@U?$pair@V?$basic_string@DU?$char_traits@D@std@@V?$allocator@D@2@@std@@_N@std@@@2@@std@@AEAAPEAU?$pair@V?$basic_string@DU?$char_traits@D@std@@V?$allocator@D@2@@std@@_N@1@QEAU21@$$QEAU21@@Z
xdata	ENDS
;	COMDAT xdata
xdata	SEGMENT
$chain$6$??$_Emplace_reallocate@U?$pair@V?$basic_string@DU?$char_traits@D@std@@V?$allocator@D@2@@std@@_N@std@@@?$vector@U?$pair@V?$basic_string@DU?$char_traits@D@std@@V?$allocator@D@2@@std@@_N@std@@V?$allocator@U?$pair@V?$basic_string@DU?$char_traits@D@std@@V?$allocator@D@2@@std@@_N@std@@@2@@std@@AEAAPEAU?$pair@V?$basic_string@DU?$char_traits@D@std@@V?$allocator@D@2@@std@@_N@1@QEAU21@$$QEAU21@@Z DQ 00004e40000060021r ; 6.80125e-309
	DQ	0000f340000066400r		; 2.11425e-308
	DD	imagerel $LN150@Emplace_re
	DD	imagerel $LN150@Emplace_re+115
	DD	imagerel $unwind$??$_Emplace_reallocate@U?$pair@V?$basic_string@DU?$char_traits@D@std@@V?$allocator@D@2@@std@@_N@std@@@?$vector@U?$pair@V?$basic_string@DU?$char_traits@D@std@@V?$allocator@D@2@@std@@_N@std@@V?$allocator@U?$pair@V?$basic_string@DU?$char_traits@D@std@@V?$allocator@D@2@@std@@_N@std@@@2@@std@@AEAAPEAU?$pair@V?$basic_string@DU?$char_traits@D@std@@V?$allocator@D@2@@std@@_N@1@QEAU21@$$QEAU21@@Z
xdata	ENDS
;	COMDAT xdata
xdata	SEGMENT
$chain$4$??$_Emplace_reallocate@U?$pair@V?$basic_string@DU?$char_traits@D@std@@V?$allocator@D@2@@std@@_N@std@@@?$vector@U?$pair@V?$basic_string@DU?$char_traits@D@std@@V?$allocator@D@2@@std@@_N@std@@V?$allocator@U?$pair@V?$basic_string@DU?$char_traits@D@std@@V?$allocator@D@2@@std@@_N@std@@@2@@std@@AEAAPEAU?$pair@V?$basic_string@DU?$char_traits@D@std@@V?$allocator@D@2@@std@@_N@1@QEAU21@$$QEAU21@@Z DD 021H
	DD	imagerel $LN150@Emplace_re+115
	DD	imagerel $LN150@Emplace_re+285
	DD	imagerel $chain$2$??$_Emplace_reallocate@U?$pair@V?$basic_string@DU?$char_traits@D@std@@V?$allocator@D@2@@std@@_N@std@@@?$vector@U?$pair@V?$basic_string@DU?$char_traits@D@std@@V?$allocator@D@2@@std@@_N@std@@V?$allocator@U?$pair@V?$basic_string@DU?$char_traits@D@std@@V?$allocator@D@2@@std@@_N@std@@@2@@std@@AEAAPEAU?$pair@V?$basic_string@DU?$char_traits@D@std@@V?$allocator@D@2@@std@@_N@1@QEAU21@$$QEAU21@@Z
xdata	ENDS
;	COMDAT xdata
xdata	SEGMENT
$chain$3$??$_Emplace_reallocate@U?$pair@V?$basic_string@DU?$char_traits@D@std@@V?$allocator@D@2@@std@@_N@std@@@?$vector@U?$pair@V?$basic_string@DU?$char_traits@D@std@@V?$allocator@D@2@@std@@_N@std@@V?$allocator@U?$pair@V?$basic_string@DU?$char_traits@D@std@@V?$allocator@D@2@@std@@_N@std@@@2@@std@@AEAAPEAU?$pair@V?$basic_string@DU?$char_traits@D@std@@V?$allocator@D@2@@std@@_N@1@QEAU21@$$QEAU21@@Z DQ 00005d40500020521r ; 8.10511e-309
	DD	imagerel $LN150@Emplace_re+115
	DD	imagerel $LN150@Emplace_re+285
	DD	imagerel $chain$2$??$_Emplace_reallocate@U?$pair@V?$basic_string@DU?$char_traits@D@std@@V?$allocator@D@2@@std@@_N@std@@@?$vector@U?$pair@V?$basic_string@DU?$char_traits@D@std@@V?$allocator@D@2@@std@@_N@std@@V?$allocator@U?$pair@V?$basic_string@DU?$char_traits@D@std@@V?$allocator@D@2@@std@@_N@std@@@2@@std@@AEAAPEAU?$pair@V?$basic_string@DU?$char_traits@D@std@@V?$allocator@D@2@@std@@_N@1@QEAU21@$$QEAU21@@Z
xdata	ENDS
;	COMDAT xdata
xdata	SEGMENT
$chain$2$??$_Emplace_reallocate@U?$pair@V?$basic_string@DU?$char_traits@D@std@@V?$allocator@D@2@@std@@_N@std@@@?$vector@U?$pair@V?$basic_string@DU?$char_traits@D@std@@V?$allocator@D@2@@std@@_N@std@@V?$allocator@U?$pair@V?$basic_string@DU?$char_traits@D@std@@V?$allocator@D@2@@std@@_N@std@@@2@@std@@AEAAPEAU?$pair@V?$basic_string@DU?$char_traits@D@std@@V?$allocator@D@2@@std@@_N@1@QEAU21@$$QEAU21@@Z DQ 00004e40f00060f21r ; 6.80157e-309
	DQ	0000f34050006640ar		; 2.11427e-308
	DD	imagerel $LN150@Emplace_re
	DD	imagerel $LN150@Emplace_re+115
	DD	imagerel $unwind$??$_Emplace_reallocate@U?$pair@V?$basic_string@DU?$char_traits@D@std@@V?$allocator@D@2@@std@@_N@std@@@?$vector@U?$pair@V?$basic_string@DU?$char_traits@D@std@@V?$allocator@D@2@@std@@_N@std@@V?$allocator@U?$pair@V?$basic_string@DU?$char_traits@D@std@@V?$allocator@D@2@@std@@_N@std@@@2@@std@@AEAAPEAU?$pair@V?$basic_string@DU?$char_traits@D@std@@V?$allocator@D@2@@std@@_N@1@QEAU21@$$QEAU21@@Z
xdata	ENDS
;	COMDAT xdata
xdata	SEGMENT
$unwind$??$_Emplace_reallocate@U?$pair@V?$basic_string@DU?$char_traits@D@std@@V?$allocator@D@2@@std@@_N@std@@@?$vector@U?$pair@V?$basic_string@DU?$char_traits@D@std@@V?$allocator@D@2@@std@@_N@std@@V?$allocator@U?$pair@V?$basic_string@DU?$char_traits@D@std@@V?$allocator@D@2@@std@@_N@std@@@2@@std@@AEAAPEAU?$pair@V?$basic_string@DU?$char_traits@D@std@@V?$allocator@D@2@@std@@_N@1@QEAU21@$$QEAU21@@Z DQ 0f007620b00050b01r ; -4.53781e+231
	DQ	0000050027003c005r		; 4.34636e-310
xdata	ENDS
;	COMDAT xdata
xdata	SEGMENT
$chain$6$??$_Emplace_reallocate@AEBQEAUsMesh@@@?$vector@PEAUsMesh@@V?$allocator@PEAUsMesh@@@std@@@std@@AEAAPEAPEAUsMesh@@QEAPEAU2@AEBQEAU2@@Z DQ 00004f40000060021r ; 6.88817e-309
	DQ	0000c3400000d6400r		; 1.69705e-308
	DD	imagerel $LN168@Emplace_re
	DD	imagerel $LN168@Emplace_re+70
	DD	imagerel $unwind$??$_Emplace_reallocate@AEBQEAUsMesh@@@?$vector@PEAUsMesh@@V?$allocator@PEAUsMesh@@@std@@@std@@AEAAPEAPEAUsMesh@@QEAPEAU2@AEBQEAU2@@Z
xdata	ENDS
;	COMDAT xdata
xdata	SEGMENT
$chain$5$??$_Emplace_reallocate@AEBQEAUsMesh@@@?$vector@PEAUsMesh@@V?$allocator@PEAUsMesh@@@std@@@std@@AEAAPEAPEAUsMesh@@QEAPEAU2@AEBQEAU2@@Z DD 021H
	DD	imagerel $LN168@Emplace_re
	DD	imagerel $LN168@Emplace_re+70
	DD	imagerel $unwind$??$_Emplace_reallocate@AEBQEAUsMesh@@@?$vector@PEAUsMesh@@V?$allocator@PEAUsMesh@@@std@@@std@@AEAAPEAPEAUsMesh@@QEAPEAU2@AEBQEAU2@@Z
xdata	ENDS
;	COMDAT xdata
xdata	SEGMENT
$chain$4$??$_Emplace_reallocate@AEBQEAUsMesh@@@?$vector@PEAUsMesh@@V?$allocator@PEAUsMesh@@@std@@@std@@AEAAPEAPEAUsMesh@@QEAPEAU2@AEBQEAU2@@Z DQ 00004f40000060021r ; 6.88817e-309
	DQ	0000c3400000d6400r		; 1.69705e-308
	DD	imagerel $LN168@Emplace_re
	DD	imagerel $LN168@Emplace_re+70
	DD	imagerel $unwind$??$_Emplace_reallocate@AEBQEAUsMesh@@@?$vector@PEAUsMesh@@V?$allocator@PEAUsMesh@@@std@@@std@@AEAAPEAPEAUsMesh@@QEAPEAU2@AEBQEAU2@@Z
xdata	ENDS
;	COMDAT xdata
xdata	SEGMENT
$chain$2$??$_Emplace_reallocate@AEBQEAUsMesh@@@?$vector@PEAUsMesh@@V?$allocator@PEAUsMesh@@@std@@@std@@AEAAPEAPEAUsMesh@@QEAPEAU2@AEBQEAU2@@Z DQ 00004f41900061921r ; 6.8887e-309
	DQ	0000c3405000d640er		; 1.69706e-308
	DD	imagerel $LN168@Emplace_re
	DD	imagerel $LN168@Emplace_re+70
	DD	imagerel $unwind$??$_Emplace_reallocate@AEBQEAUsMesh@@@?$vector@PEAUsMesh@@V?$allocator@PEAUsMesh@@@std@@@std@@AEAAPEAPEAUsMesh@@QEAPEAU2@AEBQEAU2@@Z
xdata	ENDS
;	COMDAT xdata
xdata	SEGMENT
$unwind$??$_Emplace_reallocate@AEBQEAUsMesh@@@?$vector@PEAUsMesh@@V?$allocator@PEAUsMesh@@@std@@@std@@AEAAPEAPEAUsMesh@@QEAPEAU2@AEBQEAU2@@Z DQ 0e007420b00050b01r ; -3.89798e+154
	DQ	0000050027003c005r		; 4.34636e-310
xdata	ENDS
;	COMDAT xdata
xdata	SEGMENT
$chain$8$??$_Emplace_reallocate@UsLODInfo@sMesh@@@?$vector@UsLODInfo@sMesh@@V?$allocator@UsLODInfo@sMesh@@@std@@@std@@AEAAPEAUsLODInfo@sMesh@@QEAU23@$$QEAU23@@Z DQ 00004e40000060021r ; 6.80125e-309
	DQ	0000f340000066400r		; 2.11425e-308
	DD	imagerel $LN150@Emplace_re
	DD	imagerel $LN150@Emplace_re+115
	DD	imagerel $unwind$??$_Emplace_reallocate@UsLODInfo@sMesh@@@?$vector@UsLODInfo@sMesh@@V?$allocator@UsLODInfo@sMesh@@@std@@@std@@AEAAPEAUsLODInfo@sMesh@@QEAU23@$$QEAU23@@Z
xdata	ENDS
;	COMDAT xdata
xdata	SEGMENT
$chain$7$??$_Emplace_reallocate@UsLODInfo@sMesh@@@?$vector@UsLODInfo@sMesh@@V?$allocator@UsLODInfo@sMesh@@@std@@@std@@AEAAPEAUsLODInfo@sMesh@@QEAU23@$$QEAU23@@Z DD 021H
	DD	imagerel $LN150@Emplace_re
	DD	imagerel $LN150@Emplace_re+115
	DD	imagerel $unwind$??$_Emplace_reallocate@UsLODInfo@sMesh@@@?$vector@UsLODInfo@sMesh@@V?$allocator@UsLODInfo@sMesh@@@std@@@std@@AEAAPEAUsLODInfo@sMesh@@QEAU23@$$QEAU23@@Z
xdata	ENDS
;	COMDAT xdata
xdata	SEGMENT
$chain$6$??$_Emplace_reallocate@UsLODInfo@sMesh@@@?$vector@UsLODInfo@sMesh@@V?$allocator@UsLODInfo@sMesh@@@std@@@std@@AEAAPEAUsLODInfo@sMesh@@QEAU23@$$QEAU23@@Z DQ 00004e40000060021r ; 6.80125e-309
	DQ	0000f340000066400r		; 2.11425e-308
	DD	imagerel $LN150@Emplace_re
	DD	imagerel $LN150@Emplace_re+115
	DD	imagerel $unwind$??$_Emplace_reallocate@UsLODInfo@sMesh@@@?$vector@UsLODInfo@sMesh@@V?$allocator@UsLODInfo@sMesh@@@std@@@std@@AEAAPEAUsLODInfo@sMesh@@QEAU23@$$QEAU23@@Z
xdata	ENDS
;	COMDAT xdata
xdata	SEGMENT
$chain$4$??$_Emplace_reallocate@UsLODInfo@sMesh@@@?$vector@UsLODInfo@sMesh@@V?$allocator@UsLODInfo@sMesh@@@std@@@std@@AEAAPEAUsLODInfo@sMesh@@QEAU23@$$QEAU23@@Z DD 021H
	DD	imagerel $LN150@Emplace_re+115
	DD	imagerel $LN150@Emplace_re+285
	DD	imagerel $chain$2$??$_Emplace_reallocate@UsLODInfo@sMesh@@@?$vector@UsLODInfo@sMesh@@V?$allocator@UsLODInfo@sMesh@@@std@@@std@@AEAAPEAUsLODInfo@sMesh@@QEAU23@$$QEAU23@@Z
xdata	ENDS
;	COMDAT xdata
xdata	SEGMENT
$chain$3$??$_Emplace_reallocate@UsLODInfo@sMesh@@@?$vector@UsLODInfo@sMesh@@V?$allocator@UsLODInfo@sMesh@@@std@@@std@@AEAAPEAUsLODInfo@sMesh@@QEAU23@$$QEAU23@@Z DQ 00005d40500020521r ; 8.10511e-309
	DD	imagerel $LN150@Emplace_re+115
	DD	imagerel $LN150@Emplace_re+285
	DD	imagerel $chain$2$??$_Emplace_reallocate@UsLODInfo@sMesh@@@?$vector@UsLODInfo@sMesh@@V?$allocator@UsLODInfo@sMesh@@@std@@@std@@AEAAPEAUsLODInfo@sMesh@@QEAU23@$$QEAU23@@Z
xdata	ENDS
;	COMDAT xdata
xdata	SEGMENT
$chain$2$??$_Emplace_reallocate@UsLODInfo@sMesh@@@?$vector@UsLODInfo@sMesh@@V?$allocator@UsLODInfo@sMesh@@@std@@@std@@AEAAPEAUsLODInfo@sMesh@@QEAU23@$$QEAU23@@Z DQ 00004e40f00060f21r ; 6.80157e-309
	DQ	0000f34050006640ar		; 2.11427e-308
	DD	imagerel $LN150@Emplace_re
	DD	imagerel $LN150@Emplace_re+115
	DD	imagerel $unwind$??$_Emplace_reallocate@UsLODInfo@sMesh@@@?$vector@UsLODInfo@sMesh@@V?$allocator@UsLODInfo@sMesh@@@std@@@std@@AEAAPEAUsLODInfo@sMesh@@QEAU23@$$QEAU23@@Z
xdata	ENDS
;	COMDAT xdata
xdata	SEGMENT
$unwind$??$_Emplace_reallocate@UsLODInfo@sMesh@@@?$vector@UsLODInfo@sMesh@@V?$allocator@UsLODInfo@sMesh@@@std@@@std@@AEAAPEAUsLODInfo@sMesh@@QEAU23@$$QEAU23@@Z DQ 0f007620b00050b01r ; -4.53781e+231
	DQ	0000050027003c005r		; 4.34636e-310
xdata	ENDS
;	COMDAT xdata
xdata	SEGMENT
$unwind$??$_Allocate_for_capacity@$0A@@?$basic_string@DU?$char_traits@D@std@@V?$allocator@D@2@@std@@CAPEADAEAV?$allocator@D@1@AEA_K@Z DQ 03002320600020601r ; 1.96423e-77
xdata	ENDS
;	COMDAT xdata
xdata	SEGMENT
