; Listing generated by Microsoft (R) Optimizing Compiler Version 19.43.34808.0 

include listing.inc

INCLUDELIB OLDNAMES

PUBLIC	??_C@_0BB@FNNNAHKL@FindFarthestTank@		; `string'
;	COMDAT ??_C@_0BB@FNNNAHKL@FindFarthestTank@
CONST	SEGMENT
??_C@_0BB@FNNNAHKL@FindFarthestTank@ DB 'FindFarthestTank', 00H ; `string'
?_Fake_alloc@std@@3U_Fake_allocator@1@B	ORG $+1		; std::_Fake_alloc
PUBLIC	??R?$minus@M@std@@QEBAMAEBM0@Z			; std::minus<float>::operator()
PUBLIC	??$call@U?$minus@M@std@@@?$functor2@Uvec@glm@@$02M$0A@@detail@glm@@SA?AU?$vec@$02M$0A@@2@U?$minus@M@std@@AEBU32@1@Z ; glm::detail::functor2<glm::vec,3,float,0>::call<std::minus<float> >
PUBLIC	?call@?$compute_vec_sub@$02M$0A@$0A@@detail@glm@@SA?AU?$vec@$02M$0A@@3@AEBU43@0@Z ; glm::detail::compute_vec_sub<3,float,0,0>::call
PUBLIC	??$_Destroy_range@V?$allocator@PEAViTank@@@std@@@std@@YAXPEAPEAViTank@@QEAPEAV1@AEAV?$allocator@PEAViTank@@@0@@Z ; std::_Destroy_range<std::allocator<iTank *> >
PUBLIC	??$?ZM@?$vec@$02M$0A@@glm@@QEAAAEAU01@AEBU01@@Z	; glm::vec<3,float,0>::operator-=<float>
PUBLIC	?deallocate@?$allocator@PEAViTank@@@std@@QEAAXQEAPEAViTank@@_K@Z ; std::allocator<iTank *>::deallocate
PUBLIC	?_Get_first@?$_Compressed_pair@V?$allocator@PEAViTank@@@std@@V?$_Vector_val@U?$_Simple_types@PEAViTank@@@std@@@2@$00@std@@QEAAAEAV?$allocator@PEAViTank@@@2@XZ ; std::_Compressed_pair<std::allocator<iTank *>,std::_Vector_val<std::_Simple_types<iTank *> >,1>::_Get_first
PUBLIC	?_Getal@?$vector@PEAViTank@@V?$allocator@PEAViTank@@@std@@@std@@AEAAAEAV?$allocator@PEAViTank@@@2@XZ ; std::vector<iTank *,std::allocator<iTank *> >::_Getal
PUBLIC	?call@?$compute_length@$02M$0A@$0A@@detail@glm@@SAMAEBU?$vec@$02M$0A@@3@@Z ; glm::detail::compute_length<3,float,0,0>::call
PUBLIC	??$length@$02M$0A@@glm@@YAMAEBU?$vec@$02M$0A@@0@@Z ; glm::length<3,float,0>
PUBLIC	??$?GM$0A@@glm@@YA?AU?$vec@$02M$0A@@0@AEBU10@0@Z ; glm::operator-<float,0>
PUBLIC	?call@?$compute_distance@$02M$0A@$0A@@detail@glm@@SAMAEBU?$vec@$02M$0A@@3@0@Z ; glm::detail::compute_distance<3,float,0,0>::call
PUBLIC	??$_Destroy_range@V?$allocator@U?$vec@$03M$0A@@glm@@@std@@@std@@YAXPEAU?$vec@$03M$0A@@glm@@QEAU12@AEAV?$allocator@U?$vec@$03M$0A@@glm@@@0@@Z ; std::_Destroy_range<std::allocator<glm::vec<4,float,0> > >
PUBLIC	??$distance@$02M$0A@@glm@@YAMAEBU?$vec@$02M$0A@@0@0@Z ; glm::distance<3,float,0>
PUBLIC	??$?0M$0A@@?$vec@$02M$0A@@glm@@QEAA@AEBU?$vec@$03M$0A@@1@@Z ; glm::vec<3,float,0>::vec<3,float,0><float,0>
PUBLIC	?_Get_first@?$_Compressed_pair@V?$allocator@U?$vec@$03M$0A@@glm@@@std@@V?$_Vector_val@U?$_Simple_types@U?$vec@$03M$0A@@glm@@@std@@@2@$00@std@@QEAAAEAV?$allocator@U?$vec@$03M$0A@@glm@@@2@XZ ; std::_Compressed_pair<std::allocator<glm::vec<4,float,0> >,std::_Vector_val<std::_Simple_types<glm::vec<4,float,0> > >,1>::_Get_first
PUBLIC	?deallocate@?$allocator@U?$vec@$03M$0A@@glm@@@std@@QEAAXQEAU?$vec@$03M$0A@@glm@@_K@Z ; std::allocator<glm::vec<4,float,0> >::deallocate
PUBLIC	?_Getal@?$vector@U?$vec@$03M$0A@@glm@@V?$allocator@U?$vec@$03M$0A@@glm@@@std@@@std@@AEAAAEAV?$allocator@U?$vec@$03M$0A@@glm@@@2@XZ ; std::vector<glm::vec<4,float,0>,std::allocator<glm::vec<4,float,0> > >::_Getal
PUBLIC	?_Tidy@?$vector@U?$vec@$03M$0A@@glm@@V?$allocator@U?$vec@$03M$0A@@glm@@@std@@@std@@AEAAXXZ ; std::vector<glm::vec<4,float,0>,std::allocator<glm::vec<4,float,0> > >::_Tidy
PUBLIC	??1?$vector@U?$vec@$03M$0A@@glm@@V?$allocator@U?$vec@$03M$0A@@glm@@@std@@@std@@QEAA@XZ ; std::vector<glm::vec<4,float,0>,std::allocator<glm::vec<4,float,0> > >::~vector<glm::vec<4,float,0>,std::allocator<glm::vec<4,float,0> > >
PUBLIC	??1sNVPair@@QEAA@XZ				; sNVPair::~sNVPair
;	COMDAT pdata
pdata	SEGMENT
$pdata$??$?ZM@?$vec@$02M$0A@@glm@@QEAAAEAU01@AEBU01@@Z DD imagerel $LN16@operator
	DD	imagerel $LN16@operator+64
	DD	imagerel $unwind$??$?ZM@?$vec@$02M$0A@@glm@@QEAAAEAU01@AEBU01@@Z
pdata	ENDS
;	COMDAT pdata
pdata	SEGMENT
$pdata$?deallocate@?$allocator@PEAViTank@@@std@@QEAAXQEAPEAViTank@@_K@Z DD imagerel $LN23@deallocate
	DD	imagerel $LN23@deallocate+67
	DD	imagerel $unwind$?deallocate@?$allocator@PEAViTank@@@std@@QEAAXQEAPEAViTank@@_K@Z
pdata	ENDS
;	COMDAT pdata
pdata	SEGMENT
$pdata$?call@?$compute_length@$02M$0A@$0A@@detail@glm@@SAMAEBU?$vec@$02M$0A@@3@@Z DD imagerel $LN30@call
	DD	imagerel $LN30@call+82
	DD	imagerel $unwind$?call@?$compute_length@$02M$0A@$0A@@detail@glm@@SAMAEBU?$vec@$02M$0A@@3@@Z
pdata	ENDS
;	COMDAT pdata
pdata	SEGMENT
$pdata$??$length@$02M$0A@@glm@@YAMAEBU?$vec@$02M$0A@@0@@Z DD imagerel $LN32@length
	DD	imagerel $LN32@length+82
	DD	imagerel $unwind$??$length@$02M$0A@@glm@@YAMAEBU?$vec@$02M$0A@@0@@Z
pdata	ENDS
;	COMDAT pdata
pdata	SEGMENT
$pdata$??$?GM$0A@@glm@@YA?AU?$vec@$02M$0A@@0@AEBU10@0@Z DD imagerel $LN18@operator
	DD	imagerel $LN18@operator+83
	DD	imagerel $unwind$??$?GM$0A@@glm@@YA?AU?$vec@$02M$0A@@0@AEBU10@0@Z
pdata	ENDS
;	COMDAT pdata
pdata	SEGMENT
$pdata$?call@?$compute_distance@$02M$0A@$0A@@detail@glm@@SAMAEBU?$vec@$02M$0A@@3@0@Z DD imagerel $LN50@call
	DD	imagerel $LN50@call+97
	DD	imagerel $unwind$?call@?$compute_distance@$02M$0A@$0A@@detail@glm@@SAMAEBU?$vec@$02M$0A@@3@0@Z
pdata	ENDS
;	COMDAT pdata
pdata	SEGMENT
$pdata$??$distance@$02M$0A@@glm@@YAMAEBU?$vec@$02M$0A@@0@0@Z DD imagerel $LN52@distance
	DD	imagerel $LN52@distance+97
	DD	imagerel $unwind$??$distance@$02M$0A@@glm@@YAMAEBU?$vec@$02M$0A@@0@0@Z
pdata	ENDS
;	COMDAT pdata
pdata	SEGMENT
$pdata$?deallocate@?$allocator@U?$vec@$03M$0A@@glm@@@std@@QEAAXQEAU?$vec@$03M$0A@@glm@@_K@Z DD imagerel $LN23@deallocate
	DD	imagerel $LN23@deallocate+66
	DD	imagerel $unwind$?deallocate@?$allocator@U?$vec@$03M$0A@@glm@@@std@@QEAAXQEAU?$vec@$03M$0A@@glm@@_K@Z
pdata	ENDS
;	COMDAT pdata
pdata	SEGMENT
$pdata$?_Tidy@?$vector@U?$vec@$03M$0A@@glm@@V?$allocator@U?$vec@$03M$0A@@glm@@@std@@@std@@AEAAXXZ DD imagerel $LN31@Tidy
	DD	imagerel $LN31@Tidy+92
	DD	imagerel $unwind$?_Tidy@?$vector@U?$vec@$03M$0A@@glm@@V?$allocator@U?$vec@$03M$0A@@glm@@@std@@@std@@AEAAXXZ
pdata	ENDS
;	COMDAT pdata
pdata	SEGMENT
$pdata$??1?$vector@U?$vec@$03M$0A@@glm@@V?$allocator@U?$vec@$03M$0A@@glm@@@std@@@std@@QEAA@XZ DD imagerel $LN35@vector
	DD	imagerel $LN35@vector+92
	DD	imagerel $unwind$??1?$vector@U?$vec@$03M$0A@@glm@@V?$allocator@U?$vec@$03M$0A@@glm@@@std@@@std@@QEAA@XZ
pdata	ENDS
;	COMDAT pdata
pdata	SEGMENT
$pdata$??1sNVPair@@QEAA@XZ DD imagerel $LN119@sNVPair
	DD	imagerel $LN119@sNVPair+247
	DD	imagerel $unwind$??1sNVPair@@QEAA@XZ
;	COMDAT xdata
xdata	SEGMENT
$unwind$??1sNVPair@@QEAA@XZ DQ 00007340a00040a01r ; 1.00174e-308
	DD	07006320aH
xdata	ENDS
;	COMDAT xdata
xdata	SEGMENT
$unwind$??1?$vector@U?$vec@$03M$0A@@glm@@V?$allocator@U?$vec@$03M$0A@@glm@@@std@@@std@@QEAA@XZ DQ 03002320600020601r ; 1.96423e-77
xdata	ENDS
;	COMDAT xdata
xdata	SEGMENT
$unwind$?_Tidy@?$vector@U?$vec@$03M$0A@@glm@@V?$allocator@U?$vec@$03M$0A@@glm@@@std@@@std@@AEAAXXZ DQ 03002320600020601r ; 1.96423e-77
xdata	ENDS
;	COMDAT xdata
xdata	SEGMENT
$unwind$?deallocate@?$allocator@U?$vec@$03M$0A@@glm@@@std@@QEAAXQEAU?$vec@$03M$0A@@glm@@_K@Z DQ 00000420400010401r ; 3.58617e-310
xdata	ENDS
;	COMDAT xdata
xdata	SEGMENT
$unwind$??$distance@$02M$0A@@glm@@YAMAEBU?$vec@$02M$0A@@0@0@Z DQ 00000620400010401r ; 5.32451e-310
xdata	ENDS
;	COMDAT xdata
xdata	SEGMENT
$unwind$?call@?$compute_distance@$02M$0A@$0A@@detail@glm@@SAMAEBU?$vec@$02M$0A@@3@0@Z DQ 00000620400010401r ; 5.32451e-310
xdata	ENDS
;	COMDAT xdata
xdata	SEGMENT
$unwind$??$?GM$0A@@glm@@YA?AU?$vec@$02M$0A@@0@AEBU10@0@Z DQ 00000420400010401r ; 3.58617e-310
xdata	ENDS
;	COMDAT xdata
xdata	SEGMENT
$unwind$??$length@$02M$0A@@glm@@YAMAEBU?$vec@$02M$0A@@0@@Z DQ 00000620400010401r ; 5.32451e-310
xdata	ENDS
;	COMDAT xdata
xdata	SEGMENT
$unwind$?call@?$compute_length@$02M$0A@$0A@@detail@glm@@SAMAEBU?$vec@$02M$0A@@3@@Z DQ 00000620400010401r ; 5.32451e-310
xdata	ENDS
;	COMDAT xdata
xdata	SEGMENT
$unwind$?deallocate@?$allocator@PEAViTank@@@std@@QEAAXQEAPEAViTank@@_K@Z DQ 00000420400010401r ; 3.58617e-310
xdata	ENDS
;	COMDAT xdata
xdata	SEGMENT
$unwind$??$?ZM@?$vec@$02M$0A@@glm@@QEAAAEAU01@AEBU01@@Z DQ 00000220400010401r ; 1.84783e-310
END
