; Listing generated by Microsoft (R) Optimizing Compiler Version 19.43.34808.0 

include listing.inc

INCLUDELIB OLDNAMES

PUBLIC	??$call@$01@?$convert_splat@$02M$0A@$0A@@detail@glm@@SA?AU?$vec@$02M$0A@@2@AEBU32@@Z ; glm::detail::convert_splat<3,float,0,0>::call<2>
PUBLIC	??$call@$00@?$convert_splat@$02M$0A@$0A@@detail@glm@@SA?AU?$vec@$02M$0A@@2@AEBU32@@Z ; glm::detail::convert_splat<3,float,0,0>::call<1>
PUBLIC	??$call@$0A@@?$convert_splat@$02M$0A@$0A@@detail@glm@@SA?AU?$vec@$02M$0A@@2@AEBU32@@Z ; glm::detail::convert_splat<3,float,0,0>::call<0>
PUBLIC	??$call@U?$plus@M@std@@@?$functor2@Uvec@glm@@$02M$0A@@detail@glm@@SA?AU?$vec@$02M$0A@@2@U?$plus@M@std@@AEBU32@1@Z ; glm::detail::functor2<glm::vec,3,float,0>::call<std::plus<float> >
PUBLIC	??$splatZ@$02M$0A@@glm@@YA?AU?$vec@$02M$0A@@0@AEBU10@@Z ; glm::splatZ<3,float,0>
PUBLIC	??$splatY@$02M$0A@@glm@@YA?AU?$vec@$02M$0A@@0@AEBU10@@Z ; glm::splatY<3,float,0>
PUBLIC	??$splatX@$02M$0A@@glm@@YA?AU?$vec@$02M$0A@@0@AEBU10@@Z ; glm::splatX<3,float,0>
PUBLIC	??$?0M$0A@@?$vec@$02M$0A@@glm@@QEAA@AEBU?$vec@$03M$0A@@1@@Z ; glm::vec<3,float,0>::vec<3,float,0><float,0>
PUBLIC	??A?$mat@$02$02M$0A@@glm@@QEAAAEAU?$vec@$02M$0A@@1@H@Z ; glm::mat<3,3,float,0>::operator[]
PUBLIC	??A?$mat@$02$02M$0A@@glm@@QEBAAEBU?$vec@$02M$0A@@1@H@Z ; glm::mat<3,3,float,0>::operator[]
PUBLIC	?call@?$mul3x3@M$0A@$0A@@detail@glm@@SA?AU?$mat@$02$02M$0A@@3@AEBU43@0@Z ; glm::detail::mul3x3<float,0,0>::call
PUBLIC	?call@?$compute_vec_add@$02M$0A@$0A@@detail@glm@@SA?AU?$vec@$02M$0A@@3@AEBU43@0@Z ; glm::detail::compute_vec_add<3,float,0,0>::call
PUBLIC	??$?YM@?$vec@$02M$0A@@glm@@QEAAAEAU01@AEBU01@@Z	; glm::vec<3,float,0>::operator+=<float>
PUBLIC	??$?HM$0A@@glm@@YA?AU?$vec@$02M$0A@@0@AEBU10@0@Z ; glm::operator+<float,0>
PUBLIC	??$?DM$0A@@glm@@YA?AU?$mat@$02$02M$0A@@0@AEBU10@0@Z ; glm::operator*<float,0>
PUBLIC	??$?DM$0A@@glm@@YA?AU?$vec@$02M$0A@@0@AEBU?$mat@$02$02M$0A@@0@AEBU10@@Z ; glm::operator*<float,0>
PUBLIC	??0?$mat@$02$02M$0A@@glm@@QEAA@AEBU?$mat@$03$03M$0A@@1@@Z ; glm::mat<3,3,float,0>::mat<3,3,float,0>
PUBLIC	?setTarget@cBasicFlyCamera@@QEAAXU?$vec@$02M$0A@@glm@@@Z ; cBasicFlyCamera::setTarget
PUBLIC	?getYaw@cBasicFlyCamera@@QEAAMXZ		; cBasicFlyCamera::getYaw
PUBLIC	?getPitch@cBasicFlyCamera@@QEAAMXZ		; cBasicFlyCamera::getPitch
PUBLIC	?adjustMovementSpeed@cBasicFlyCamera@@QEAAXM@Z	; cBasicFlyCamera::adjustMovementSpeed
PUBLIC	?pitchUpDown@cBasicFlyCamera@@QEAAXM@Z		; cBasicFlyCamera::pitchUpDown
PUBLIC	?rotateLeftRight_Yaw_NoScaling@cBasicFlyCamera@@QEAAXM@Z ; cBasicFlyCamera::rotateLeftRight_Yaw_NoScaling
PUBLIC	?rotateLeftRight_Yaw@cBasicFlyCamera@@QEAAXM@Z	; cBasicFlyCamera::rotateLeftRight_Yaw
PUBLIC	?getTargetLocation@cBasicFlyCamera@@QEAA?AU?$vec@$02M$0A@@glm@@XZ ; cBasicFlyCamera::getTargetLocation
PUBLIC	?getTargetRelativeToCamera@cBasicFlyCamera@@QEAA?AU?$vec@$02M$0A@@glm@@XZ ; cBasicFlyCamera::getTargetRelativeToCamera
PUBLIC	?getEyeLocation@cBasicFlyCamera@@QEAA?AU?$vec@$02M$0A@@glm@@XZ ; cBasicFlyCamera::getEyeLocation
PUBLIC	?setEyeLocation@cBasicFlyCamera@@QEAAXMMM@Z	; cBasicFlyCamera::setEyeLocation
PUBLIC	?setEyeLocation@cBasicFlyCamera@@QEAAXU?$vec@$02M$0A@@glm@@@Z ; cBasicFlyCamera::setEyeLocation
PUBLIC	??0cBasicFlyCamera@@QEAA@XZ			; cBasicFlyCamera::cBasicFlyCamera
;	COMDAT pdata
pdata	SEGMENT
$pdata$?call@?$mul3x3@M$0A@$0A@@detail@glm@@SA?AU?$mat@$02$02M$0A@@3@AEBU43@0@Z DD imagerel $LN278@call
	DD	imagerel $LN278@call+546
	DD	imagerel $unwind$?call@?$mul3x3@M$0A@$0A@@detail@glm@@SA?AU?$mat@$02$02M$0A@@3@AEBU43@0@Z
pdata	ENDS
;	COMDAT pdata
pdata	SEGMENT
$pdata$??$?YM@?$vec@$02M$0A@@glm@@QEAAAEAU01@AEBU01@@Z DD imagerel $LN16@operator
	DD	imagerel $LN16@operator+56
	DD	imagerel $unwind$??$?YM@?$vec@$02M$0A@@glm@@QEAAAEAU01@AEBU01@@Z
pdata	ENDS
;	COMDAT pdata
pdata	SEGMENT
$pdata$??$?HM$0A@@glm@@YA?AU?$vec@$02M$0A@@0@AEBU10@0@Z DD imagerel $LN18@operator
	DD	imagerel $LN18@operator+83
	DD	imagerel $unwind$??$?HM$0A@@glm@@YA?AU?$vec@$02M$0A@@0@AEBU10@0@Z
pdata	ENDS
;	COMDAT pdata
pdata	SEGMENT
$pdata$??$?DM$0A@@glm@@YA?AU?$mat@$02$02M$0A@@0@AEBU10@0@Z DD imagerel $LN4@operator
	DD	imagerel $LN4@operator+23
	DD	imagerel $unwind$??$?DM$0A@@glm@@YA?AU?$mat@$02$02M$0A@@0@AEBU10@0@Z
pdata	ENDS
;	COMDAT pdata
pdata	SEGMENT
$pdata$??$?DM$0A@@glm@@YA?AU?$vec@$02M$0A@@0@AEBU?$mat@$02$02M$0A@@0@AEBU10@@Z DD imagerel $LN187@operator
	DD	imagerel $LN187@operator+424
	DD	imagerel $unwind$??$?DM$0A@@glm@@YA?AU?$vec@$02M$0A@@0@AEBU?$mat@$02$02M$0A@@0@AEBU10@@Z
pdata	ENDS
;	COMDAT pdata
pdata	SEGMENT
$pdata$?getTargetLocation@cBasicFlyCamera@@QEAA?AU?$vec@$02M$0A@@glm@@XZ DD imagerel $LN81@getTargetL
	DD	imagerel $LN81@getTargetL+580
	DD	imagerel $unwind$?getTargetLocation@cBasicFlyCamera@@QEAA?AU?$vec@$02M$0A@@glm@@XZ
pdata	ENDS
;	COMDAT pdata
pdata	SEGMENT
$pdata$?getTargetRelativeToCamera@cBasicFlyCamera@@QEAA?AU?$vec@$02M$0A@@glm@@XZ DD imagerel $LN55@getTargetR
	DD	imagerel $LN55@getTargetR+182
	DD	imagerel $unwind$?getTargetRelativeToCamera@cBasicFlyCamera@@QEAA?AU?$vec@$02M$0A@@glm@@XZ
;	COMDAT xdata
xdata	SEGMENT
$unwind$?getTargetRelativeToCamera@cBasicFlyCamera@@QEAA?AU?$vec@$02M$0A@@glm@@XZ DQ 00008340a00040a01r ; 1.14081e-308
	DD	07006520aH
xdata	ENDS
;	COMDAT xdata
xdata	SEGMENT
$unwind$?getTargetLocation@cBasicFlyCamera@@QEAA?AU?$vec@$02M$0A@@glm@@XZ DQ 0002a741700072519r ; 7.35762e-308
	DQ	00026011700283417r		; 6.12014e-308
	DD	0500bH
	DD	imagerel __GSHandlerCheck
	DD	0128H
xdata	ENDS
;	COMDAT xdata
xdata	SEGMENT
$unwind$??$?DM$0A@@glm@@YA?AU?$vec@$02M$0A@@0@AEBU?$mat@$02$02M$0A@@0@AEBU10@@Z DQ 00001a838000b3801r ; 2.30449e-309
	DQ	0000388230002982cr		; 4.91155e-309
	DQ	0000568120004781ar		; 7.5187e-309
	DD	0c204H
xdata	ENDS
;	COMDAT xdata
xdata	SEGMENT
$unwind$??$?DM$0A@@glm@@YA?AU?$mat@$02$02M$0A@@0@AEBU10@0@Z DQ 03002320600020601r ; 1.96423e-77
xdata	ENDS
;	COMDAT xdata
xdata	SEGMENT
$unwind$??$?HM$0A@@glm@@YA?AU?$vec@$02M$0A@@0@AEBU10@0@Z DQ 00000420400010401r ; 3.58617e-310
xdata	ENDS
;	COMDAT xdata
xdata	SEGMENT
$unwind$??$?YM@?$vec@$02M$0A@@glm@@QEAAAEAU01@AEBU01@@Z DQ 00000220400010401r ; 1.84783e-310
xdata	ENDS
;	COMDAT xdata
xdata	SEGMENT
$unwind$?call@?$mul3x3@M$0A@$0A@@detail@glm@@SA?AU?$mat@$02$02M$0A@@3@AEBU43@0@Z DQ 00003685100045101r ; 4.73869e-309
	DD	030027206H
END
