; Listing generated by Microsoft (R) Optimizing Compiler Version 19.43.34808.0 

include listing.inc

INCLUDELIB OLDNAMES

PUBLIC	??_R3cCommandGroup@@8				; cCommandGroup::`RTTI Class Hierarchy Descriptor'
PUBLIC	??_R0?AVcCommandGroup@@@8			; cCommandGroup `RTTI Type Descriptor'
PUBLIC	??_R4cCommandGroup@@6B@				; cCommandGroup::`RTTI Complete Object Locator'
PUBLIC	??_7cCommandGroup@@6B@				; cCommandGroup::`vftable'
PUBLIC	??_R1A@?0A@EA@cCommandGroup@@8			; cCommandGroup::`RTTI Base Class Descriptor at (0,-1,0,64)'
PUBLIC	??_R2cCommandGroup@@8				; cCommandGroup::`RTTI Base Class Array'
;	COMDAT ??_R2cCommandGroup@@8
rdata$r	SEGMENT
??_R2cCommandGroup@@8 DD imagerel ??_R1A@?0A@EA@cCommandGroup@@8 ; cCommandGroup::`RTTI Base Class Array'
	DD	imagerel ??_R1A@?0A@EA@iCommand@@8
	ORG $+3
rdata$r	ENDS
;	COMDAT ??_R1A@?0A@EA@cCommandGroup@@8
rdata$r	SEGMENT
??_R1A@?0A@EA@cCommandGroup@@8 DD imagerel ??_R0?AVcCommandGroup@@@8 ; cCommandGroup::`RTTI Base Class Descriptor at (0,-1,0,64)'
	DD	01H
	DD	00H
	DD	0ffffffffH
	DD	00H
	DD	040H
	DD	imagerel ??_R3cCommandGroup@@8
rdata$r	ENDS
;	COMDAT ??_7cCommandGroup@@6B@
CONST	SEGMENT
??_7cCommandGroup@@6B@ DQ FLAT:??_R4cCommandGroup@@6B@	; cCommandGroup::`vftable'
	DQ	FLAT:??_EcCommandGroup@@UEAAPEAXI@Z
	DQ	FLAT:?OnStart@cCommandGroup@@UEAAXXZ
	DQ	FLAT:?Update@cCommandGroup@@UEAAXN@Z
	DQ	FLAT:?isFinished@cCommandGroup@@UEAA_NXZ
	DQ	FLAT:?OnFinished@cCommandGroup@@UEAAXXZ
CONST	ENDS
;	COMDAT ??_R4cCommandGroup@@6B@
rdata$r	SEGMENT
??_R4cCommandGroup@@6B@ DD 01H				; cCommandGroup::`RTTI Complete Object Locator'
	DD	00H
	DD	00H
	DD	imagerel ??_R0?AVcCommandGroup@@@8
	DD	imagerel ??_R3cCommandGroup@@8
	DD	imagerel ??_R4cCommandGroup@@6B@
rdata$r	ENDS
;	COMDAT ??_R0?AVcCommandGroup@@@8
data$rs	SEGMENT
??_R0?AVcCommandGroup@@@8 DQ FLAT:??_7type_info@@6B@	; cCommandGroup `RTTI Type Descriptor'
	DQ	0000000000000000H
	DB	'.?AVcCommandGroup@@', 00H
data$rs	ENDS
;	COMDAT ??_R3cCommandGroup@@8
rdata$r	SEGMENT
??_R3cCommandGroup@@8 DD 00H				; cCommandGroup::`RTTI Class Hierarchy Descriptor'
	DD	00H
	DD	02H
	DD	imagerel ??_R2cCommandGroup@@8
?_Fake_alloc@std@@3U_Fake_allocator@1@B	ORG $+1		; std::_Fake_alloc
PUBLIC	??$construct@PEAViCommand@@PEAV1@@?$_Default_allocator_traits@V?$allocator@PEAViCommand@@@std@@@std@@SAXAEAV?$allocator@PEAViCommand@@@1@QEAPEAViCommand@@$$QEAPEAV3@@Z ; std::_Default_allocator_traits<std::allocator<iCommand *> >::construct<iCommand *,iCommand *>
PUBLIC	??$forward@PEAViCommand@@@std@@YA$$QEAPEAViCommand@@AEAPEAV1@@Z ; std::forward<iCommand *>
PUBLIC	??$_Emplace_back@PEAViCommand@@@?$_Uninitialized_backout_al@V?$allocator@PEAViCommand@@@std@@@std@@QEAAX$$QEAPEAViCommand@@@Z ; std::_Uninitialized_backout_al<std::allocator<iCommand *> >::_Emplace_back<iCommand *>
PUBLIC	??$addressof@PEAViCommand@@@std@@YAPEAPEAViCommand@@AEAPEAV1@@Z ; std::addressof<iCommand *>
PUBLIC	?allocate@?$allocator@PEAViCommand@@@std@@QEAAPEAPEAViCommand@@_K@Z ; std::allocator<iCommand *>::allocate
PUBLIC	??0?$_Uninitialized_backout_al@V?$allocator@PEAViCommand@@@std@@@std@@QEAA@PEAPEAViCommand@@AEAV?$allocator@PEAViCommand@@@1@@Z ; std::_Uninitialized_backout_al<std::allocator<iCommand *> >::_Uninitialized_backout_al<std::allocator<iCommand *> >
PUBLIC	??1?$_Uninitialized_backout_al@V?$allocator@PEAViCommand@@@std@@@std@@QEAA@XZ ; std::_Uninitialized_backout_al<std::allocator<iCommand *> >::~_Uninitialized_backout_al<std::allocator<iCommand *> >
PUBLIC	?_Release@?$_Uninitialized_backout_al@V?$allocator@PEAViCommand@@@std@@@std@@QEAAPEAPEAViCommand@@XZ ; std::_Uninitialized_backout_al<std::allocator<iCommand *> >::_Release
PUBLIC	?__autoclassinit2@?$_Uninitialized_backout_al@V?$allocator@PEAViCommand@@@std@@@std@@QEAAX_K@Z ; std::_Uninitialized_backout_al<std::allocator<iCommand *> >::__autoclassinit2
PUBLIC	??$_Uninitialized_move@PEAPEAViCommand@@V?$allocator@PEAViCommand@@@std@@@std@@YAPEAPEAViCommand@@QEAPEAV1@0PEAPEAV1@AEAV?$allocator@PEAViCommand@@@0@@Z ; std::_Uninitialized_move<iCommand * *,std::allocator<iCommand *> >
PUBLIC	??$_Get_unwrapped@AEBQEAPEAViCommand@@@std@@YA?A_TAEBQEAPEAViCommand@@@Z ; std::_Get_unwrapped<iCommand * * const &>
PUBLIC	??$construct@PEAViCommand@@AEBQEAV1@@?$_Default_allocator_traits@V?$allocator@PEAViCommand@@@std@@@std@@SAXAEAV?$allocator@PEAViCommand@@@1@QEAPEAViCommand@@AEBQEAV3@@Z ; std::_Default_allocator_traits<std::allocator<iCommand *> >::construct<iCommand *,iCommand * const &>
PUBLIC	??$_Allocate_at_least_helper@V?$allocator@PEAViCommand@@@std@@@std@@YAPEAPEAViCommand@@AEAV?$allocator@PEAViCommand@@@0@AEA_K@Z ; std::_Allocate_at_least_helper<std::allocator<iCommand *> >
PUBLIC	??$_Construct_in_place@PEAViCommand@@AEBQEAV1@@std@@YAXAEAPEAViCommand@@AEBQEAV1@@Z ; std::_Construct_in_place<iCommand *,iCommand * const &>
PUBLIC	??$_Copy_memmove_tail@PEAPEAViCommand@@@std@@YAPEAPEAViCommand@@QEBDQEAPEAV1@_K2@Z ; std::_Copy_memmove_tail<iCommand * *>
PUBLIC	??$move@AEAPEAPEAViCommand@@@std@@YA$$QEAPEAPEAViCommand@@AEAPEAPEAV1@@Z ; std::move<iCommand * * &>
PUBLIC	?_Get_first@?$_Compressed_pair@V?$allocator@PEAViCommand@@@std@@V?$_Vector_val@U?$_Simple_types@PEAViCommand@@@std@@@2@$00@std@@QEBAAEBV?$allocator@PEAViCommand@@@2@XZ ; std::_Compressed_pair<std::allocator<iCommand *>,std::_Vector_val<std::_Simple_types<iCommand *> >,1>::_Get_first
PUBLIC	?max_size@?$_Default_allocator_traits@V?$allocator@PEAViCommand@@@std@@@std@@SA_KAEBV?$allocator@PEAViCommand@@@2@@Z ; std::_Default_allocator_traits<std::allocator<iCommand *> >::max_size
PUBLIC	?capacity@?$vector@PEAViCommand@@V?$allocator@PEAViCommand@@@std@@@std@@QEBA_KXZ ; std::vector<iCommand *,std::allocator<iCommand *> >::capacity
PUBLIC	?_Getal@?$vector@PEAViCommand@@V?$allocator@PEAViCommand@@@std@@@std@@AEBAAEBV?$allocator@PEAViCommand@@@2@XZ ; std::vector<iCommand *,std::allocator<iCommand *> >::_Getal
PUBLIC	?max_size@?$vector@PEAViCommand@@V?$allocator@PEAViCommand@@@std@@@std@@QEBA_KXZ ; std::vector<iCommand *,std::allocator<iCommand *> >::max_size
PUBLIC	?_Calculate_growth@?$vector@PEAViCommand@@V?$allocator@PEAViCommand@@@std@@@std@@AEBA_K_K@Z ; std::vector<iCommand *,std::allocator<iCommand *> >::_Calculate_growth
PUBLIC	?_Change_array@?$vector@PEAViCommand@@V?$allocator@PEAViCommand@@@std@@@std@@AEAAXQEAPEAViCommand@@_K1@Z ; std::vector<iCommand *,std::allocator<iCommand *> >::_Change_array
PUBLIC	?_Xlength@?$vector@PEAViCommand@@V?$allocator@PEAViCommand@@@std@@@std@@CAXXZ ; std::vector<iCommand *,std::allocator<iCommand *> >::_Xlength
PUBLIC	??1_Reallocation_guard@?$vector@PEAViCommand@@V?$allocator@PEAViCommand@@@std@@@std@@QEAA@XZ ; std::vector<iCommand *,std::allocator<iCommand *> >::_Reallocation_guard::~_Reallocation_guard
PUBLIC	??$_Emplace_reallocate@AEBQEAViCommand@@@?$vector@PEAViCommand@@V?$allocator@PEAViCommand@@@std@@@std@@AEAAPEAPEAViCommand@@QEAPEAV2@AEBQEAV2@@Z ; std::vector<iCommand *,std::allocator<iCommand *> >::_Emplace_reallocate<iCommand * const &>
PUBLIC	??$_Emplace_back_with_unused_capacity@AEBQEAViCommand@@@?$vector@PEAViCommand@@V?$allocator@PEAViCommand@@@std@@@std@@AEAAAEAPEAViCommand@@AEBQEAV2@@Z ; std::vector<iCommand *,std::allocator<iCommand *> >::_Emplace_back_with_unused_capacity<iCommand * const &>
PUBLIC	??$forward@AEBQEAViCommand@@@std@@YAAEBQEAViCommand@@AEBQEAV1@@Z ; std::forward<iCommand * const &>
PUBLIC	??$move@AEAPEAViCommand@@@std@@YA$$QEAPEAViCommand@@AEAPEAV1@@Z ; std::move<iCommand * &>
PUBLIC	??$_To_address@PEAPEAViCommand@@@std@@YA?A_PAEBQEAPEAViCommand@@@Z ; std::_To_address<iCommand * *>
PUBLIC	??$_Copy_memmove@PEAPEAViCommand@@PEAPEAV1@@std@@YAPEAPEAViCommand@@PEAPEAV1@00@Z ; std::_Copy_memmove<iCommand * *,iCommand * *>
PUBLIC	??0?$allocator@PEAViCommand@@@std@@QEAA@XZ	; std::allocator<iCommand *>::allocator<iCommand *>
PUBLIC	??0?$_Vector_val@U?$_Simple_types@PEAViCommand@@@std@@@std@@QEAA@XZ ; std::_Vector_val<std::_Simple_types<iCommand *> >::_Vector_val<std::_Simple_types<iCommand *> >
PUBLIC	??0?$allocator@PEAVcCommandGroup@@@std@@QEAA@XZ	; std::allocator<cCommandGroup *>::allocator<cCommandGroup *>
PUBLIC	??0?$_Vector_val@U?$_Simple_types@PEAVcCommandGroup@@@std@@@std@@QEAA@XZ ; std::_Vector_val<std::_Simple_types<cCommandGroup *> >::_Vector_val<std::_Simple_types<cCommandGroup *> >
PUBLIC	??$_Destroy_range@V?$allocator@PEAViCommand@@@std@@@std@@YAXPEAPEAViCommand@@QEAPEAV1@AEAV?$allocator@PEAViCommand@@@0@@Z ; std::_Destroy_range<std::allocator<iCommand *> >
PUBLIC	??$_Destroy_range@V?$allocator@PEAVcCommandGroup@@@std@@@std@@YAXPEAPEAVcCommandGroup@@QEAPEAV1@AEAV?$allocator@PEAVcCommandGroup@@@0@@Z ; std::_Destroy_range<std::allocator<cCommandGroup *> >
PUBLIC	??$?0$$V@?$_Compressed_pair@V?$allocator@PEAViCommand@@@std@@V?$_Vector_val@U?$_Simple_types@PEAViCommand@@@std@@@2@$00@std@@QEAA@U_Zero_then_variadic_args_t@1@@Z ; std::_Compressed_pair<std::allocator<iCommand *>,std::_Vector_val<std::_Simple_types<iCommand *> >,1>::_Compressed_pair<std::allocator<iCommand *>,std::_Vector_val<std::_Simple_types<iCommand *> >,1><>
PUBLIC	??$_Emplace_one_at_back@AEBQEAViCommand@@@?$vector@PEAViCommand@@V?$allocator@PEAViCommand@@@std@@@std@@AEAAAEAPEAViCommand@@AEBQEAV2@@Z ; std::vector<iCommand *,std::allocator<iCommand *> >::_Emplace_one_at_back<iCommand * const &>
PUBLIC	??$destroy@PEAViCommand@@@?$_Default_allocator_traits@V?$allocator@PEAViCommand@@@std@@@std@@SAXAEAV?$allocator@PEAViCommand@@@1@QEAPEAViCommand@@@Z ; std::_Default_allocator_traits<std::allocator<iCommand *> >::destroy<iCommand *>
PUBLIC	??$_Unfancy@PEAViCommand@@@std@@YAPEAPEAViCommand@@PEAPEAV1@@Z ; std::_Unfancy<iCommand *>
PUBLIC	??$_Move_unchecked@PEAPEAViCommand@@PEAPEAV1@@std@@YAPEAPEAViCommand@@PEAPEAV1@00@Z ; std::_Move_unchecked<iCommand * *,iCommand * *>
PUBLIC	??$addressof@V?$_Vector_val@U?$_Simple_types@PEAViCommand@@@std@@@std@@@std@@YAPEAV?$_Vector_val@U?$_Simple_types@PEAViCommand@@@std@@@0@AEAV10@@Z ; std::addressof<std::_Vector_val<std::_Simple_types<iCommand *> > >
PUBLIC	??$_Unfancy_maybe_null@PEAViCommand@@@std@@YAPEAPEAViCommand@@PEAPEAV1@@Z ; std::_Unfancy_maybe_null<iCommand *>
PUBLIC	??$?0$$V@?$_Compressed_pair@V?$allocator@PEAVcCommandGroup@@@std@@V?$_Vector_val@U?$_Simple_types@PEAVcCommandGroup@@@std@@@2@$00@std@@QEAA@U_Zero_then_variadic_args_t@1@@Z ; std::_Compressed_pair<std::allocator<cCommandGroup *>,std::_Vector_val<std::_Simple_types<cCommandGroup *> >,1>::_Compressed_pair<std::allocator<cCommandGroup *>,std::_Vector_val<std::_Simple_types<cCommandGroup *> >,1><>
PUBLIC	?_Get_first@?$_Compressed_pair@V?$allocator@PEAVcCommandGroup@@@std@@V?$_Vector_val@U?$_Simple_types@PEAVcCommandGroup@@@std@@@2@$00@std@@QEAAAEAV?$allocator@PEAVcCommandGroup@@@2@XZ ; std::_Compressed_pair<std::allocator<cCommandGroup *>,std::_Vector_val<std::_Simple_types<cCommandGroup *> >,1>::_Get_first
PUBLIC	?deallocate@?$allocator@PEAViCommand@@@std@@QEAAXQEAPEAViCommand@@_K@Z ; std::allocator<iCommand *>::deallocate
PUBLIC	?_Get_first@?$_Compressed_pair@V?$allocator@PEAViCommand@@@std@@V?$_Vector_val@U?$_Simple_types@PEAViCommand@@@std@@@2@$00@std@@QEAAAEAV?$allocator@PEAViCommand@@@2@XZ ; std::_Compressed_pair<std::allocator<iCommand *>,std::_Vector_val<std::_Simple_types<iCommand *> >,1>::_Get_first
PUBLIC	?deallocate@?$allocator@PEAVcCommandGroup@@@std@@QEAAXQEAPEAVcCommandGroup@@_K@Z ; std::allocator<cCommandGroup *>::deallocate
PUBLIC	?_Getal@?$vector@PEAVcCommandGroup@@V?$allocator@PEAVcCommandGroup@@@std@@@std@@AEAAAEAV?$allocator@PEAVcCommandGroup@@@2@XZ ; std::vector<cCommandGroup *,std::allocator<cCommandGroup *> >::_Getal
PUBLIC	?_Tidy@?$vector@PEAViCommand@@V?$allocator@PEAViCommand@@@std@@@std@@AEAAXXZ ; std::vector<iCommand *,std::allocator<iCommand *> >::_Tidy
PUBLIC	?_Orphan_range@?$vector@PEAViCommand@@V?$allocator@PEAViCommand@@@std@@@std@@AEBAXPEAPEAViCommand@@0@Z ; std::vector<iCommand *,std::allocator<iCommand *> >::_Orphan_range
PUBLIC	?_Getal@?$vector@PEAViCommand@@V?$allocator@PEAViCommand@@@std@@@std@@AEAAAEAV?$allocator@PEAViCommand@@@2@XZ ; std::vector<iCommand *,std::allocator<iCommand *> >::_Getal
PUBLIC	?_Tidy@?$vector@PEAVcCommandGroup@@V?$allocator@PEAVcCommandGroup@@@std@@@std@@AEAAXXZ ; std::vector<cCommandGroup *,std::allocator<cCommandGroup *> >::_Tidy
PUBLIC	??0?$_Vector_const_iterator@V?$_Vector_val@U?$_Simple_types@PEAViCommand@@@std@@@std@@@std@@QEAA@PEAPEAViCommand@@PEBU_Container_base0@1@@Z ; std::_Vector_const_iterator<std::_Vector_val<std::_Simple_types<iCommand *> > >::_Vector_const_iterator<std::_Vector_val<std::_Simple_types<iCommand *> > >
PUBLIC	??0?$_Vector_iterator@V?$_Vector_val@U?$_Simple_types@PEAViCommand@@@std@@@std@@@std@@QEAA@PEAPEAViCommand@@PEBU_Container_base0@1@@Z ; std::_Vector_iterator<std::_Vector_val<std::_Simple_types<iCommand *> > >::_Vector_iterator<std::_Vector_val<std::_Simple_types<iCommand *> > >
PUBLIC	??0?$vector@PEAViCommand@@V?$allocator@PEAViCommand@@@std@@@std@@QEAA@XZ ; std::vector<iCommand *,std::allocator<iCommand *> >::vector<iCommand *,std::allocator<iCommand *> >
PUBLIC	??1?$vector@PEAViCommand@@V?$allocator@PEAViCommand@@@std@@@std@@QEAA@XZ ; std::vector<iCommand *,std::allocator<iCommand *> >::~vector<iCommand *,std::allocator<iCommand *> >
PUBLIC	?push_back@?$vector@PEAViCommand@@V?$allocator@PEAViCommand@@@std@@@std@@QEAAXAEBQEAViCommand@@@Z ; std::vector<iCommand *,std::allocator<iCommand *> >::push_back
PUBLIC	?erase@?$vector@PEAViCommand@@V?$allocator@PEAViCommand@@@std@@@std@@QEAA?AV?$_Vector_iterator@V?$_Vector_val@U?$_Simple_types@PEAViCommand@@@std@@@std@@@2@V?$_Vector_const_iterator@V?$_Vector_val@U?$_Simple_types@PEAViCommand@@@std@@@std@@@2@@Z ; std::vector<iCommand *,std::allocator<iCommand *> >::erase
PUBLIC	?begin@?$vector@PEAViCommand@@V?$allocator@PEAViCommand@@@std@@@std@@QEAA?AV?$_Vector_iterator@V?$_Vector_val@U?$_Simple_types@PEAViCommand@@@std@@@std@@@2@XZ ; std::vector<iCommand *,std::allocator<iCommand *> >::begin
PUBLIC	?_Unchecked_begin@?$vector@PEAViCommand@@V?$allocator@PEAViCommand@@@std@@@std@@QEAAPEAPEAViCommand@@XZ ; std::vector<iCommand *,std::allocator<iCommand *> >::_Unchecked_begin
PUBLIC	?_Unchecked_end@?$vector@PEAViCommand@@V?$allocator@PEAViCommand@@@std@@@std@@QEAAPEAPEAViCommand@@XZ ; std::vector<iCommand *,std::allocator<iCommand *> >::_Unchecked_end
PUBLIC	?empty@?$vector@PEAViCommand@@V?$allocator@PEAViCommand@@@std@@@std@@QEBA_NXZ ; std::vector<iCommand *,std::allocator<iCommand *> >::empty
PUBLIC	?size@?$vector@PEAViCommand@@V?$allocator@PEAViCommand@@@std@@@std@@QEBA_KXZ ; std::vector<iCommand *,std::allocator<iCommand *> >::size
PUBLIC	??A?$vector@PEAViCommand@@V?$allocator@PEAViCommand@@@std@@@std@@QEAAAEAPEAViCommand@@_K@Z ; std::vector<iCommand *,std::allocator<iCommand *> >::operator[]
PUBLIC	??0?$vector@PEAVcCommandGroup@@V?$allocator@PEAVcCommandGroup@@@std@@@std@@QEAA@XZ ; std::vector<cCommandGroup *,std::allocator<cCommandGroup *> >::vector<cCommandGroup *,std::allocator<cCommandGroup *> >
PUBLIC	??1?$vector@PEAVcCommandGroup@@V?$allocator@PEAVcCommandGroup@@@std@@@std@@QEAA@XZ ; std::vector<cCommandGroup *,std::allocator<cCommandGroup *> >::~vector<cCommandGroup *,std::allocator<cCommandGroup *> >
PUBLIC	?OnFinished@cCommandGroup@@UEAAXXZ		; cCommandGroup::OnFinished
PUBLIC	?isFinished@cCommandGroup@@UEAA_NXZ		; cCommandGroup::isFinished
PUBLIC	?Update@cCommandGroup@@UEAAXN@Z			; cCommandGroup::Update
PUBLIC	?OnStart@cCommandGroup@@UEAAXXZ			; cCommandGroup::OnStart
PUBLIC	?addSerial@cCommandGroup@@QEAAXPEAViCommand@@@Z	; cCommandGroup::addSerial
PUBLIC	??1cCommandGroup@@UEAA@XZ			; cCommandGroup::~cCommandGroup
PUBLIC	??_GcCommandGroup@@UEAAPEAXI@Z			; cCommandGroup::`scalar deleting destructor'
PUBLIC	??0cCommandGroup@@QEAA@XZ			; cCommandGroup::cCommandGroup
EXTRN	??_EcCommandGroup@@UEAAPEAXI@Z:PROC		; cCommandGroup::`vector deleting destructor'
;	COMDAT pdata
pdata	SEGMENT
$pdata$?allocate@?$allocator@PEAViCommand@@@std@@QEAAPEAPEAViCommand@@_K@Z DD imagerel $LN31@allocate
	DD	imagerel $LN31@allocate+112
	DD	imagerel $unwind$?allocate@?$allocator@PEAViCommand@@@std@@QEAAPEAPEAViCommand@@_K@Z
pdata	ENDS
;	COMDAT pdata
pdata	SEGMENT
$pdata$??$_Uninitialized_move@PEAPEAViCommand@@V?$allocator@PEAViCommand@@@std@@@std@@YAPEAPEAViCommand@@QEAPEAV1@0PEAPEAV1@AEAV?$allocator@PEAViCommand@@@0@@Z DD imagerel $LN21@Uninitiali
	DD	imagerel $LN21@Uninitiali+52
	DD	imagerel $unwind$??$_Uninitialized_move@PEAPEAViCommand@@V?$allocator@PEAViCommand@@@std@@@std@@YAPEAPEAViCommand@@QEAPEAV1@0PEAPEAV1@AEAV?$allocator@PEAViCommand@@@0@@Z
pdata	ENDS
;	COMDAT pdata
pdata	SEGMENT
$pdata$??$_Allocate_at_least_helper@V?$allocator@PEAViCommand@@@std@@@std@@YAPEAPEAViCommand@@AEAV?$allocator@PEAViCommand@@@0@AEA_K@Z DD imagerel $LN34@Allocate_a
	DD	imagerel $LN34@Allocate_a+115
	DD	imagerel $unwind$??$_Allocate_at_least_helper@V?$allocator@PEAViCommand@@@std@@@std@@YAPEAPEAViCommand@@AEAV?$allocator@PEAViCommand@@@0@AEA_K@Z
pdata	ENDS
;	COMDAT pdata
pdata	SEGMENT
$pdata$??$_Copy_memmove_tail@PEAPEAViCommand@@@std@@YAPEAPEAViCommand@@QEBDQEAPEAV1@_K2@Z DD imagerel $LN4@Copy_memmo
	DD	imagerel $LN4@Copy_memmo+42
	DD	imagerel $unwind$??$_Copy_memmove_tail@PEAPEAViCommand@@@std@@YAPEAPEAViCommand@@QEBDQEAPEAV1@_K2@Z
pdata	ENDS
;	COMDAT pdata
pdata	SEGMENT
$pdata$?_Change_array@?$vector@PEAViCommand@@V?$allocator@PEAViCommand@@@std@@@std@@AEAAXQEAPEAViCommand@@_K1@Z DD imagerel $LN31@Change_arr
	DD	imagerel $LN31@Change_arr+136
	DD	imagerel $unwind$?_Change_array@?$vector@PEAViCommand@@V?$allocator@PEAViCommand@@@std@@@std@@AEAAXQEAPEAViCommand@@_K1@Z
pdata	ENDS
;	COMDAT pdata
pdata	SEGMENT
$pdata$?_Xlength@?$vector@PEAViCommand@@V?$allocator@PEAViCommand@@@std@@@std@@CAXXZ DD imagerel $LN4@Xlength
	DD	imagerel $LN4@Xlength+18
	DD	imagerel $unwind$?_Xlength@?$vector@PEAViCommand@@V?$allocator@PEAViCommand@@@std@@@std@@CAXXZ
pdata	ENDS
;	COMDAT pdata
pdata	SEGMENT
$pdata$??1_Reallocation_guard@?$vector@PEAViCommand@@V?$allocator@PEAViCommand@@@std@@@std@@QEAA@XZ DD imagerel $LN28@Reallocati
	DD	imagerel $LN28@Reallocati+78
	DD	imagerel $unwind$??1_Reallocation_guard@?$vector@PEAViCommand@@V?$allocator@PEAViCommand@@@std@@@std@@QEAA@XZ
pdata	ENDS
;	COMDAT pdata
pdata	SEGMENT
$pdata$??$_Emplace_reallocate@AEBQEAViCommand@@@?$vector@PEAViCommand@@V?$allocator@PEAViCommand@@@std@@@std@@AEAAPEAPEAViCommand@@QEAPEAV2@AEBQEAV2@@Z DD imagerel $LN168@Emplace_re
	DD	imagerel $LN168@Emplace_re+70
	DD	imagerel $unwind$??$_Emplace_reallocate@AEBQEAViCommand@@@?$vector@PEAViCommand@@V?$allocator@PEAViCommand@@@std@@@std@@AEAAPEAPEAViCommand@@QEAPEAV2@AEBQEAV2@@Z
pdata	ENDS
;	COMDAT pdata
pdata	SEGMENT
$pdata$2$??$_Emplace_reallocate@AEBQEAViCommand@@@?$vector@PEAViCommand@@V?$allocator@PEAViCommand@@@std@@@std@@AEAAPEAPEAViCommand@@QEAPEAV2@AEBQEAV2@@Z DD imagerel $LN168@Emplace_re+70
	DD	imagerel $LN168@Emplace_re+381
	DD	imagerel $chain$2$??$_Emplace_reallocate@AEBQEAViCommand@@@?$vector@PEAViCommand@@V?$allocator@PEAViCommand@@@std@@@std@@AEAAPEAPEAViCommand@@QEAPEAV2@AEBQEAV2@@Z
pdata	ENDS
;	COMDAT pdata
pdata	SEGMENT
$pdata$4$??$_Emplace_reallocate@AEBQEAViCommand@@@?$vector@PEAViCommand@@V?$allocator@PEAViCommand@@@std@@@std@@AEAAPEAPEAViCommand@@QEAPEAV2@AEBQEAV2@@Z DD imagerel $LN168@Emplace_re+381
	DD	imagerel $LN168@Emplace_re+388
	DD	imagerel $chain$4$??$_Emplace_reallocate@AEBQEAViCommand@@@?$vector@PEAViCommand@@V?$allocator@PEAViCommand@@@std@@@std@@AEAAPEAPEAViCommand@@QEAPEAV2@AEBQEAV2@@Z
pdata	ENDS
;	COMDAT pdata
pdata	SEGMENT
$pdata$5$??$_Emplace_reallocate@AEBQEAViCommand@@@?$vector@PEAViCommand@@V?$allocator@PEAViCommand@@@std@@@std@@AEAAPEAPEAViCommand@@QEAPEAV2@AEBQEAV2@@Z DD imagerel $LN168@Emplace_re+388
	DD	imagerel $LN168@Emplace_re+394
	DD	imagerel $chain$5$??$_Emplace_reallocate@AEBQEAViCommand@@@?$vector@PEAViCommand@@V?$allocator@PEAViCommand@@@std@@@std@@AEAAPEAPEAViCommand@@QEAPEAV2@AEBQEAV2@@Z
pdata	ENDS
;	COMDAT pdata
pdata	SEGMENT
$pdata$6$??$_Emplace_reallocate@AEBQEAViCommand@@@?$vector@PEAViCommand@@V?$allocator@PEAViCommand@@@std@@@std@@AEAAPEAPEAViCommand@@QEAPEAV2@AEBQEAV2@@Z DD imagerel $LN168@Emplace_re+394
	DD	imagerel $LN168@Emplace_re+400
	DD	imagerel $chain$6$??$_Emplace_reallocate@AEBQEAViCommand@@@?$vector@PEAViCommand@@V?$allocator@PEAViCommand@@@std@@@std@@AEAAPEAPEAViCommand@@QEAPEAV2@AEBQEAV2@@Z
pdata	ENDS
;	COMDAT pdata
pdata	SEGMENT
$pdata$??$_Copy_memmove@PEAPEAViCommand@@PEAPEAV1@@std@@YAPEAPEAViCommand@@PEAPEAV1@00@Z DD imagerel $LN6@Copy_memmo
	DD	imagerel $LN6@Copy_memmo+48
	DD	imagerel $unwind$??$_Copy_memmove@PEAPEAViCommand@@PEAPEAV1@@std@@YAPEAPEAViCommand@@PEAPEAV1@00@Z
pdata	ENDS
;	COMDAT pdata
pdata	SEGMENT
$pdata$??$_Move_unchecked@PEAPEAViCommand@@PEAPEAV1@@std@@YAPEAPEAViCommand@@PEAPEAV1@00@Z DD imagerel $LN11@Move_unche
	DD	imagerel $LN11@Move_unche+48
	DD	imagerel $unwind$??$_Move_unchecked@PEAPEAViCommand@@PEAPEAV1@@std@@YAPEAPEAViCommand@@PEAPEAV1@00@Z
pdata	ENDS
;	COMDAT pdata
pdata	SEGMENT
$pdata$?deallocate@?$allocator@PEAViCommand@@@std@@QEAAXQEAPEAViCommand@@_K@Z DD imagerel $LN23@deallocate
	DD	imagerel $LN23@deallocate+67
	DD	imagerel $unwind$?deallocate@?$allocator@PEAViCommand@@@std@@QEAAXQEAPEAViCommand@@_K@Z
pdata	ENDS
;	COMDAT pdata
pdata	SEGMENT
$pdata$?deallocate@?$allocator@PEAVcCommandGroup@@@std@@QEAAXQEAPEAVcCommandGroup@@_K@Z DD imagerel $LN23@deallocate
	DD	imagerel $LN23@deallocate+67
	DD	imagerel $unwind$?deallocate@?$allocator@PEAVcCommandGroup@@@std@@QEAAXQEAPEAVcCommandGroup@@_K@Z
pdata	ENDS
;	COMDAT pdata
pdata	SEGMENT
$pdata$?_Tidy@?$vector@PEAViCommand@@V?$allocator@PEAViCommand@@@std@@@std@@AEAAXXZ DD imagerel $LN31@Tidy
	DD	imagerel $LN31@Tidy+92
	DD	imagerel $unwind$?_Tidy@?$vector@PEAViCommand@@V?$allocator@PEAViCommand@@@std@@@std@@AEAAXXZ
pdata	ENDS
;	COMDAT pdata
pdata	SEGMENT
$pdata$?_Tidy@?$vector@PEAVcCommandGroup@@V?$allocator@PEAVcCommandGroup@@@std@@@std@@AEAAXXZ DD imagerel $LN31@Tidy
	DD	imagerel $LN31@Tidy+92
	DD	imagerel $unwind$?_Tidy@?$vector@PEAVcCommandGroup@@V?$allocator@PEAVcCommandGroup@@@std@@@std@@AEAAXXZ
pdata	ENDS
;	COMDAT pdata
pdata	SEGMENT
$pdata$??1?$vector@PEAViCommand@@V?$allocator@PEAViCommand@@@std@@@std@@QEAA@XZ DD imagerel $LN35@vector
	DD	imagerel $LN35@vector+92
	DD	imagerel $unwind$??1?$vector@PEAViCommand@@V?$allocator@PEAViCommand@@@std@@@std@@QEAA@XZ
pdata	ENDS
;	COMDAT pdata
pdata	SEGMENT
$pdata$?erase@?$vector@PEAViCommand@@V?$allocator@PEAViCommand@@@std@@@std@@QEAA?AV?$_Vector_iterator@V?$_Vector_val@U?$_Simple_types@PEAViCommand@@@std@@@std@@@2@V?$_Vector_const_iterator@V?$_Vector_val@U?$_Simple_types@PEAViCommand@@@std@@@std@@@2@@Z DD imagerel $LN21@erase
	DD	imagerel $LN21@erase+70
	DD	imagerel $unwind$?erase@?$vector@PEAViCommand@@V?$allocator@PEAViCommand@@@std@@@std@@QEAA?AV?$_Vector_iterator@V?$_Vector_val@U?$_Simple_types@PEAViCommand@@@std@@@std@@@2@V?$_Vector_const_iterator@V?$_Vector_val@U?$_Simple_types@PEAViCommand@@@std@@@std@@@2@@Z
pdata	ENDS
;	COMDAT pdata
pdata	SEGMENT
$pdata$??1?$vector@PEAVcCommandGroup@@V?$allocator@PEAVcCommandGroup@@@std@@@std@@QEAA@XZ DD imagerel $LN35@vector
	DD	imagerel $LN35@vector+92
	DD	imagerel $unwind$??1?$vector@PEAVcCommandGroup@@V?$allocator@PEAVcCommandGroup@@@std@@@std@@QEAA@XZ
pdata	ENDS
;	COMDAT pdata
pdata	SEGMENT
$pdata$?isFinished@cCommandGroup@@UEAA_NXZ DD imagerel $LN21@isFinished
	DD	imagerel $LN21@isFinished+99
	DD	imagerel $unwind$?isFinished@cCommandGroup@@UEAA_NXZ
pdata	ENDS
;	COMDAT pdata
pdata	SEGMENT
$pdata$?Update@cCommandGroup@@UEAAXN@Z DD imagerel $LN58@Update
	DD	imagerel $LN58@Update+14
	DD	imagerel $unwind$?Update@cCommandGroup@@UEAAXN@Z
pdata	ENDS
;	COMDAT pdata
pdata	SEGMENT
$pdata$1$?Update@cCommandGroup@@UEAAXN@Z DD imagerel $LN58@Update+14
	DD	imagerel $LN58@Update+40
	DD	imagerel $chain$1$?Update@cCommandGroup@@UEAAXN@Z
pdata	ENDS
;	COMDAT pdata
pdata	SEGMENT
$pdata$2$?Update@cCommandGroup@@UEAAXN@Z DD imagerel $LN58@Update+40
	DD	imagerel $LN58@Update+90
	DD	imagerel $chain$2$?Update@cCommandGroup@@UEAAXN@Z
pdata	ENDS
;	COMDAT pdata
pdata	SEGMENT
$pdata$3$?Update@cCommandGroup@@UEAAXN@Z DD imagerel $LN58@Update+90
	DD	imagerel $LN58@Update+110
	DD	imagerel $chain$3$?Update@cCommandGroup@@UEAAXN@Z
pdata	ENDS
;	COMDAT pdata
pdata	SEGMENT
$pdata$4$?Update@cCommandGroup@@UEAAXN@Z DD imagerel $LN58@Update+110
	DD	imagerel $LN58@Update+230
	DD	imagerel $chain$4$?Update@cCommandGroup@@UEAAXN@Z
pdata	ENDS
;	COMDAT pdata
pdata	SEGMENT
$pdata$?addSerial@cCommandGroup@@QEAAXPEAViCommand@@@Z DD imagerel $LN18@addSerial
	DD	imagerel $LN18@addSerial+96
	DD	imagerel $unwind$?addSerial@cCommandGroup@@QEAAXPEAViCommand@@@Z
pdata	ENDS
;	COMDAT pdata
pdata	SEGMENT
$pdata$??1cCommandGroup@@UEAA@XZ DD imagerel $LN101@cCommandGr
	DD	imagerel $LN101@cCommandGr+257
	DD	imagerel $unwind$??1cCommandGroup@@UEAA@XZ
pdata	ENDS
;	COMDAT pdata
pdata	SEGMENT
$pdata$??_GcCommandGroup@@UEAAPEAXI@Z DD imagerel $LN109@scalar
	DD	imagerel $LN109@scalar+295
	DD	imagerel $unwind$??_GcCommandGroup@@UEAAPEAXI@Z
;	COMDAT xdata
xdata	SEGMENT
$unwind$??_GcCommandGroup@@UEAAPEAXI@Z DQ 00008640f00060f01r ; 1.16689e-308
	DQ	0700b320f0007340fr		; 5.2777e+231
xdata	ENDS
;	COMDAT xdata
xdata	SEGMENT
$unwind$??1cCommandGroup@@UEAA@XZ DQ 00007340a00040a01r ; 1.00174e-308
	DD	07006320aH
xdata	ENDS
;	COMDAT xdata
xdata	SEGMENT
$unwind$?addSerial@cCommandGroup@@QEAAXPEAViCommand@@@Z DQ 03006320a00020a01r ; 2.39605e-77
xdata	ENDS
;	COMDAT xdata
xdata	SEGMENT
$chain$4$?Update@cCommandGroup@@UEAAXN@Z DD 021H
	DD	imagerel $LN58@Update
	DD	imagerel $LN58@Update+14
	DD	imagerel $unwind$?Update@cCommandGroup@@UEAAXN@Z
xdata	ENDS
;	COMDAT xdata
xdata	SEGMENT
$chain$3$?Update@cCommandGroup@@UEAAXN@Z DD 021H
	DD	imagerel $LN58@Update+14
	DD	imagerel $LN58@Update+40
	DD	imagerel $chain$1$?Update@cCommandGroup@@UEAAXN@Z
xdata	ENDS
;	COMDAT xdata
xdata	SEGMENT
$chain$2$?Update@cCommandGroup@@UEAAXN@Z DQ 00006740500020521r ; 8.97428e-309
	DD	imagerel $LN58@Update+14
	DD	imagerel $LN58@Update+40
	DD	imagerel $chain$1$?Update@cCommandGroup@@UEAAXN@Z
xdata	ENDS
;	COMDAT xdata
xdata	SEGMENT
$chain$1$?Update@cCommandGroup@@UEAAXN@Z DQ 00007541100041121r ; 1.01914e-308
	DD	0c3405H
	DD	imagerel $LN58@Update
	DD	imagerel $LN58@Update+14
	DD	imagerel $unwind$?Update@cCommandGroup@@UEAAXN@Z
xdata	ENDS
;	COMDAT xdata
xdata	SEGMENT
$unwind$?Update@cCommandGroup@@UEAAXN@Z DQ 00002680b00040b01r ; 3.34654e-309
	DD	060027206H
xdata	ENDS
;	COMDAT xdata
xdata	SEGMENT
$unwind$?isFinished@cCommandGroup@@UEAA_NXZ DQ 00007640f00060f01r ; 1.02782e-308
	DQ	0700b320f0006340fr		; 5.2777e+231
xdata	ENDS
;	COMDAT xdata
xdata	SEGMENT
$unwind$??1?$vector@PEAVcCommandGroup@@V?$allocator@PEAVcCommandGroup@@@std@@@std@@QEAA@XZ DQ 03002320600020601r ; 1.96423e-77
xdata	ENDS
;	COMDAT xdata
xdata	SEGMENT
$unwind$?erase@?$vector@PEAViCommand@@V?$allocator@PEAViCommand@@@std@@@std@@QEAA?AV?$_Vector_iterator@V?$_Vector_val@U?$_Simple_types@PEAViCommand@@@std@@@std@@@2@V?$_Vector_const_iterator@V?$_Vector_val@U?$_Simple_types@PEAViCommand@@@std@@@std@@@2@@Z DQ 00009640f00060f01r ; 1.30596e-308
	DQ	0700b320f0008340fr		; 5.2777e+231
xdata	ENDS
;	COMDAT xdata
xdata	SEGMENT
$unwind$??1?$vector@PEAViCommand@@V?$allocator@PEAViCommand@@@std@@@std@@QEAA@XZ DQ 03002320600020601r ; 1.96423e-77
xdata	ENDS
;	COMDAT xdata
xdata	SEGMENT
$unwind$?_Tidy@?$vector@PEAVcCommandGroup@@V?$allocator@PEAVcCommandGroup@@@std@@@std@@AEAAXXZ DQ 03002320600020601r ; 1.96423e-77
xdata	ENDS
;	COMDAT xdata
xdata	SEGMENT
$unwind$?_Tidy@?$vector@PEAViCommand@@V?$allocator@PEAViCommand@@@std@@@std@@AEAAXXZ DQ 03002320600020601r ; 1.96423e-77
xdata	ENDS
;	COMDAT xdata
xdata	SEGMENT
$unwind$?deallocate@?$allocator@PEAVcCommandGroup@@@std@@QEAAXQEAPEAVcCommandGroup@@_K@Z DQ 00000420400010401r ; 3.58617e-310
xdata	ENDS
;	COMDAT xdata
xdata	SEGMENT
$unwind$?deallocate@?$allocator@PEAViCommand@@@std@@QEAAXQEAPEAViCommand@@_K@Z DQ 00000420400010401r ; 3.58617e-310
xdata	ENDS
;	COMDAT xdata
xdata	SEGMENT
$unwind$??$_Move_unchecked@PEAPEAViCommand@@PEAPEAV1@@std@@YAPEAPEAViCommand@@PEAPEAV1@00@Z DQ 00009340a00040a01r ; 1.27987e-308
	DD	07006320aH
xdata	ENDS
;	COMDAT xdata
xdata	SEGMENT
$unwind$??$_Copy_memmove@PEAPEAViCommand@@PEAPEAV1@@std@@YAPEAPEAViCommand@@PEAPEAV1@00@Z DQ 00009340a00040a01r ; 1.27987e-308
	DD	07006320aH
xdata	ENDS
;	COMDAT xdata
xdata	SEGMENT
$chain$6$??$_Emplace_reallocate@AEBQEAViCommand@@@?$vector@PEAViCommand@@V?$allocator@PEAViCommand@@@std@@@std@@AEAAPEAPEAViCommand@@QEAPEAV2@AEBQEAV2@@Z DQ 00004f40000060021r ; 6.88817e-309
	DQ	0000c3400000d6400r		; 1.69705e-308
	DD	imagerel $LN168@Emplace_re
	DD	imagerel $LN168@Emplace_re+70
	DD	imagerel $unwind$??$_Emplace_reallocate@AEBQEAViCommand@@@?$vector@PEAViCommand@@V?$allocator@PEAViCommand@@@std@@@std@@AEAAPEAPEAViCommand@@QEAPEAV2@AEBQEAV2@@Z
xdata	ENDS
;	COMDAT xdata
xdata	SEGMENT
$chain$5$??$_Emplace_reallocate@AEBQEAViCommand@@@?$vector@PEAViCommand@@V?$allocator@PEAViCommand@@@std@@@std@@AEAAPEAPEAViCommand@@QEAPEAV2@AEBQEAV2@@Z DD 021H
	DD	imagerel $LN168@Emplace_re
	DD	imagerel $LN168@Emplace_re+70
	DD	imagerel $unwind$??$_Emplace_reallocate@AEBQEAViCommand@@@?$vector@PEAViCommand@@V?$allocator@PEAViCommand@@@std@@@std@@AEAAPEAPEAViCommand@@QEAPEAV2@AEBQEAV2@@Z
xdata	ENDS
;	COMDAT xdata
xdata	SEGMENT
$chain$4$??$_Emplace_reallocate@AEBQEAViCommand@@@?$vector@PEAViCommand@@V?$allocator@PEAViCommand@@@std@@@std@@AEAAPEAPEAViCommand@@QEAPEAV2@AEBQEAV2@@Z DQ 00004f40000060021r ; 6.88817e-309
	DQ	0000c3400000d6400r		; 1.69705e-308
	DD	imagerel $LN168@Emplace_re
	DD	imagerel $LN168@Emplace_re+70
	DD	imagerel $unwind$??$_Emplace_reallocate@AEBQEAViCommand@@@?$vector@PEAViCommand@@V?$allocator@PEAViCommand@@@std@@@std@@AEAAPEAPEAViCommand@@QEAPEAV2@AEBQEAV2@@Z
xdata	ENDS
;	COMDAT xdata
xdata	SEGMENT
$chain$2$??$_Emplace_reallocate@AEBQEAViCommand@@@?$vector@PEAViCommand@@V?$allocator@PEAViCommand@@@std@@@std@@AEAAPEAPEAViCommand@@QEAPEAV2@AEBQEAV2@@Z DQ 00004f41900061921r ; 6.8887e-309
	DQ	0000c3405000d640er		; 1.69706e-308
	DD	imagerel $LN168@Emplace_re
	DD	imagerel $LN168@Emplace_re+70
	DD	imagerel $unwind$??$_Emplace_reallocate@AEBQEAViCommand@@@?$vector@PEAViCommand@@V?$allocator@PEAViCommand@@@std@@@std@@AEAAPEAPEAViCommand@@QEAPEAV2@AEBQEAV2@@Z
xdata	ENDS
;	COMDAT xdata
xdata	SEGMENT
$unwind$??$_Emplace_reallocate@AEBQEAViCommand@@@?$vector@PEAViCommand@@V?$allocator@PEAViCommand@@@std@@@std@@AEAAPEAPEAViCommand@@QEAPEAV2@AEBQEAV2@@Z DQ 0e007420b00050b01r ; -3.89798e+154
	DQ	0000050027003c005r		; 4.34636e-310
xdata	ENDS
;	COMDAT xdata
xdata	SEGMENT
$unwind$??1_Reallocation_guard@?$vector@PEAViCommand@@V?$allocator@PEAViCommand@@@std@@@std@@QEAA@XZ DQ 00000420400010401r ; 3.58617e-310
xdata	ENDS
;	COMDAT xdata
xdata	SEGMENT
$unwind$?_Xlength@?$vector@PEAViCommand@@V?$allocator@PEAViCommand@@@std@@@std@@CAXXZ DQ 00000420400010401r ; 3.58617e-310
xdata	ENDS
;	COMDAT xdata
xdata	SEGMENT
$unwind$?_Change_array@?$vector@PEAViCommand@@V?$allocator@PEAViCommand@@@std@@@std@@AEAAXQEAPEAViCommand@@_K1@Z DQ 00009641400081401r ; 1.30597e-308
	DQ	00007341400085414r		; 1.00176e-308
	DD	070103214H
xdata	ENDS
;	COMDAT xdata
xdata	SEGMENT
$unwind$??$_Copy_memmove_tail@PEAPEAViCommand@@@std@@YAPEAPEAViCommand@@QEBDQEAPEAV1@_K2@Z DQ 00006340a00040a01r ; 8.62672e-309
	DD	07006320aH
xdata	ENDS
;	COMDAT xdata
xdata	SEGMENT
$unwind$??$_Allocate_at_least_helper@V?$allocator@PEAViCommand@@@std@@@std@@YAPEAPEAViCommand@@AEAV?$allocator@PEAViCommand@@@0@AEA_K@Z DQ 00000420400010401r ; 3.58617e-310
xdata	ENDS
;	COMDAT xdata
xdata	SEGMENT
$unwind$??$_Uninitialized_move@PEAPEAViCommand@@V?$allocator@PEAViCommand@@@std@@@std@@YAPEAPEAViCommand@@QEAPEAV1@0PEAPEAV1@AEAV?$allocator@PEAViCommand@@@0@@Z DQ 00009340a00040a01r ; 1.27987e-308
	DD	07006320aH
xdata	ENDS
;	COMDAT xdata
xdata	SEGMENT
$unwind$?allocate@?$allocator@PEAViCommand@@@std@@QEAAPEAPEAViCommand@@_K@Z DQ 00000420400010401r ; 3.58617e-310
END
