; Listing generated by Microsoft (R) Optimizing Compiler Version 19.43.34808.0 

include listing.inc

INCLUDELIB OLDNAMES

PUBLIC	??_C@_0BI@FBJFONNN@A?5hover?5tank?5is?5created@	; `string'
PUBLIC	??_R0?AViTank@@@8				; iTank `RTTI Type Descriptor'
PUBLIC	??_R1A@?0A@EA@cHoverTank@@8			; cHoverTank::`RTTI Base Class Descriptor at (0,-1,0,64)'
PUBLIC	??_R3iTank@@8					; iTank::`RTTI Class Hierarchy Descriptor'
PUBLIC	??_7cHoverTank@@6BiTank@@@			; cHoverTank::`vftable'
PUBLIC	??_7iTank@@6B@					; iTank::`vftable'
PUBLIC	??_R2iTank@@8					; iTank::`RTTI Base Class Array'
PUBLIC	??_R3iMessaging@@8				; iMessaging::`RTTI Class Hierarchy Descriptor'
PUBLIC	??_R4cHoverTank@@6BiMessaging@@@		; cHoverTank::`RTTI Complete Object Locator'
PUBLIC	??_R1A@?0A@EA@iTank@@8				; iTank::`RTTI Base Class Descriptor at (0,-1,0,64)'
PUBLIC	??_R2iMessaging@@8				; iMessaging::`RTTI Base Class Array'
PUBLIC	??_7cHoverTank@@6BiMessaging@@@			; cHoverTank::`vftable'
PUBLIC	??_7iMessaging@@6B@				; iMessaging::`vftable'
PUBLIC	??_R1A@?0A@EA@iMessaging@@8			; iMessaging::`RTTI Base Class Descriptor at (0,-1,0,64)'
PUBLIC	??_R4iTank@@6B@					; iTank::`RTTI Complete Object Locator'
PUBLIC	??_R3cHoverTank@@8				; cHoverTank::`RTTI Class Hierarchy Descriptor'
PUBLIC	??_R4iMessaging@@6B@				; iMessaging::`RTTI Complete Object Locator'
PUBLIC	??_R4cHoverTank@@6BiTank@@@			; cHoverTank::`RTTI Complete Object Locator'
PUBLIC	??_R17?0A@EA@iMessaging@@8			; iMessaging::`RTTI Base Class Descriptor at (8,-1,0,64)'
PUBLIC	??_R2cHoverTank@@8				; cHoverTank::`RTTI Base Class Array'
PUBLIC	??_R0?AVcHoverTank@@@8				; cHoverTank `RTTI Type Descriptor'
PUBLIC	??_R0?AViMessaging@@@8				; iMessaging `RTTI Type Descriptor'
;	COMDAT ??_R0?AViMessaging@@@8
data$rs	SEGMENT
??_R0?AViMessaging@@@8 DQ FLAT:??_7type_info@@6B@	; iMessaging `RTTI Type Descriptor'
	DQ	0000000000000000H
	DB	'.?AViMessaging@@', 00H
data$rs	ENDS
;	COMDAT ??_R0?AVcHoverTank@@@8
data$rs	SEGMENT
??_R0?AVcHoverTank@@@8 DQ FLAT:??_7type_info@@6B@	; cHoverTank `RTTI Type Descriptor'
	DQ	0000000000000000H
	DB	'.?AVcHoverTank@@', 00H
data$rs	ENDS
;	COMDAT ??_R2cHoverTank@@8
rdata$r	SEGMENT
??_R2cHoverTank@@8 DD imagerel ??_R1A@?0A@EA@cHoverTank@@8 ; cHoverTank::`RTTI Base Class Array'
	DD	imagerel ??_R1A@?0A@EA@iTank@@8
	DD	imagerel ??_R17?0A@EA@iMessaging@@8
	ORG $+3
rdata$r	ENDS
;	COMDAT ??_R17?0A@EA@iMessaging@@8
rdata$r	SEGMENT
??_R17?0A@EA@iMessaging@@8 DD imagerel ??_R0?AViMessaging@@@8 ; iMessaging::`RTTI Base Class Descriptor at (8,-1,0,64)'
	DD	00H
	DD	08H
	DD	0ffffffffH
	DD	00H
	DD	040H
	DD	imagerel ??_R3iMessaging@@8
rdata$r	ENDS
;	COMDAT ??_R4cHoverTank@@6BiTank@@@
rdata$r	SEGMENT
??_R4cHoverTank@@6BiTank@@@ DD 01H			; cHoverTank::`RTTI Complete Object Locator'
	DD	00H
	DD	00H
	DD	imagerel ??_R0?AVcHoverTank@@@8
	DD	imagerel ??_R3cHoverTank@@8
	DD	imagerel ??_R4cHoverTank@@6BiTank@@@
rdata$r	ENDS
;	COMDAT ??_R4iMessaging@@6B@
rdata$r	SEGMENT
??_R4iMessaging@@6B@ DD 01H				; iMessaging::`RTTI Complete Object Locator'
	DD	00H
	DD	00H
	DD	imagerel ??_R0?AViMessaging@@@8
	DD	imagerel ??_R3iMessaging@@8
	DD	imagerel ??_R4iMessaging@@6B@
rdata$r	ENDS
;	COMDAT ??_R3cHoverTank@@8
rdata$r	SEGMENT
??_R3cHoverTank@@8 DD 00H				; cHoverTank::`RTTI Class Hierarchy Descriptor'
	DD	01H
	DD	03H
	DD	imagerel ??_R2cHoverTank@@8
rdata$r	ENDS
;	COMDAT ??_R4iTank@@6B@
rdata$r	SEGMENT
??_R4iTank@@6B@ DD 01H					; iTank::`RTTI Complete Object Locator'
	DD	00H
	DD	00H
	DD	imagerel ??_R0?AViTank@@@8
	DD	imagerel ??_R3iTank@@8
	DD	imagerel ??_R4iTank@@6B@
rdata$r	ENDS
;	COMDAT ??_R1A@?0A@EA@iMessaging@@8
rdata$r	SEGMENT
??_R1A@?0A@EA@iMessaging@@8 DD imagerel ??_R0?AViMessaging@@@8 ; iMessaging::`RTTI Base Class Descriptor at (0,-1,0,64)'
	DD	00H
	DD	00H
	DD	0ffffffffH
	DD	00H
	DD	040H
	DD	imagerel ??_R3iMessaging@@8
rdata$r	ENDS
;	COMDAT ??_7iMessaging@@6B@
CONST	SEGMENT
??_7iMessaging@@6B@ DQ FLAT:??_R4iMessaging@@6B@	; iMessaging::`vftable'
	DQ	FLAT:??_EiMessaging@@UEAAPEAXI@Z
	DQ	FLAT:_purecall
	DQ	FLAT:_purecall
CONST	ENDS
;	COMDAT ??_7cHoverTank@@6BiMessaging@@@
CONST	SEGMENT
??_7cHoverTank@@6BiMessaging@@@ DQ FLAT:??_R4cHoverTank@@6BiMessaging@@@ ; cHoverTank::`vftable'
	DQ	FLAT:??_EcHoverTank@@W7EAAPEAXI@Z
	DQ	FLAT:?Receive_Message@cHoverTank@@UEAA_NUsNVPair@@@Z
	DQ	FLAT:?Send_Message@cHoverTank@@UEAA_NUsNVPair@@@Z
CONST	ENDS
;	COMDAT ??_R2iMessaging@@8
rdata$r	SEGMENT
??_R2iMessaging@@8 DD imagerel ??_R1A@?0A@EA@iMessaging@@8 ; iMessaging::`RTTI Base Class Array'
	ORG $+3
rdata$r	ENDS
;	COMDAT ??_R1A@?0A@EA@iTank@@8
rdata$r	SEGMENT
??_R1A@?0A@EA@iTank@@8 DD imagerel ??_R0?AViTank@@@8	; iTank::`RTTI Base Class Descriptor at (0,-1,0,64)'
	DD	00H
	DD	00H
	DD	0ffffffffH
	DD	00H
	DD	040H
	DD	imagerel ??_R3iTank@@8
rdata$r	ENDS
;	COMDAT ??_R4cHoverTank@@6BiMessaging@@@
rdata$r	SEGMENT
??_R4cHoverTank@@6BiMessaging@@@ DD 01H			; cHoverTank::`RTTI Complete Object Locator'
	DD	08H
	DD	00H
	DD	imagerel ??_R0?AVcHoverTank@@@8
	DD	imagerel ??_R3cHoverTank@@8
	DD	imagerel ??_R4cHoverTank@@6BiMessaging@@@
rdata$r	ENDS
;	COMDAT ??_R3iMessaging@@8
rdata$r	SEGMENT
??_R3iMessaging@@8 DD 00H				; iMessaging::`RTTI Class Hierarchy Descriptor'
	DD	00H
	DD	01H
	DD	imagerel ??_R2iMessaging@@8
rdata$r	ENDS
;	COMDAT ??_R2iTank@@8
rdata$r	SEGMENT
??_R2iTank@@8 DD imagerel ??_R1A@?0A@EA@iTank@@8	; iTank::`RTTI Base Class Array'
	ORG $+3
rdata$r	ENDS
;	COMDAT ??_7iTank@@6B@
CONST	SEGMENT
??_7iTank@@6B@ DQ FLAT:??_R4iTank@@6B@			; iTank::`vftable'
	DQ	FLAT:??_EiTank@@UEAAPEAXI@Z
	DQ	FLAT:_purecall
	DQ	FLAT:_purecall
	DQ	FLAT:_purecall
	DQ	FLAT:_purecall
	DQ	FLAT:_purecall
	DQ	FLAT:_purecall
CONST	ENDS
;	COMDAT ??_7cHoverTank@@6BiTank@@@
CONST	SEGMENT
??_7cHoverTank@@6BiTank@@@ DQ FLAT:??_R4cHoverTank@@6BiTank@@@ ; cHoverTank::`vftable'
	DQ	FLAT:??_EcHoverTank@@UEAAPEAXI@Z
	DQ	FLAT:?Attack@cHoverTank@@UEAAXPEAViTank@@@Z
	DQ	FLAT:?getLocation@cHoverTank@@UEAA?AU?$vec@$02M$0A@@glm@@XZ
	DQ	FLAT:?setLocation@cHoverTank@@UEAAXU?$vec@$02M$0A@@glm@@@Z
	DQ	FLAT:?UpdateTick@cHoverTank@@UEAAXN@Z
	DQ	FLAT:?getID@cHoverTank@@UEAAIXZ
	DQ	FLAT:?setMediator@cHoverTank@@UEAAXPEAViMessaging@@@Z
CONST	ENDS
;	COMDAT ??_R3iTank@@8
rdata$r	SEGMENT
??_R3iTank@@8 DD 00H					; iTank::`RTTI Class Hierarchy Descriptor'
	DD	00H
	DD	01H
	DD	imagerel ??_R2iTank@@8
rdata$r	ENDS
;	COMDAT ??_R1A@?0A@EA@cHoverTank@@8
rdata$r	SEGMENT
??_R1A@?0A@EA@cHoverTank@@8 DD imagerel ??_R0?AVcHoverTank@@@8 ; cHoverTank::`RTTI Base Class Descriptor at (0,-1,0,64)'
	DD	02H
	DD	00H
	DD	0ffffffffH
	DD	00H
	DD	040H
	DD	imagerel ??_R3cHoverTank@@8
rdata$r	ENDS
;	COMDAT ??_R0?AViTank@@@8
data$rs	SEGMENT
??_R0?AViTank@@@8 DQ FLAT:??_7type_info@@6B@		; iTank `RTTI Type Descriptor'
	DQ	0000000000000000H
	DB	'.?AViTank@@', 00H
data$rs	ENDS
;	COMDAT ??_C@_0BI@FBJFONNN@A?5hover?5tank?5is?5created@
CONST	SEGMENT
??_C@_0BI@FBJFONNN@A?5hover?5tank?5is?5created@ DB 'A hover tank is creat'
	DB	'ed', 00H					; `string'
?_Fake_alloc@std@@3U_Fake_allocator@1@B	ORG $+1		; std::_Fake_alloc
PUBLIC	??_EcHoverTank@@W7EAAPEAXI@Z			; [thunk]:cHoverTank::`vector deleting destructor'
PUBLIC	?Send_Message@cHoverTank@@UEAA_NUsNVPair@@@Z	; cHoverTank::Send_Message
PUBLIC	?Receive_Message@cHoverTank@@UEAA_NUsNVPair@@@Z	; cHoverTank::Receive_Message
PUBLIC	?getID@cHoverTank@@UEAAIXZ			; cHoverTank::getID
PUBLIC	?UpdateTick@cHoverTank@@UEAAXN@Z		; cHoverTank::UpdateTick
PUBLIC	?setLocation@cHoverTank@@UEAAXU?$vec@$02M$0A@@glm@@@Z ; cHoverTank::setLocation
PUBLIC	?getLocation@cHoverTank@@UEAA?AU?$vec@$02M$0A@@glm@@XZ ; cHoverTank::getLocation
PUBLIC	?Attack@cHoverTank@@UEAAXPEAViTank@@@Z		; cHoverTank::Attack
PUBLIC	?setMediator@cHoverTank@@UEAAXPEAViMessaging@@@Z ; cHoverTank::setMediator
PUBLIC	??1cHoverTank@@UEAA@XZ				; cHoverTank::~cHoverTank
PUBLIC	??_GcHoverTank@@UEAAPEAXI@Z			; cHoverTank::`scalar deleting destructor'
PUBLIC	??_GiMessaging@@UEAAPEAXI@Z			; iMessaging::`scalar deleting destructor'
PUBLIC	??1iMessaging@@UEAA@XZ				; iMessaging::~iMessaging
PUBLIC	??_GiTank@@UEAAPEAXI@Z				; iTank::`scalar deleting destructor'
PUBLIC	??1iTank@@UEAA@XZ				; iTank::~iTank
EXTRN	??_EcHoverTank@@UEAAPEAXI@Z:PROC		; cHoverTank::`vector deleting destructor'
EXTRN	??_EiTank@@UEAAPEAXI@Z:PROC			; iTank::`vector deleting destructor'
EXTRN	??_EiMessaging@@UEAAPEAXI@Z:PROC		; iMessaging::`vector deleting destructor'
;	COMDAT pdata
pdata	SEGMENT
$pdata$?Send_Message@cHoverTank@@UEAA_NUsNVPair@@@Z DD imagerel $LN5@Send_Messa
	DD	imagerel $LN5@Send_Messa+19
	DD	imagerel $unwind$?Send_Message@cHoverTank@@UEAA_NUsNVPair@@@Z
pdata	ENDS
;	COMDAT pdata
pdata	SEGMENT
$pdata$?Receive_Message@cHoverTank@@UEAA_NUsNVPair@@@Z DD imagerel $LN5@Receive_Me
	DD	imagerel $LN5@Receive_Me+19
	DD	imagerel $unwind$?Receive_Message@cHoverTank@@UEAA_NUsNVPair@@@Z
pdata	ENDS
;	COMDAT pdata
pdata	SEGMENT
$pdata$??_GcHoverTank@@UEAAPEAXI@Z DD imagerel $LN14@scalar
	DD	imagerel $LN14@scalar+54
	DD	imagerel $unwind$??_GcHoverTank@@UEAAPEAXI@Z
pdata	ENDS
;	COMDAT pdata
pdata	SEGMENT
$pdata$??_GiMessaging@@UEAAPEAXI@Z DD imagerel $LN9@scalar
	DD	imagerel $LN9@scalar+43
	DD	imagerel $unwind$??_GiMessaging@@UEAAPEAXI@Z
pdata	ENDS
;	COMDAT pdata
pdata	SEGMENT
$pdata$??_GiTank@@UEAAPEAXI@Z DD imagerel $LN9@scalar
	DD	imagerel $LN9@scalar+43
	DD	imagerel $unwind$??_GiTank@@UEAAPEAXI@Z
;	COMDAT xdata
xdata	SEGMENT
$unwind$??_GiTank@@UEAAPEAXI@Z DQ 03002320600020601r ; 1.96423e-77
xdata	ENDS
;	COMDAT xdata
xdata	SEGMENT
$unwind$??_GiMessaging@@UEAAPEAXI@Z DQ 03002320600020601r ; 1.96423e-77
xdata	ENDS
;	COMDAT xdata
xdata	SEGMENT
$unwind$??_GcHoverTank@@UEAAPEAXI@Z DQ 03002320600020601r ; 1.96423e-77
xdata	ENDS
;	COMDAT xdata
xdata	SEGMENT
$unwind$?Receive_Message@cHoverTank@@UEAA_NUsNVPair@@@Z DQ 00000420400010401r ; 3.58617e-310
xdata	ENDS
;	COMDAT xdata
xdata	SEGMENT
$unwind$?Send_Message@cHoverTank@@UEAA_NUsNVPair@@@Z DQ 00000420400010401r ; 3.58617e-310
END
