; Listing generated by Microsoft (R) Optimizing Compiler Version 19.43.34808.0 

include listing.inc

INCLUDELIB OLDNAMES

PUBLIC	??_C@_0BG@PCEIJHOL@theLights?$FL0?$FN?4position@ ; `string'
PUBLIC	??_C@_0BF@JJBFEOFH@theLights?$FL0?$FN?4diffuse@	; `string'
PUBLIC	??_C@_0BG@CNJMKLOO@theLights?$FL0?$FN?4specular@ ; `string'
PUBLIC	??_C@_0BD@CDFNGJOF@theLights?$FL0?$FN?4atten@	; `string'
PUBLIC	??_C@_0BH@DIALFDEH@theLights?$FL0?$FN?4direction@ ; `string'
PUBLIC	??_C@_0BE@IGMIJENA@theLights?$FL0?$FN?4param1@	; `string'
PUBLIC	??_C@_0BE@KNOFMHBD@theLights?$FL0?$FN?4param2@	; `string'
PUBLIC	??_C@_0BG@GJONNLIE@theLights?$FL1?$FN?4position@ ; `string'
PUBLIC	??_C@_0BF@FIJLJBJH@theLights?$FL1?$FN?4diffuse@	; `string'
PUBLIC	??_C@_0BG@LGDJOHIB@theLights?$FL1?$FN?4specular@ ; `string'
PUBLIC	??_C@_0BD@DECGHNKG@theLights?$FL1?$FN?4atten@	; `string'
PUBLIC	??_C@_0BH@OFJNIKMC@theLights?$FL1?$FN?4direction@ ; `string'
PUBLIC	??_C@_0BE@GJAKPPOO@theLights?$FL1?$FN?4param1@	; `string'
PUBLIC	??_C@_0BE@ECCHKMCN@theLights?$FL1?$FN?4param2@	; `string'
PUBLIC	??_C@_0BG@BOHDAJHE@theLights?$FL2?$FN?4position@ ; `string'
PUBLIC	??_C@_0BF@MBHJPHJG@theLights?$FL2?$FN?4diffuse@	; `string'
PUBLIC	??_C@_0BG@MBKHDFHB@theLights?$FL2?$FN?4specular@ ; `string'
PUBLIC	??_C@_0BD@NKLEBGD@theLights?$FL2?$FN?4atten@	; `string'
PUBLIC	??_C@_0BH@FIFHOGAM@theLights?$FL2?$FN?4direction@ ; `string'
PUBLIC	??_C@_0BE@ICDNEEON@theLights?$FL2?$FN?4param1@	; `string'
PUBLIC	??_C@_0BE@KJBABHCO@theLights?$FL2?$FN?4param2@	; `string'
PUBLIC	??_C@_0BG@IFNGEFBL@theLights?$FL3?$FN?4position@ ; `string'
PUBLIC	??_C@_0BF@PHCIFG@theLights?$FL3?$FN?4diffuse@	; `string'
PUBLIC	??_C@_0BG@FKACHJBO@theLights?$FL3?$FN?4specular@ ; `string'
PUBLIC	??_C@_0BD@BKNAFFCA@theLights?$FL3?$FN?4atten@	; `string'
PUBLIC	??_C@_0BH@IFMBDPIJ@theLights?$FL3?$FN?4direction@ ; `string'
PUBLIC	??_C@_0BE@GNPPCPND@theLights?$FL3?$FN?4param1@	; `string'
PUBLIC	??_C@_0BE@EGNCHMBA@theLights?$FL3?$FN?4param2@	; `string'
PUBLIC	??_C@_0BG@PBEOKMJE@theLights?$FL4?$FN?4position@ ; `string'
PUBLIC	??_C@_0BF@CJMMDNNF@theLights?$FL4?$FN?4diffuse@	; `string'
PUBLIC	??_C@_0BG@COJKJAJB@theLights?$FL4?$FN?4specular@ ; `string'
PUBLIC	??_C@_0BD@HOLBDIOJ@theLights?$FL4?$FN?4atten@	; `string'
PUBLIC	??_C@_0BH@PILCDJNB@theLights?$FL4?$FN?4direction@ ; `string'
PUBLIC	??_C@_0BE@IPCDDEKK@theLights?$FL4?$FN?4param1@	; `string'
PUBLIC	??_C@_0BE@KEAOGHGJ@theLights?$FL4?$FN?4param2@	; `string'
PUBLIC	??_C@_0BG@GKOLOAPL@theLights?$FL5?$FN?4position@ ; `string'
PUBLIC	??_C@_0BF@OIECOCBF@theLights?$FL5?$FN?4diffuse@	; `string'
PUBLIC	??_C@_0BG@LFDPNMPO@theLights?$FL5?$FN?4specular@ ; `string'
PUBLIC	??_C@_0BD@GJMKCMKK@theLights?$FL5?$FN?4atten@	; `string'
PUBLIC	??_C@_0BH@CFCEOAFE@theLights?$FL5?$FN?4direction@ ; `string'
PUBLIC	??_C@_0BE@GAOBFPJE@theLights?$FL5?$FN?4param1@	; `string'
PUBLIC	??_C@_0BE@ELMMAMFH@theLights?$FL5?$FN?4param2@	; `string'
PUBLIC	??_C@_09OFAOLMBH@position?5@			; `string'
PUBLIC	?_Psave@?$_Facetptr@V?$ctype@D@std@@@std@@2PEBVfacet@locale@2@EB ; std::_Facetptr<std::ctype<char> >::_Psave
EXTRN	__imp_?is@?$ctype@D@std@@QEBA_NFD@Z:PROC
EXTRN	__imp_?_Getcat@?$ctype@D@std@@SA_KPEAPEBVfacet@locale@2@PEBV42@@Z:PROC
EXTRN	__imp_?getloc@ios_base@std@@QEBA?AVlocale@2@XZ:PROC
EXTRN	__imp_??5?$basic_istream@DU?$char_traits@D@std@@@std@@QEAAAEAV01@AEAM@Z:PROC
EXTRN	__imp_??6?$basic_ostream@DU?$char_traits@D@std@@@std@@QEAAAEAV01@M@Z:PROC
EXTRN	__imp_?snextc@?$basic_streambuf@DU?$char_traits@D@std@@@std@@QEAAHXZ:PROC
EXTRN	__imp_?sgetc@?$basic_streambuf@DU?$char_traits@D@std@@@std@@QEAAHXZ:PROC
EXTRN	__imp_?_Ipfx@?$basic_istream@DU?$char_traits@D@std@@@std@@QEAA_N_N@Z:PROC
EXTRN	__imp_?id@?$ctype@D@std@@2V0locale@2@A:QWORD
;	COMDAT ?_Psave@?$_Facetptr@V?$ctype@D@std@@@std@@2PEBVfacet@locale@2@EB
_BSS	SEGMENT
?_Psave@?$_Facetptr@V?$ctype@D@std@@@std@@2PEBVfacet@locale@2@EB DQ 01H DUP (?) ; std::_Facetptr<std::ctype<char> >::_Psave
_BSS	ENDS
;	COMDAT ??_C@_09OFAOLMBH@position?5@
CONST	SEGMENT
??_C@_09OFAOLMBH@position?5@ DB 'position ', 00H	; `string'
CONST	ENDS
;	COMDAT ??_C@_0BE@ELMMAMFH@theLights?$FL5?$FN?4param2@
CONST	SEGMENT
??_C@_0BE@ELMMAMFH@theLights?$FL5?$FN?4param2@ DB 'theLights[5].param2', 00H ; `string'
CONST	ENDS
;	COMDAT ??_C@_0BE@GAOBFPJE@theLights?$FL5?$FN?4param1@
CONST	SEGMENT
??_C@_0BE@GAOBFPJE@theLights?$FL5?$FN?4param1@ DB 'theLights[5].param1', 00H ; `string'
CONST	ENDS
;	COMDAT ??_C@_0BH@CFCEOAFE@theLights?$FL5?$FN?4direction@
CONST	SEGMENT
??_C@_0BH@CFCEOAFE@theLights?$FL5?$FN?4direction@ DB 'theLights[5].direct'
	DB	'ion', 00H					; `string'
CONST	ENDS
;	COMDAT ??_C@_0BD@GJMKCMKK@theLights?$FL5?$FN?4atten@
CONST	SEGMENT
??_C@_0BD@GJMKCMKK@theLights?$FL5?$FN?4atten@ DB 'theLights[5].atten', 00H ; `string'
CONST	ENDS
;	COMDAT ??_C@_0BG@LFDPNMPO@theLights?$FL5?$FN?4specular@
CONST	SEGMENT
??_C@_0BG@LFDPNMPO@theLights?$FL5?$FN?4specular@ DB 'theLights[5].specula'
	DB	'r', 00H					; `string'
CONST	ENDS
;	COMDAT ??_C@_0BF@OIECOCBF@theLights?$FL5?$FN?4diffuse@
CONST	SEGMENT
??_C@_0BF@OIECOCBF@theLights?$FL5?$FN?4diffuse@ DB 'theLights[5].diffuse', 00H ; `string'
CONST	ENDS
;	COMDAT ??_C@_0BG@GKOLOAPL@theLights?$FL5?$FN?4position@
CONST	SEGMENT
??_C@_0BG@GKOLOAPL@theLights?$FL5?$FN?4position@ DB 'theLights[5].positio'
	DB	'n', 00H					; `string'
CONST	ENDS
;	COMDAT ??_C@_0BE@KEAOGHGJ@theLights?$FL4?$FN?4param2@
CONST	SEGMENT
??_C@_0BE@KEAOGHGJ@theLights?$FL4?$FN?4param2@ DB 'theLights[4].param2', 00H ; `string'
CONST	ENDS
;	COMDAT ??_C@_0BE@IPCDDEKK@theLights?$FL4?$FN?4param1@
CONST	SEGMENT
??_C@_0BE@IPCDDEKK@theLights?$FL4?$FN?4param1@ DB 'theLights[4].param1', 00H ; `string'
CONST	ENDS
;	COMDAT ??_C@_0BH@PILCDJNB@theLights?$FL4?$FN?4direction@
CONST	SEGMENT
??_C@_0BH@PILCDJNB@theLights?$FL4?$FN?4direction@ DB 'theLights[4].direct'
	DB	'ion', 00H					; `string'
CONST	ENDS
;	COMDAT ??_C@_0BD@HOLBDIOJ@theLights?$FL4?$FN?4atten@
CONST	SEGMENT
??_C@_0BD@HOLBDIOJ@theLights?$FL4?$FN?4atten@ DB 'theLights[4].atten', 00H ; `string'
CONST	ENDS
;	COMDAT ??_C@_0BG@COJKJAJB@theLights?$FL4?$FN?4specular@
CONST	SEGMENT
??_C@_0BG@COJKJAJB@theLights?$FL4?$FN?4specular@ DB 'theLights[4].specula'
	DB	'r', 00H					; `string'
CONST	ENDS
;	COMDAT ??_C@_0BF@CJMMDNNF@theLights?$FL4?$FN?4diffuse@
CONST	SEGMENT
??_C@_0BF@CJMMDNNF@theLights?$FL4?$FN?4diffuse@ DB 'theLights[4].diffuse', 00H ; `string'
CONST	ENDS
;	COMDAT ??_C@_0BG@PBEOKMJE@theLights?$FL4?$FN?4position@
CONST	SEGMENT
??_C@_0BG@PBEOKMJE@theLights?$FL4?$FN?4position@ DB 'theLights[4].positio'
	DB	'n', 00H					; `string'
CONST	ENDS
;	COMDAT ??_C@_0BE@EGNCHMBA@theLights?$FL3?$FN?4param2@
CONST	SEGMENT
??_C@_0BE@EGNCHMBA@theLights?$FL3?$FN?4param2@ DB 'theLights[3].param2', 00H ; `string'
CONST	ENDS
;	COMDAT ??_C@_0BE@GNPPCPND@theLights?$FL3?$FN?4param1@
CONST	SEGMENT
??_C@_0BE@GNPPCPND@theLights?$FL3?$FN?4param1@ DB 'theLights[3].param1', 00H ; `string'
CONST	ENDS
;	COMDAT ??_C@_0BH@IFMBDPIJ@theLights?$FL3?$FN?4direction@
CONST	SEGMENT
??_C@_0BH@IFMBDPIJ@theLights?$FL3?$FN?4direction@ DB 'theLights[3].direct'
	DB	'ion', 00H					; `string'
CONST	ENDS
;	COMDAT ??_C@_0BD@BKNAFFCA@theLights?$FL3?$FN?4atten@
CONST	SEGMENT
??_C@_0BD@BKNAFFCA@theLights?$FL3?$FN?4atten@ DB 'theLights[3].atten', 00H ; `string'
CONST	ENDS
;	COMDAT ??_C@_0BG@FKACHJBO@theLights?$FL3?$FN?4specular@
CONST	SEGMENT
??_C@_0BG@FKACHJBO@theLights?$FL3?$FN?4specular@ DB 'theLights[3].specula'
	DB	'r', 00H					; `string'
CONST	ENDS
;	COMDAT ??_C@_0BF@PHCIFG@theLights?$FL3?$FN?4diffuse@
CONST	SEGMENT
??_C@_0BF@PHCIFG@theLights?$FL3?$FN?4diffuse@ DB 'theLights[3].diffuse', 00H ; `string'
CONST	ENDS
;	COMDAT ??_C@_0BG@IFNGEFBL@theLights?$FL3?$FN?4position@
CONST	SEGMENT
??_C@_0BG@IFNGEFBL@theLights?$FL3?$FN?4position@ DB 'theLights[3].positio'
	DB	'n', 00H					; `string'
CONST	ENDS
;	COMDAT ??_C@_0BE@KJBABHCO@theLights?$FL2?$FN?4param2@
CONST	SEGMENT
??_C@_0BE@KJBABHCO@theLights?$FL2?$FN?4param2@ DB 'theLights[2].param2', 00H ; `string'
CONST	ENDS
;	COMDAT ??_C@_0BE@ICDNEEON@theLights?$FL2?$FN?4param1@
CONST	SEGMENT
??_C@_0BE@ICDNEEON@theLights?$FL2?$FN?4param1@ DB 'theLights[2].param1', 00H ; `string'
CONST	ENDS
;	COMDAT ??_C@_0BH@FIFHOGAM@theLights?$FL2?$FN?4direction@
CONST	SEGMENT
??_C@_0BH@FIFHOGAM@theLights?$FL2?$FN?4direction@ DB 'theLights[2].direct'
	DB	'ion', 00H					; `string'
CONST	ENDS
;	COMDAT ??_C@_0BD@NKLEBGD@theLights?$FL2?$FN?4atten@
CONST	SEGMENT
??_C@_0BD@NKLEBGD@theLights?$FL2?$FN?4atten@ DB 'theLights[2].atten', 00H ; `string'
CONST	ENDS
;	COMDAT ??_C@_0BG@MBKHDFHB@theLights?$FL2?$FN?4specular@
CONST	SEGMENT
??_C@_0BG@MBKHDFHB@theLights?$FL2?$FN?4specular@ DB 'theLights[2].specula'
	DB	'r', 00H					; `string'
CONST	ENDS
;	COMDAT ??_C@_0BF@MBHJPHJG@theLights?$FL2?$FN?4diffuse@
CONST	SEGMENT
??_C@_0BF@MBHJPHJG@theLights?$FL2?$FN?4diffuse@ DB 'theLights[2].diffuse', 00H ; `string'
CONST	ENDS
;	COMDAT ??_C@_0BG@BOHDAJHE@theLights?$FL2?$FN?4position@
CONST	SEGMENT
??_C@_0BG@BOHDAJHE@theLights?$FL2?$FN?4position@ DB 'theLights[2].positio'
	DB	'n', 00H					; `string'
CONST	ENDS
;	COMDAT ??_C@_0BE@ECCHKMCN@theLights?$FL1?$FN?4param2@
CONST	SEGMENT
??_C@_0BE@ECCHKMCN@theLights?$FL1?$FN?4param2@ DB 'theLights[1].param2', 00H ; `string'
CONST	ENDS
;	COMDAT ??_C@_0BE@GJAKPPOO@theLights?$FL1?$FN?4param1@
CONST	SEGMENT
??_C@_0BE@GJAKPPOO@theLights?$FL1?$FN?4param1@ DB 'theLights[1].param1', 00H ; `string'
CONST	ENDS
;	COMDAT ??_C@_0BH@OFJNIKMC@theLights?$FL1?$FN?4direction@
CONST	SEGMENT
??_C@_0BH@OFJNIKMC@theLights?$FL1?$FN?4direction@ DB 'theLights[1].direct'
	DB	'ion', 00H					; `string'
CONST	ENDS
;	COMDAT ??_C@_0BD@DECGHNKG@theLights?$FL1?$FN?4atten@
CONST	SEGMENT
??_C@_0BD@DECGHNKG@theLights?$FL1?$FN?4atten@ DB 'theLights[1].atten', 00H ; `string'
CONST	ENDS
;	COMDAT ??_C@_0BG@LGDJOHIB@theLights?$FL1?$FN?4specular@
CONST	SEGMENT
??_C@_0BG@LGDJOHIB@theLights?$FL1?$FN?4specular@ DB 'theLights[1].specula'
	DB	'r', 00H					; `string'
CONST	ENDS
;	COMDAT ??_C@_0BF@FIJLJBJH@theLights?$FL1?$FN?4diffuse@
CONST	SEGMENT
??_C@_0BF@FIJLJBJH@theLights?$FL1?$FN?4diffuse@ DB 'theLights[1].diffuse', 00H ; `string'
CONST	ENDS
;	COMDAT ??_C@_0BG@GJONNLIE@theLights?$FL1?$FN?4position@
CONST	SEGMENT
??_C@_0BG@GJONNLIE@theLights?$FL1?$FN?4position@ DB 'theLights[1].positio'
	DB	'n', 00H					; `string'
CONST	ENDS
;	COMDAT ??_C@_0BE@KNOFMHBD@theLights?$FL0?$FN?4param2@
CONST	SEGMENT
??_C@_0BE@KNOFMHBD@theLights?$FL0?$FN?4param2@ DB 'theLights[0].param2', 00H ; `string'
CONST	ENDS
;	COMDAT ??_C@_0BE@IGMIJENA@theLights?$FL0?$FN?4param1@
CONST	SEGMENT
??_C@_0BE@IGMIJENA@theLights?$FL0?$FN?4param1@ DB 'theLights[0].param1', 00H ; `string'
CONST	ENDS
;	COMDAT ??_C@_0BH@DIALFDEH@theLights?$FL0?$FN?4direction@
CONST	SEGMENT
??_C@_0BH@DIALFDEH@theLights?$FL0?$FN?4direction@ DB 'theLights[0].direct'
	DB	'ion', 00H					; `string'
CONST	ENDS
;	COMDAT ??_C@_0BD@CDFNGJOF@theLights?$FL0?$FN?4atten@
CONST	SEGMENT
??_C@_0BD@CDFNGJOF@theLights?$FL0?$FN?4atten@ DB 'theLights[0].atten', 00H ; `string'
CONST	ENDS
;	COMDAT ??_C@_0BG@CNJMKLOO@theLights?$FL0?$FN?4specular@
CONST	SEGMENT
??_C@_0BG@CNJMKLOO@theLights?$FL0?$FN?4specular@ DB 'theLights[0].specula'
	DB	'r', 00H					; `string'
CONST	ENDS
;	COMDAT ??_C@_0BF@JJBFEOFH@theLights?$FL0?$FN?4diffuse@
CONST	SEGMENT
??_C@_0BF@JJBFEOFH@theLights?$FL0?$FN?4diffuse@ DB 'theLights[0].diffuse', 00H ; `string'
CONST	ENDS
;	COMDAT ??_C@_0BG@PCEIJHOL@theLights?$FL0?$FN?4position@
CONST	SEGMENT
??_C@_0BG@PCEIJHOL@theLights?$FL0?$FN?4position@ DB 'theLights[0].positio'
	DB	'n', 00H					; `string'
?_Fake_alloc@std@@3U_Fake_allocator@1@B	ORG $+1		; std::_Fake_alloc
PUBLIC	??0_Sentry_base@?$basic_istream@DU?$char_traits@D@std@@@std@@QEAA@AEAV12@@Z ; std::basic_istream<char,std::char_traits<char> >::_Sentry_base::_Sentry_base
PUBLIC	?erase@?$basic_string@DU?$char_traits@D@std@@V?$allocator@D@2@@std@@QEAAAEAV12@_K@Z ; std::basic_string<char,std::char_traits<char>,std::allocator<char> >::erase
PUBLIC	??1_Sentry_base@?$basic_istream@DU?$char_traits@D@std@@@std@@QEAA@XZ ; std::basic_istream<char,std::char_traits<char> >::_Sentry_base::~_Sentry_base
PUBLIC	??0sentry@?$basic_istream@DU?$char_traits@D@std@@@std@@QEAA@AEAV12@_N@Z ; std::basic_istream<char,std::char_traits<char> >::sentry::sentry
PUBLIC	??Bsentry@?$basic_istream@DU?$char_traits@D@std@@@std@@QEBA_NXZ ; std::basic_istream<char,std::char_traits<char> >::sentry::operator bool
PUBLIC	??1sentry@?$basic_istream@DU?$char_traits@D@std@@@std@@QEAA@XZ ; std::basic_istream<char,std::char_traits<char> >::sentry::~sentry
PUBLIC	??$?5DU?$char_traits@D@std@@V?$allocator@D@1@@std@@YAAEAV?$basic_istream@DU?$char_traits@D@std@@@0@AEAV10@AEAV?$basic_string@DU?$char_traits@D@std@@V?$allocator@D@2@@0@@Z ; std::operator>><char,std::char_traits<char>,std::allocator<char> >
PUBLIC	??$use_facet@V?$ctype@D@std@@@std@@YAAEBV?$ctype@D@0@AEBVlocale@0@@Z ; std::use_facet<std::ctype<char> >
PUBLIC	?_Eos@?$basic_string@DU?$char_traits@D@std@@V?$allocator@D@2@@std@@AEAAX_K@Z ; std::basic_string<char,std::char_traits<char>,std::allocator<char> >::_Eos
PUBLIC	?updateShaderWithLightInfo@cLightManager@@QEAAXXZ ; cLightManager::updateShaderWithLightInfo
PUBLIC	?loadUniformLocations@cLightManager@@QEAAXI@Z	; cLightManager::loadUniformLocations
PUBLIC	??_H@YAXPEAX_K1P6APEAX0@Z@Z			; `vector constructor iterator'
PUBLIC	??0sLight@cLightManager@@QEAA@XZ		; cLightManager::sLight::sLight
PUBLIC	??0cLightManager@@QEAA@XZ			; cLightManager::cLightManager
;	COMDAT pdata
pdata	SEGMENT
$pdata$??0_Sentry_base@?$basic_istream@DU?$char_traits@D@std@@@std@@QEAA@AEAV12@@Z DD imagerel $LN13@Sentry_bas
	DD	imagerel $LN13@Sentry_bas+44
	DD	imagerel $unwind$??0_Sentry_base@?$basic_istream@DU?$char_traits@D@std@@@std@@QEAA@AEAV12@@Z
pdata	ENDS
;	COMDAT pdata
pdata	SEGMENT
$pdata$??1_Sentry_base@?$basic_istream@DU?$char_traits@D@std@@@std@@QEAA@XZ DD imagerel $LN12@Sentry_bas
	DD	imagerel $LN12@Sentry_bas+36
	DD	imagerel $unwind$??1_Sentry_base@?$basic_istream@DU?$char_traits@D@std@@@std@@QEAA@XZ
pdata	ENDS
;	COMDAT pdata
pdata	SEGMENT
$pdata$??0sentry@?$basic_istream@DU?$char_traits@D@std@@@std@@QEAA@AEAV12@_N@Z DD imagerel $LN14@sentry
	DD	imagerel $LN14@sentry+63
	DD	imagerel $unwind$??0sentry@?$basic_istream@DU?$char_traits@D@std@@@std@@QEAA@AEAV12@_N@Z
pdata	ENDS
;	COMDAT pdata
pdata	SEGMENT
$pdata$??1sentry@?$basic_istream@DU?$char_traits@D@std@@@std@@QEAA@XZ DD imagerel $LN18@sentry
	DD	imagerel $LN18@sentry+36
	DD	imagerel $unwind$??1sentry@?$basic_istream@DU?$char_traits@D@std@@@std@@QEAA@XZ
pdata	ENDS
;	COMDAT pdata
pdata	SEGMENT
$pdata$??$?5DU?$char_traits@D@std@@V?$allocator@D@1@@std@@YAAEAV?$basic_istream@DU?$char_traits@D@std@@@0@AEAV10@AEAV?$basic_string@DU?$char_traits@D@std@@V?$allocator@D@2@@0@@Z DD imagerel $LN132@operator
	DD	imagerel $LN132@operator+479
	DD	imagerel $unwind$??$?5DU?$char_traits@D@std@@V?$allocator@D@1@@std@@YAAEAV?$basic_istream@DU?$char_traits@D@std@@@0@AEAV10@AEAV?$basic_string@DU?$char_traits@D@std@@V?$allocator@D@2@@0@@Z
pdata	ENDS
;	COMDAT pdata
pdata	SEGMENT
$pdata$?catch$13@?0???$?5DU?$char_traits@D@std@@V?$allocator@D@1@@std@@YAAEAV?$basic_istream@DU?$char_traits@D@std@@@0@AEAV10@AEAV?$basic_string@DU?$char_traits@D@std@@V?$allocator@D@2@@0@@Z@4HA DD imagerel ?catch$13@?0???$?5DU?$char_traits@D@std@@V?$allocator@D@1@@std@@YAAEAV?$basic_istream@DU?$char_traits@D@std@@@0@AEAV10@AEAV?$basic_string@DU?$char_traits@D@std@@V?$allocator@D@2@@0@@Z@4HA
	DD	imagerel ?catch$13@?0???$?5DU?$char_traits@D@std@@V?$allocator@D@1@@std@@YAAEAV?$basic_istream@DU?$char_traits@D@std@@@0@AEAV10@AEAV?$basic_string@DU?$char_traits@D@std@@V?$allocator@D@2@@0@@Z@4HA+59
	DD	imagerel $unwind$?catch$13@?0???$?5DU?$char_traits@D@std@@V?$allocator@D@1@@std@@YAAEAV?$basic_istream@DU?$char_traits@D@std@@@0@AEAV10@AEAV?$basic_string@DU?$char_traits@D@std@@V?$allocator@D@2@@0@@Z@4HA
pdata	ENDS
;	COMDAT pdata
pdata	SEGMENT
$pdata$??$use_facet@V?$ctype@D@std@@@std@@YAAEBV?$ctype@D@0@AEBVlocale@0@@Z DD imagerel $LN48@use_facet
	DD	imagerel $LN48@use_facet+268
	DD	imagerel $unwind$??$use_facet@V?$ctype@D@std@@@std@@YAAEBV?$ctype@D@0@AEBVlocale@0@@Z
pdata	ENDS
;	COMDAT pdata
pdata	SEGMENT
$pdata$?updateShaderWithLightInfo@cLightManager@@QEAAXXZ DD imagerel $LN12@updateShad
	DD	imagerel $LN12@updateShad+313
	DD	imagerel $unwind$?updateShaderWithLightInfo@cLightManager@@QEAAXXZ
pdata	ENDS
;	COMDAT pdata
pdata	SEGMENT
$pdata$?loadUniformLocations@cLightManager@@QEAAXI@Z DD imagerel $LN4@loadUnifor
	DD	imagerel $LN4@loadUnifor+906
	DD	imagerel $unwind$?loadUniformLocations@cLightManager@@QEAAXI@Z
pdata	ENDS
;	COMDAT pdata
pdata	SEGMENT
$pdata$??_H@YAXPEAX_K1P6APEAX0@Z@Z DD imagerel $LN13@vector
	DD	imagerel $LN13@vector+72
	DD	imagerel $unwind$??_H@YAXPEAX_K1P6APEAX0@Z@Z
;	COMDAT xdata
xdata	SEGMENT
$unwind$??_H@YAXPEAX_K1P6APEAX0@Z@Z DQ 00008641900081901r ; 1.16691e-308
	DQ	00006341900075419r		; 8.62704e-309
	DD	070153219H
xdata	ENDS
;	COMDAT xdata
xdata	SEGMENT
$unwind$?loadUniformLocations@cLightManager@@QEAAXI@Z DQ 00006340a00040a01r ; 8.62672e-309
	DD	07006320aH
xdata	ENDS
;	COMDAT xdata
xdata	SEGMENT
$unwind$?updateShaderWithLightInfo@cLightManager@@QEAAXXZ DQ 00008340a00040a01r ; 1.14081e-308
	DD	07006520aH
xdata	ENDS
;	COMDAT xdata
xdata	SEGMENT
$ip2state$??$use_facet@V?$ctype@D@std@@@std@@YAAEBV?$ctype@D@0@AEBVlocale@0@@Z DQ 060003a048202f008r ; 2.71954e+154
	DB	02H
xdata	ENDS
;	COMDAT xdata
xdata	SEGMENT
$stateUnwindMap$??$use_facet@V?$ctype@D@std@@@std@@YAAEBV?$ctype@D@0@AEBVlocale@0@@Z DW 0a04H
	DD	imagerel ??1_Lockit@std@@QEAA@XZ
	DW	03250H
	DD	imagerel ??1?$unique_ptr@V_Facet_base@std@@U?$default_delete@V_Facet_base@std@@@2@@std@@QEAA@XZ
	DB	060H
xdata	ENDS
;	COMDAT xdata
xdata	SEGMENT
$cppxdata$??$use_facet@V?$ctype@D@std@@@std@@YAAEBV?$ctype@D@0@AEBVlocale@0@@Z DB 028H
	DD	imagerel $stateUnwindMap$??$use_facet@V?$ctype@D@std@@@std@@YAAEBV?$ctype@D@0@AEBVlocale@0@@Z
	DD	imagerel $ip2state$??$use_facet@V?$ctype@D@std@@@std@@YAAEBV?$ctype@D@0@AEBVlocale@0@@Z
xdata	ENDS
;	COMDAT xdata
xdata	SEGMENT
$unwind$??$use_facet@V?$ctype@D@std@@@std@@YAAEBV?$ctype@D@0@AEBVlocale@0@@Z DQ 0000d641400082319r ; 1.86224e-308
	DQ	0000b3414000c5414r		; 1.55803e-308
	DD	070107214H
	DD	imagerel __GSHandlerCheck_EH4
	DD	imagerel $cppxdata$??$use_facet@V?$ctype@D@std@@@std@@YAAEBV?$ctype@D@0@AEBVlocale@0@@Z
	DD	03aH
xdata	ENDS
;	COMDAT xdata
xdata	SEGMENT
$unwind$?catch$13@?0???$?5DU?$char_traits@D@std@@V?$allocator@D@1@@std@@YAAEAV?$basic_istream@DU?$char_traits@D@std@@@0@AEAV10@AEAV?$basic_string@DU?$char_traits@D@std@@V?$allocator@D@2@@0@@Z@4HA DQ 05006320a00020a01r ; 3.21257e+77
xdata	ENDS
;	COMDAT xdata
xdata	SEGMENT
$ip2state$??$?5DU?$char_traits@D@std@@V?$allocator@D@1@@std@@YAAEAV?$basic_istream@DU?$char_traits@D@std@@@0@AEAV10@AEAV?$basic_string@DU?$char_traits@D@std@@V?$allocator@D@2@@0@@Z DQ 0d40656021200980er ; -5.96367e+96
	DD	08404fa08H
	DW	0320cH
	DB	00H
xdata	ENDS
;	COMDAT xdata
xdata	SEGMENT
$handlerMap$??$?5DU?$char_traits@D@std@@V?$allocator@D@1@@std@@YAAEAV?$basic_istream@DU?$char_traits@D@std@@@0@AEAV10@AEAV?$basic_string@DU?$char_traits@D@std@@V?$allocator@D@2@@0@@Z DW 01102H
	DB	080H
	DD	imagerel ?catch$13@?0???$?5DU?$char_traits@D@std@@V?$allocator@D@1@@std@@YAAEAV?$basic_istream@DU?$char_traits@D@std@@@0@AEAV10@AEAV?$basic_string@DU?$char_traits@D@std@@V?$allocator@D@2@@0@@Z@4HA
	DW	059dH
xdata	ENDS
;	COMDAT xdata
xdata	SEGMENT
$tryMap$??$?5DU?$char_traits@D@std@@V?$allocator@D@1@@std@@YAAEAV?$basic_istream@DU?$char_traits@D@std@@@0@AEAV10@AEAV?$basic_string@DU?$char_traits@D@std@@V?$allocator@D@2@@0@@Z DD 08060602H
	DD	imagerel $handlerMap$??$?5DU?$char_traits@D@std@@V?$allocator@D@1@@std@@YAAEAV?$basic_istream@DU?$char_traits@D@std@@@0@AEAV10@AEAV?$basic_string@DU?$char_traits@D@std@@V?$allocator@D@2@@0@@Z
xdata	ENDS
;	COMDAT xdata
xdata	SEGMENT
$stateUnwindMap$??$?5DU?$char_traits@D@std@@V?$allocator@D@1@@std@@YAAEAV?$basic_istream@DU?$char_traits@D@std@@@0@AEAV10@AEAV?$basic_string@DU?$char_traits@D@std@@V?$allocator@D@2@@0@@Z DW 0a0cH
	DD	imagerel ??1_Sentry_base@?$basic_istream@DU?$char_traits@D@std@@@std@@QEAA@XZ
	DW	03a60H
	DD	imagerel ??1sentry@?$basic_istream@DU?$char_traits@D@std@@@std@@QEAA@XZ
	DW	03260H
	DD	imagerel ??1locale@std@@QEAA@XZ
	DD	0ae686080H
	DD	imagerel __std_terminate
xdata	ENDS
;	COMDAT xdata
xdata	SEGMENT
$cppxdata$??$?5DU?$char_traits@D@std@@V?$allocator@D@1@@std@@YAAEAV?$basic_istream@DU?$char_traits@D@std@@@0@AEAV10@AEAV?$basic_string@DU?$char_traits@D@std@@V?$allocator@D@2@@0@@Z DB 038H
	DD	imagerel $stateUnwindMap$??$?5DU?$char_traits@D@std@@V?$allocator@D@1@@std@@YAAEAV?$basic_istream@DU?$char_traits@D@std@@@0@AEAV10@AEAV?$basic_string@DU?$char_traits@D@std@@V?$allocator@D@2@@0@@Z
	DD	imagerel $tryMap$??$?5DU?$char_traits@D@std@@V?$allocator@D@1@@std@@YAAEAV?$basic_istream@DU?$char_traits@D@std@@@0@AEAV10@AEAV?$basic_string@DU?$char_traits@D@std@@V?$allocator@D@2@@0@@Z
	DD	imagerel $ip2state$??$?5DU?$char_traits@D@std@@V?$allocator@D@1@@std@@YAAEAV?$basic_istream@DU?$char_traits@D@std@@@0@AEAV10@AEAV?$basic_string@DU?$char_traits@D@std@@V?$allocator@D@2@@0@@Z
xdata	ENDS
;	COMDAT xdata
xdata	SEGMENT
$unwind$??$?5DU?$char_traits@D@std@@V?$allocator@D@1@@std@@YAAEAV?$basic_istream@DU?$char_traits@D@std@@@0@AEAV10@AEAV?$basic_string@DU?$char_traits@D@std@@V?$allocator@D@2@@0@@Z DQ 000136417000a1719r ; 2.69665e-308
	DQ	0f013921700123417r		; -7.59595e+231
	DQ	0700bc00dd00fe011r		; 5.38534e+231
	DD	imagerel __CxxFrameHandler4
	DD	imagerel $cppxdata$??$?5DU?$char_traits@D@std@@V?$allocator@D@1@@std@@YAAEAV?$basic_istream@DU?$char_traits@D@std@@@0@AEAV10@AEAV?$basic_string@DU?$char_traits@D@std@@V?$allocator@D@2@@0@@Z
xdata	ENDS
;	COMDAT xdata
xdata	SEGMENT
$ip2state$??1sentry@?$basic_istream@DU?$char_traits@D@std@@@std@@QEAA@XZ DW 03602H
	DB	02H
xdata	ENDS
;	COMDAT xdata
xdata	SEGMENT
$stateUnwindMap$??1sentry@?$basic_istream@DU?$char_traits@D@std@@@std@@QEAA@XZ DW 0e02H
	DD	imagerel __std_terminate
xdata	ENDS
;	COMDAT xdata
xdata	SEGMENT
$cppxdata$??1sentry@?$basic_istream@DU?$char_traits@D@std@@@std@@QEAA@XZ DB 068H
	DD	imagerel $stateUnwindMap$??1sentry@?$basic_istream@DU?$char_traits@D@std@@@std@@QEAA@XZ
	DD	imagerel $ip2state$??1sentry@?$basic_istream@DU?$char_traits@D@std@@@std@@QEAA@XZ
xdata	ENDS
;	COMDAT xdata
xdata	SEGMENT
$unwind$??1sentry@?$basic_istream@DU?$char_traits@D@std@@@std@@QEAA@XZ DQ 00000420400010419r ; 3.58617e-310
	DD	imagerel __CxxFrameHandler4
	DD	imagerel $cppxdata$??1sentry@?$basic_istream@DU?$char_traits@D@std@@@std@@QEAA@XZ
xdata	ENDS
;	COMDAT xdata
xdata	SEGMENT
$ip2state$??0sentry@?$basic_istream@DU?$char_traits@D@std@@@std@@QEAA@AEAV12@_N@Z DD 012004804H
	DB	02H
xdata	ENDS
;	COMDAT xdata
xdata	SEGMENT
$stateUnwindMap$??0sentry@?$basic_istream@DU?$char_traits@D@std@@@std@@QEAA@AEAV12@_N@Z DW 0c02H
	DD	imagerel ??1_Sentry_base@?$basic_istream@DU?$char_traits@D@std@@@std@@QEAA@XZ
	DB	060H
xdata	ENDS
;	COMDAT xdata
xdata	SEGMENT
$cppxdata$??0sentry@?$basic_istream@DU?$char_traits@D@std@@@std@@QEAA@AEAV12@_N@Z DB 028H
	DD	imagerel $stateUnwindMap$??0sentry@?$basic_istream@DU?$char_traits@D@std@@@std@@QEAA@AEAV12@_N@Z
	DD	imagerel $ip2state$??0sentry@?$basic_istream@DU?$char_traits@D@std@@@std@@QEAA@AEAV12@_N@Z
xdata	ENDS
;	COMDAT xdata
xdata	SEGMENT
$unwind$??0sentry@?$basic_istream@DU?$char_traits@D@std@@@std@@QEAA@AEAV12@_N@Z DQ 03006320a00020a11r ; 2.39605e-77
	DD	imagerel __CxxFrameHandler4
	DD	imagerel $cppxdata$??0sentry@?$basic_istream@DU?$char_traits@D@std@@@std@@QEAA@AEAV12@_N@Z
xdata	ENDS
;	COMDAT xdata
xdata	SEGMENT
$ip2state$??1_Sentry_base@?$basic_istream@DU?$char_traits@D@std@@@std@@QEAA@XZ DW 03602H
	DB	00H
xdata	ENDS
;	COMDAT xdata
xdata	SEGMENT
$cppxdata$??1_Sentry_base@?$basic_istream@DU?$char_traits@D@std@@@std@@QEAA@XZ DB 060H
	DD	imagerel $ip2state$??1_Sentry_base@?$basic_istream@DU?$char_traits@D@std@@@std@@QEAA@XZ
xdata	ENDS
;	COMDAT xdata
xdata	SEGMENT
$unwind$??1_Sentry_base@?$basic_istream@DU?$char_traits@D@std@@@std@@QEAA@XZ DQ 00000420400010419r ; 3.58617e-310
	DD	imagerel __CxxFrameHandler4
	DD	imagerel $cppxdata$??1_Sentry_base@?$basic_istream@DU?$char_traits@D@std@@@std@@QEAA@XZ
xdata	ENDS
;	COMDAT xdata
xdata	SEGMENT
$unwind$??0_Sentry_base@?$basic_istream@DU?$char_traits@D@std@@@std@@QEAA@AEAV12@@Z DQ 03002320600020601r ; 1.96423e-77
END
