; Listing generated by Microsoft (R) Optimizing Compiler Version 19.43.34808.0 

include listing.inc

INCLUDELIB OLDNAMES

PUBLIC	??_R4?$basic_ostringstream@DU?$char_traits@D@std@@V?$allocator@D@2@@std@@6B@ ; std::basic_ostringstream<char,std::char_traits<char>,std::allocator<char> >::`RTTI Complete Object Locator'
PUBLIC	??_7?$basic_ostringstream@DU?$char_traits@D@std@@V?$allocator@D@2@@std@@6B@ ; std::basic_ostringstream<char,std::char_traits<char>,std::allocator<char> >::`vftable'
PUBLIC	??_R3?$basic_ostringstream@DU?$char_traits@D@std@@V?$allocator@D@2@@std@@8 ; std::basic_ostringstream<char,std::char_traits<char>,std::allocator<char> >::`RTTI Class Hierarchy Descriptor'
PUBLIC	??_R1A@?0A@EA@?$basic_ostringstream@DU?$char_traits@D@std@@V?$allocator@D@2@@std@@8 ; std::basic_ostringstream<char,std::char_traits<char>,std::allocator<char> >::`RTTI Base Class Descriptor at (0,-1,0,64)'
PUBLIC	??_R0?AV?$basic_ostringstream@DU?$char_traits@D@std@@V?$allocator@D@2@@std@@@8 ; std::basic_ostringstream<char,std::char_traits<char>,std::allocator<char> > `RTTI Type Descriptor'
PUBLIC	??_8?$basic_ostringstream@DU?$char_traits@D@std@@V?$allocator@D@2@@std@@7B@ ; std::basic_ostringstream<char,std::char_traits<char>,std::allocator<char> >::`vbtable'
PUBLIC	??_R2?$basic_ostringstream@DU?$char_traits@D@std@@V?$allocator@D@2@@std@@8 ; std::basic_ostringstream<char,std::char_traits<char>,std::allocator<char> >::`RTTI Base Class Array'
EXTRN	__imp_srand:PROC
_DATA	ENDS
;	COMDAT ??_R2?$basic_ostringstream@DU?$char_traits@D@std@@V?$allocator@D@2@@std@@8
rdata$r	SEGMENT
??_R2?$basic_ostringstream@DU?$char_traits@D@std@@V?$allocator@D@2@@std@@8 DD imagerel ??_R1A@?0A@EA@?$basic_ostringstream@DU?$char_traits@D@std@@V?$allocator@D@2@@std@@8 ; std::basic_ostringstream<char,std::char_traits<char>,std::allocator<char> >::`RTTI Base Class Array'
	DD	imagerel ??_R1A@?0A@EA@?$basic_ostream@DU?$char_traits@D@std@@@std@@8
	DD	imagerel ??_R1A@A@3FA@?$basic_ios@DU?$char_traits@D@std@@@std@@8
	DD	imagerel ??_R1A@A@3EA@ios_base@std@@8
	DD	imagerel ??_R17A@3EA@?$_Iosb@H@std@@8
	ORG $+3
rdata$r	ENDS
;	COMDAT ??_8?$basic_ostringstream@DU?$char_traits@D@std@@V?$allocator@D@2@@std@@7B@
CONST	SEGMENT
??_8?$basic_ostringstream@DU?$char_traits@D@std@@V?$allocator@D@2@@std@@7B@ DD 00H ; std::basic_ostringstream<char,std::char_traits<char>,std::allocator<char> >::`vbtable'
	DD	088H
CONST	ENDS
;	COMDAT ??_R0?AV?$basic_ostringstream@DU?$char_traits@D@std@@V?$allocator@D@2@@std@@@8
data$rs	SEGMENT
??_R0?AV?$basic_ostringstream@DU?$char_traits@D@std@@V?$allocator@D@2@@std@@@8 DQ FLAT:??_7type_info@@6B@ ; std::basic_ostringstream<char,std::char_traits<char>,std::allocator<char> > `RTTI Type Descriptor'
	DQ	0000000000000000H
	DB	'.?AV?$basic_ostringstream@DU?$char_traits@D@std@@V?$allo'
	DB	'cator@D@2@@std@@', 00H
data$rs	ENDS
;	COMDAT ??_R1A@?0A@EA@?$basic_ostringstream@DU?$char_traits@D@std@@V?$allocator@D@2@@std@@8
rdata$r	SEGMENT
??_R1A@?0A@EA@?$basic_ostringstream@DU?$char_traits@D@std@@V?$allocator@D@2@@std@@8 DD imagerel ??_R0?AV?$basic_ostringstream@DU?$char_traits@D@std@@V?$allocator@D@2@@std@@@8 ; std::basic_ostringstream<char,std::char_traits<char>,std::allocator<char> >::`RTTI Base Class Descriptor at (0,-1,0,64)'
	DD	04H
	DD	00H
	DD	0ffffffffH
	DD	00H
	DD	040H
	DD	imagerel ??_R3?$basic_ostringstream@DU?$char_traits@D@std@@V?$allocator@D@2@@std@@8
rdata$r	ENDS
;	COMDAT ??_R3?$basic_ostringstream@DU?$char_traits@D@std@@V?$allocator@D@2@@std@@8
rdata$r	SEGMENT
??_R3?$basic_ostringstream@DU?$char_traits@D@std@@V?$allocator@D@2@@std@@8 DD 00H ; std::basic_ostringstream<char,std::char_traits<char>,std::allocator<char> >::`RTTI Class Hierarchy Descriptor'
	DD	00H
	DD	05H
	DD	imagerel ??_R2?$basic_ostringstream@DU?$char_traits@D@std@@V?$allocator@D@2@@std@@8
rdata$r	ENDS
;	COMDAT ??_7?$basic_ostringstream@DU?$char_traits@D@std@@V?$allocator@D@2@@std@@6B@
CONST	SEGMENT
??_7?$basic_ostringstream@DU?$char_traits@D@std@@V?$allocator@D@2@@std@@6B@ DQ FLAT:??_R4?$basic_ostringstream@DU?$char_traits@D@std@@V?$allocator@D@2@@std@@6B@ ; std::basic_ostringstream<char,std::char_traits<char>,std::allocator<char> >::`vftable'
	DQ	FLAT:??_E?$basic_ostringstream@DU?$char_traits@D@std@@V?$allocator@D@2@@std@@$4PPPPPPPM@A@EAAPEAXI@Z
CONST	ENDS
;	COMDAT ??_R4?$basic_ostringstream@DU?$char_traits@D@std@@V?$allocator@D@2@@std@@6B@
rdata$r	SEGMENT
??_R4?$basic_ostringstream@DU?$char_traits@D@std@@V?$allocator@D@2@@std@@6B@ DD 01H ; std::basic_ostringstream<char,std::char_traits<char>,std::allocator<char> >::`RTTI Complete Object Locator'
	DD	088H
	DD	04H
	DD	imagerel ??_R0?AV?$basic_ostringstream@DU?$char_traits@D@std@@V?$allocator@D@2@@std@@@8
	DD	imagerel ??_R3?$basic_ostringstream@DU?$char_traits@D@std@@V?$allocator@D@2@@std@@8
	DD	imagerel ??_R4?$basic_ostringstream@DU?$char_traits@D@std@@V?$allocator@D@2@@std@@6B@
?_Fake_alloc@std@@3U_Fake_allocator@1@B	ORG $+1		; std::_Fake_alloc
PUBLIC	??_E?$basic_ostringstream@DU?$char_traits@D@std@@V?$allocator@D@2@@std@@$4PPPPPPPM@A@EAAPEAXI@Z ; std::basic_ostringstream<char,std::char_traits<char>,std::allocator<char> >::`vector deleting destructor'
PUBLIC	??$construct@PEAUcParticle@@PEAU1@@?$_Default_allocator_traits@V?$allocator@PEAUcParticle@@@std@@@std@@SAXAEAV?$allocator@PEAUcParticle@@@1@QEAPEAUcParticle@@$$QEAPEAU3@@Z ; std::_Default_allocator_traits<std::allocator<cParticle *> >::construct<cParticle *,cParticle *>
PUBLIC	??$forward@PEAUcParticle@@@std@@YA$$QEAPEAUcParticle@@AEAPEAU1@@Z ; std::forward<cParticle *>
PUBLIC	??$_Copy_memmove_tail@PEAPEAUcParticle@@@std@@YAPEAPEAUcParticle@@QEBDQEAPEAU1@_K2@Z ; std::_Copy_memmove_tail<cParticle * *>
PUBLIC	??$move@AEAPEAPEAUcParticle@@@std@@YA$$QEAPEAPEAUcParticle@@AEAPEAPEAU1@@Z ; std::move<cParticle * * &>
PUBLIC	??$_Emplace_back@PEAUcParticle@@@?$_Uninitialized_backout_al@V?$allocator@PEAUcParticle@@@std@@@std@@QEAAX$$QEAPEAUcParticle@@@Z ; std::_Uninitialized_backout_al<std::allocator<cParticle *> >::_Emplace_back<cParticle *>
PUBLIC	??$_To_address@PEAPEAUcParticle@@@std@@YA?A_PAEBQEAPEAUcParticle@@@Z ; std::_To_address<cParticle * *>
PUBLIC	??$_Copy_memmove@PEAPEAUcParticle@@PEAPEAU1@@std@@YAPEAPEAUcParticle@@PEAPEAU1@00@Z ; std::_Copy_memmove<cParticle * *,cParticle * *>
PUBLIC	??$move@AEAPEAUcParticle@@@std@@YA$$QEAPEAUcParticle@@AEAPEAU1@@Z ; std::move<cParticle * &>
PUBLIC	??$addressof@PEAUcParticle@@@std@@YAPEAPEAUcParticle@@AEAPEAU1@@Z ; std::addressof<cParticle *>
PUBLIC	?allocate@?$allocator@PEAUcParticle@@@std@@QEAAPEAPEAUcParticle@@_K@Z ; std::allocator<cParticle *>::allocate
PUBLIC	??0?$_Uninitialized_backout_al@V?$allocator@PEAUcParticle@@@std@@@std@@QEAA@PEAPEAUcParticle@@AEAV?$allocator@PEAUcParticle@@@1@@Z ; std::_Uninitialized_backout_al<std::allocator<cParticle *> >::_Uninitialized_backout_al<std::allocator<cParticle *> >
PUBLIC	??1?$_Uninitialized_backout_al@V?$allocator@PEAUcParticle@@@std@@@std@@QEAA@XZ ; std::_Uninitialized_backout_al<std::allocator<cParticle *> >::~_Uninitialized_backout_al<std::allocator<cParticle *> >
PUBLIC	?_Release@?$_Uninitialized_backout_al@V?$allocator@PEAUcParticle@@@std@@@std@@QEAAPEAPEAUcParticle@@XZ ; std::_Uninitialized_backout_al<std::allocator<cParticle *> >::_Release
PUBLIC	?__autoclassinit2@?$_Uninitialized_backout_al@V?$allocator@PEAUcParticle@@@std@@@std@@QEAAX_K@Z ; std::_Uninitialized_backout_al<std::allocator<cParticle *> >::__autoclassinit2
PUBLIC	??$_Uninitialized_move@PEAPEAUcParticle@@V?$allocator@PEAUcParticle@@@std@@@std@@YAPEAPEAUcParticle@@QEAPEAU1@0PEAPEAU1@AEAV?$allocator@PEAUcParticle@@@0@@Z ; std::_Uninitialized_move<cParticle * *,std::allocator<cParticle *> >
PUBLIC	??$_Get_unwrapped@AEBQEAPEAUcParticle@@@std@@YA?A_TAEBQEAPEAUcParticle@@@Z ; std::_Get_unwrapped<cParticle * * const &>
PUBLIC	??$construct@PEAUcParticle@@AEBQEAU1@@?$_Default_allocator_traits@V?$allocator@PEAUcParticle@@@std@@@std@@SAXAEAV?$allocator@PEAUcParticle@@@1@QEAPEAUcParticle@@AEBQEAU3@@Z ; std::_Default_allocator_traits<std::allocator<cParticle *> >::construct<cParticle *,cParticle * const &>
PUBLIC	??$_Unfancy@PEAUcParticle@@@std@@YAPEAPEAUcParticle@@PEAPEAU1@@Z ; std::_Unfancy<cParticle *>
PUBLIC	??$_Allocate_at_least_helper@V?$allocator@PEAUcParticle@@@std@@@std@@YAPEAPEAUcParticle@@AEAV?$allocator@PEAUcParticle@@@0@AEA_K@Z ; std::_Allocate_at_least_helper<std::allocator<cParticle *> >
PUBLIC	??$_Construct_in_place@PEAUcParticle@@AEBQEAU1@@std@@YAXAEAPEAUcParticle@@AEBQEAU1@@Z ; std::_Construct_in_place<cParticle *,cParticle * const &>
PUBLIC	?_Get_first@?$_Compressed_pair@V?$allocator@PEAUcParticle@@@std@@V?$_Vector_val@U?$_Simple_types@PEAUcParticle@@@std@@@2@$00@std@@QEBAAEBV?$allocator@PEAUcParticle@@@2@XZ ; std::_Compressed_pair<std::allocator<cParticle *>,std::_Vector_val<std::_Simple_types<cParticle *> >,1>::_Get_first
PUBLIC	?deallocate@?$allocator@PEAUcParticle@@@std@@QEAAXQEAPEAUcParticle@@_K@Z ; std::allocator<cParticle *>::deallocate
PUBLIC	?max_size@?$_Default_allocator_traits@V?$allocator@PEAUcParticle@@@std@@@std@@SA_KAEBV?$allocator@PEAUcParticle@@@2@@Z ; std::_Default_allocator_traits<std::allocator<cParticle *> >::max_size
PUBLIC	?capacity@?$vector@PEAUcParticle@@V?$allocator@PEAUcParticle@@@std@@@std@@QEBA_KXZ ; std::vector<cParticle *,std::allocator<cParticle *> >::capacity
PUBLIC	?_Getal@?$vector@PEAUcParticle@@V?$allocator@PEAUcParticle@@@std@@@std@@AEBAAEBV?$allocator@PEAUcParticle@@@2@XZ ; std::vector<cParticle *,std::allocator<cParticle *> >::_Getal
PUBLIC	?max_size@?$vector@PEAUcParticle@@V?$allocator@PEAUcParticle@@@std@@@std@@QEBA_KXZ ; std::vector<cParticle *,std::allocator<cParticle *> >::max_size
PUBLIC	?_Calculate_growth@?$vector@PEAUcParticle@@V?$allocator@PEAUcParticle@@@std@@@std@@AEBA_K_K@Z ; std::vector<cParticle *,std::allocator<cParticle *> >::_Calculate_growth
PUBLIC	?_Change_array@?$vector@PEAUcParticle@@V?$allocator@PEAUcParticle@@@std@@@std@@AEAAXQEAPEAUcParticle@@_K1@Z ; std::vector<cParticle *,std::allocator<cParticle *> >::_Change_array
PUBLIC	?_Xlength@?$vector@PEAUcParticle@@V?$allocator@PEAUcParticle@@@std@@@std@@CAXXZ ; std::vector<cParticle *,std::allocator<cParticle *> >::_Xlength
PUBLIC	?_Orphan_range@?$vector@PEAUcParticle@@V?$allocator@PEAUcParticle@@@std@@@std@@AEBAXPEAPEAUcParticle@@0@Z ; std::vector<cParticle *,std::allocator<cParticle *> >::_Orphan_range
PUBLIC	??1_Reallocation_guard@?$vector@PEAUcParticle@@V?$allocator@PEAUcParticle@@@std@@@std@@QEAA@XZ ; std::vector<cParticle *,std::allocator<cParticle *> >::_Reallocation_guard::~_Reallocation_guard
PUBLIC	??$_Emplace_reallocate@AEBQEAUcParticle@@@?$vector@PEAUcParticle@@V?$allocator@PEAUcParticle@@@std@@@std@@AEAAPEAPEAUcParticle@@QEAPEAU2@AEBQEAU2@@Z ; std::vector<cParticle *,std::allocator<cParticle *> >::_Emplace_reallocate<cParticle * const &>
PUBLIC	??$_Emplace_back_with_unused_capacity@AEBQEAUcParticle@@@?$vector@PEAUcParticle@@V?$allocator@PEAUcParticle@@@std@@@std@@AEAAAEAPEAUcParticle@@AEBQEAU2@@Z ; std::vector<cParticle *,std::allocator<cParticle *> >::_Emplace_back_with_unused_capacity<cParticle * const &>
PUBLIC	??$forward@AEBQEAUcParticle@@@std@@YAAEBQEAUcParticle@@AEBQEAU1@@Z ; std::forward<cParticle * const &>
PUBLIC	??$_Emplace_one_at_back@AEBQEAUcParticle@@@?$vector@PEAUcParticle@@V?$allocator@PEAUcParticle@@@std@@@std@@AEAAAEAPEAUcParticle@@AEBQEAU2@@Z ; std::vector<cParticle *,std::allocator<cParticle *> >::_Emplace_one_at_back<cParticle * const &>
PUBLIC	??$_Destroy_range@V?$allocator@PEAUcParticle@@@std@@@std@@YAXPEAPEAUcParticle@@QEAPEAU1@AEAV?$allocator@PEAUcParticle@@@0@@Z ; std::_Destroy_range<std::allocator<cParticle *> >
PUBLIC	??$atan2@HH$0A@@@YANHH@Z			; atan2<int,int,0>
PUBLIC	??$log@H$0A@@@YANH@Z				; log<int,0>
PUBLIC	??$pow@HH$0A@@@YANHH@Z				; pow<int,int,0>
PUBLIC	??$exp@H$0A@@@YANH@Z				; exp<int,0>
PUBLIC	?_Get_first@?$_Compressed_pair@V?$allocator@PEAUcParticle@@@std@@V?$_Vector_val@U?$_Simple_types@PEAUcParticle@@@std@@@2@$00@std@@QEAAAEAV?$allocator@PEAUcParticle@@@2@XZ ; std::_Compressed_pair<std::allocator<cParticle *>,std::_Vector_val<std::_Simple_types<cParticle *> >,1>::_Get_first
PUBLIC	?_Getal@?$vector@PEAUcParticle@@V?$allocator@PEAUcParticle@@@std@@@std@@AEAAAEAV?$allocator@PEAUcParticle@@@2@XZ ; std::vector<cParticle *,std::allocator<cParticle *> >::_Getal
PUBLIC	??_G?$basic_ostringstream@DU?$char_traits@D@std@@V?$allocator@D@2@@std@@UEAAPEAXI@Z ; std::basic_ostringstream<char,std::char_traits<char>,std::allocator<char> >::`scalar deleting destructor'
PUBLIC	??0?$basic_ostringstream@DU?$char_traits@D@std@@V?$allocator@D@2@@std@@QEAA@XZ ; std::basic_ostringstream<char,std::char_traits<char>,std::allocator<char> >::basic_ostringstream<char,std::char_traits<char>,std::allocator<char> >
PUBLIC	??1?$basic_ostringstream@DU?$char_traits@D@std@@V?$allocator@D@2@@std@@UEAA@XZ ; std::basic_ostringstream<char,std::char_traits<char>,std::allocator<char> >::~basic_ostringstream<char,std::char_traits<char>,std::allocator<char> >
PUBLIC	?push_back@?$vector@PEAUcParticle@@V?$allocator@PEAUcParticle@@@std@@@std@@QEAAXAEBQEAUcParticle@@@Z ; std::vector<cParticle *,std::allocator<cParticle *> >::push_back
PUBLIC	?clear@?$vector@PEAUcParticle@@V?$allocator@PEAUcParticle@@@std@@@std@@QEAAXXZ ; std::vector<cParticle *,std::allocator<cParticle *> >::clear
PUBLIC	?bIsOn@cParticleEmitter_2@@QEAA_NXZ		; cParticleEmitter_2::bIsOn
PUBLIC	?TurnOn@cParticleEmitter_2@@QEAAXXZ		; cParticleEmitter_2::TurnOn
PUBLIC	?GetLocation@cParticleEmitter_2@@QEAA?AU?$vec@$02M$0A@@glm@@XZ ; cParticleEmitter_2::GetLocation
PUBLIC	?GetNumberOfLiveParticles@cParticleEmitter_2@@QEAAIXZ ; cParticleEmitter_2::GetNumberOfLiveParticles
PUBLIC	?GetLiveParticles@cParticleEmitter_2@@QEAAXAEAV?$vector@PEAUcParticle@@V?$allocator@PEAUcParticle@@@std@@@std@@@Z ; cParticleEmitter_2::GetLiveParticles
PUBLIC	?m_CreateParticles@cParticleEmitter_2@@QEAAXI@Z	; cParticleEmitter_2::m_CreateParticles
PUBLIC	??0cParticle@@QEAA@XZ				; cParticle::cParticle
PUBLIC	?m_ResizeContainer@cParticleEmitter_2@@AEAAXXZ	; cParticleEmitter_2::m_ResizeContainer
PUBLIC	?__autoclassinit2@?$basic_ostringstream@DU?$char_traits@D@std@@V?$allocator@D@2@@std@@QEAAX_K@Z ; std::basic_ostringstream<char,std::char_traits<char>,std::allocator<char> >::__autoclassinit2
PUBLIC	??_D?$basic_ostringstream@DU?$char_traits@D@std@@V?$allocator@D@2@@std@@QEAAXXZ ; std::basic_ostringstream<char,std::char_traits<char>,std::allocator<char> >::`vbase destructor'
PUBLIC	?Update@cParticleEmitter_2@@QEAAXN@Z		; cParticleEmitter_2::Update
PUBLIC	?GetNumberOfParticlesPerFrame@cParticleEmitter_2@@QEAAIXZ ; cParticleEmitter_2::GetNumberOfParticlesPerFrame
PUBLIC	?SetNumberOfParticlesPerFrame@cParticleEmitter_2@@QEAAXI@Z ; cParticleEmitter_2::SetNumberOfParticlesPerFrame
PUBLIC	?SetInitalVelocity@cParticleEmitter_2@@QEAAXU?$vec@$02M$0A@@glm@@0@Z ; cParticleEmitter_2::SetInitalVelocity
PUBLIC	?SetSourceLocation@cParticleEmitter_2@@QEAAXU?$vec@$02M$0A@@glm@@@Z ; cParticleEmitter_2::SetSourceLocation
PUBLIC	?GetMaximumNumberOfParticles@cParticleEmitter_2@@QEAAIXZ ; cParticleEmitter_2::GetMaximumNumberOfParticles
PUBLIC	?SetMaximumNumberOfParticles@cParticleEmitter_2@@QEAAXI@Z ; cParticleEmitter_2::SetMaximumNumberOfParticles
PUBLIC	??0cParticleEmitter_2@@QEAA@XZ			; cParticleEmitter_2::cParticleEmitter_2
PUBLIC	?getRandom_vec3@cParticleEmitter_2@@AEAA?AU?$vec@$02M$0A@@glm@@U23@0@Z ; cParticleEmitter_2::getRandom_vec3
PUBLIC	?getRandomFloat@cParticleEmitter_2@@AEAAMMM@Z	; cParticleEmitter_2::getRandomFloat
EXTRN	??_E?$basic_ostringstream@DU?$char_traits@D@std@@V?$allocator@D@2@@std@@UEAAPEAXI@Z:PROC ; std::basic_ostringstream<char,std::char_traits<char>,std::allocator<char> >::`vector deleting destructor'
;	COMDAT pdata
pdata	SEGMENT
$pdata$??$_Copy_memmove_tail@PEAPEAUcParticle@@@std@@YAPEAPEAUcParticle@@QEBDQEAPEAU1@_K2@Z DD imagerel $LN4@Copy_memmo
	DD	imagerel $LN4@Copy_memmo+42
	DD	imagerel $unwind$??$_Copy_memmove_tail@PEAPEAUcParticle@@@std@@YAPEAPEAUcParticle@@QEBDQEAPEAU1@_K2@Z
pdata	ENDS
;	COMDAT pdata
pdata	SEGMENT
$pdata$??$_Copy_memmove@PEAPEAUcParticle@@PEAPEAU1@@std@@YAPEAPEAUcParticle@@PEAPEAU1@00@Z DD imagerel $LN6@Copy_memmo
	DD	imagerel $LN6@Copy_memmo+48
	DD	imagerel $unwind$??$_Copy_memmove@PEAPEAUcParticle@@PEAPEAU1@@std@@YAPEAPEAUcParticle@@PEAPEAU1@00@Z
pdata	ENDS
;	COMDAT pdata
pdata	SEGMENT
$pdata$?allocate@?$allocator@PEAUcParticle@@@std@@QEAAPEAPEAUcParticle@@_K@Z DD imagerel $LN31@allocate
	DD	imagerel $LN31@allocate+112
	DD	imagerel $unwind$?allocate@?$allocator@PEAUcParticle@@@std@@QEAAPEAPEAUcParticle@@_K@Z
pdata	ENDS
;	COMDAT pdata
pdata	SEGMENT
$pdata$??$_Uninitialized_move@PEAPEAUcParticle@@V?$allocator@PEAUcParticle@@@std@@@std@@YAPEAPEAUcParticle@@QEAPEAU1@0PEAPEAU1@AEAV?$allocator@PEAUcParticle@@@0@@Z DD imagerel $LN21@Uninitiali
	DD	imagerel $LN21@Uninitiali+52
	DD	imagerel $unwind$??$_Uninitialized_move@PEAPEAUcParticle@@V?$allocator@PEAUcParticle@@@std@@@std@@YAPEAPEAUcParticle@@QEAPEAU1@0PEAPEAU1@AEAV?$allocator@PEAUcParticle@@@0@@Z
pdata	ENDS
;	COMDAT pdata
pdata	SEGMENT
$pdata$??$_Allocate_at_least_helper@V?$allocator@PEAUcParticle@@@std@@@std@@YAPEAPEAUcParticle@@AEAV?$allocator@PEAUcParticle@@@0@AEA_K@Z DD imagerel $LN34@Allocate_a
	DD	imagerel $LN34@Allocate_a+115
	DD	imagerel $unwind$??$_Allocate_at_least_helper@V?$allocator@PEAUcParticle@@@std@@@std@@YAPEAPEAUcParticle@@AEAV?$allocator@PEAUcParticle@@@0@AEA_K@Z
pdata	ENDS
;	COMDAT pdata
pdata	SEGMENT
$pdata$?deallocate@?$allocator@PEAUcParticle@@@std@@QEAAXQEAPEAUcParticle@@_K@Z DD imagerel $LN23@deallocate
	DD	imagerel $LN23@deallocate+67
	DD	imagerel $unwind$?deallocate@?$allocator@PEAUcParticle@@@std@@QEAAXQEAPEAUcParticle@@_K@Z
pdata	ENDS
;	COMDAT pdata
pdata	SEGMENT
$pdata$?_Change_array@?$vector@PEAUcParticle@@V?$allocator@PEAUcParticle@@@std@@@std@@AEAAXQEAPEAUcParticle@@_K1@Z DD imagerel $LN31@Change_arr
	DD	imagerel $LN31@Change_arr+136
	DD	imagerel $unwind$?_Change_array@?$vector@PEAUcParticle@@V?$allocator@PEAUcParticle@@@std@@@std@@AEAAXQEAPEAUcParticle@@_K1@Z
pdata	ENDS
;	COMDAT pdata
pdata	SEGMENT
$pdata$?_Xlength@?$vector@PEAUcParticle@@V?$allocator@PEAUcParticle@@@std@@@std@@CAXXZ DD imagerel $LN4@Xlength
	DD	imagerel $LN4@Xlength+18
	DD	imagerel $unwind$?_Xlength@?$vector@PEAUcParticle@@V?$allocator@PEAUcParticle@@@std@@@std@@CAXXZ
pdata	ENDS
;	COMDAT pdata
pdata	SEGMENT
$pdata$??1_Reallocation_guard@?$vector@PEAUcParticle@@V?$allocator@PEAUcParticle@@@std@@@std@@QEAA@XZ DD imagerel $LN28@Reallocati
	DD	imagerel $LN28@Reallocati+78
	DD	imagerel $unwind$??1_Reallocation_guard@?$vector@PEAUcParticle@@V?$allocator@PEAUcParticle@@@std@@@std@@QEAA@XZ
pdata	ENDS
;	COMDAT pdata
pdata	SEGMENT
$pdata$??$_Emplace_reallocate@AEBQEAUcParticle@@@?$vector@PEAUcParticle@@V?$allocator@PEAUcParticle@@@std@@@std@@AEAAPEAPEAUcParticle@@QEAPEAU2@AEBQEAU2@@Z DD imagerel $LN168@Emplace_re
	DD	imagerel $LN168@Emplace_re+70
	DD	imagerel $unwind$??$_Emplace_reallocate@AEBQEAUcParticle@@@?$vector@PEAUcParticle@@V?$allocator@PEAUcParticle@@@std@@@std@@AEAAPEAPEAUcParticle@@QEAPEAU2@AEBQEAU2@@Z
pdata	ENDS
;	COMDAT pdata
pdata	SEGMENT
$pdata$2$??$_Emplace_reallocate@AEBQEAUcParticle@@@?$vector@PEAUcParticle@@V?$allocator@PEAUcParticle@@@std@@@std@@AEAAPEAPEAUcParticle@@QEAPEAU2@AEBQEAU2@@Z DD imagerel $LN168@Emplace_re+70
	DD	imagerel $LN168@Emplace_re+381
	DD	imagerel $chain$2$??$_Emplace_reallocate@AEBQEAUcParticle@@@?$vector@PEAUcParticle@@V?$allocator@PEAUcParticle@@@std@@@std@@AEAAPEAPEAUcParticle@@QEAPEAU2@AEBQEAU2@@Z
pdata	ENDS
;	COMDAT pdata
pdata	SEGMENT
$pdata$4$??$_Emplace_reallocate@AEBQEAUcParticle@@@?$vector@PEAUcParticle@@V?$allocator@PEAUcParticle@@@std@@@std@@AEAAPEAPEAUcParticle@@QEAPEAU2@AEBQEAU2@@Z DD imagerel $LN168@Emplace_re+381
	DD	imagerel $LN168@Emplace_re+388
	DD	imagerel $chain$4$??$_Emplace_reallocate@AEBQEAUcParticle@@@?$vector@PEAUcParticle@@V?$allocator@PEAUcParticle@@@std@@@std@@AEAAPEAPEAUcParticle@@QEAPEAU2@AEBQEAU2@@Z
pdata	ENDS
;	COMDAT pdata
pdata	SEGMENT
$pdata$5$??$_Emplace_reallocate@AEBQEAUcParticle@@@?$vector@PEAUcParticle@@V?$allocator@PEAUcParticle@@@std@@@std@@AEAAPEAPEAUcParticle@@QEAPEAU2@AEBQEAU2@@Z DD imagerel $LN168@Emplace_re+388
	DD	imagerel $LN168@Emplace_re+394
	DD	imagerel $chain$5$??$_Emplace_reallocate@AEBQEAUcParticle@@@?$vector@PEAUcParticle@@V?$allocator@PEAUcParticle@@@std@@@std@@AEAAPEAPEAUcParticle@@QEAPEAU2@AEBQEAU2@@Z
pdata	ENDS
;	COMDAT pdata
pdata	SEGMENT
$pdata$6$??$_Emplace_reallocate@AEBQEAUcParticle@@@?$vector@PEAUcParticle@@V?$allocator@PEAUcParticle@@@std@@@std@@AEAAPEAPEAUcParticle@@QEAPEAU2@AEBQEAU2@@Z DD imagerel $LN168@Emplace_re+394
	DD	imagerel $LN168@Emplace_re+400
	DD	imagerel $chain$6$??$_Emplace_reallocate@AEBQEAUcParticle@@@?$vector@PEAUcParticle@@V?$allocator@PEAUcParticle@@@std@@@std@@AEAAPEAPEAUcParticle@@QEAPEAU2@AEBQEAU2@@Z
pdata	ENDS
;	COMDAT pdata
pdata	SEGMENT
$pdata$??_G?$basic_ostringstream@DU?$char_traits@D@std@@V?$allocator@D@2@@std@@UEAAPEAXI@Z DD imagerel $LN17@scalar
	DD	imagerel $LN17@scalar+146
	DD	imagerel $unwind$??_G?$basic_ostringstream@DU?$char_traits@D@std@@V?$allocator@D@2@@std@@UEAAPEAXI@Z
pdata	ENDS
;	COMDAT pdata
pdata	SEGMENT
$pdata$??0?$basic_ostringstream@DU?$char_traits@D@std@@V?$allocator@D@2@@std@@QEAA@XZ DD imagerel $LN20@basic_ostr
	DD	imagerel $LN20@basic_ostr+173
	DD	imagerel $unwind$??0?$basic_ostringstream@DU?$char_traits@D@std@@V?$allocator@D@2@@std@@QEAA@XZ
pdata	ENDS
;	COMDAT pdata
pdata	SEGMENT
$pdata$?dtor$0@?0???0?$basic_ostringstream@DU?$char_traits@D@std@@V?$allocator@D@2@@std@@QEAA@XZ@4HA DD imagerel ?dtor$0@?0???0?$basic_ostringstream@DU?$char_traits@D@std@@V?$allocator@D@2@@std@@QEAA@XZ@4HA
	DD	imagerel ?dtor$0@?0???0?$basic_ostringstream@DU?$char_traits@D@std@@V?$allocator@D@2@@std@@QEAA@XZ@4HA+46
	DD	imagerel $unwind$?dtor$0@?0???0?$basic_ostringstream@DU?$char_traits@D@std@@V?$allocator@D@2@@std@@QEAA@XZ@4HA
pdata	ENDS
;	COMDAT pdata
pdata	SEGMENT
$pdata$??1?$basic_ostringstream@DU?$char_traits@D@std@@V?$allocator@D@2@@std@@UEAA@XZ DD imagerel $LN6@basic_ostr
	DD	imagerel $LN6@basic_ostr+86
	DD	imagerel $unwind$??1?$basic_ostringstream@DU?$char_traits@D@std@@V?$allocator@D@2@@std@@UEAA@XZ
pdata	ENDS
;	COMDAT pdata
pdata	SEGMENT
$pdata$?GetNumberOfLiveParticles@cParticleEmitter_2@@QEAAIXZ DD imagerel $LN27@GetNumberO
	DD	imagerel $LN27@GetNumberO+41
	DD	imagerel $unwind$?GetNumberOfLiveParticles@cParticleEmitter_2@@QEAAIXZ
pdata	ENDS
;	COMDAT pdata
pdata	SEGMENT
$pdata$4$?GetNumberOfLiveParticles@cParticleEmitter_2@@QEAAIXZ DD imagerel $LN27@GetNumberO+41
	DD	imagerel $LN27@GetNumberO+325
	DD	imagerel $chain$4$?GetNumberOfLiveParticles@cParticleEmitter_2@@QEAAIXZ
pdata	ENDS
;	COMDAT pdata
pdata	SEGMENT
$pdata$5$?GetNumberOfLiveParticles@cParticleEmitter_2@@QEAAIXZ DD imagerel $LN27@GetNumberO+325
	DD	imagerel $LN27@GetNumberO+377
	DD	imagerel $chain$5$?GetNumberOfLiveParticles@cParticleEmitter_2@@QEAAIXZ
pdata	ENDS
;	COMDAT pdata
pdata	SEGMENT
$pdata$?GetLiveParticles@cParticleEmitter_2@@QEAAXAEAV?$vector@PEAUcParticle@@V?$allocator@PEAUcParticle@@@std@@@std@@@Z DD imagerel $LN28@GetLivePar
	DD	imagerel $LN28@GetLivePar+50
	DD	imagerel $unwind$?GetLiveParticles@cParticleEmitter_2@@QEAAXAEAV?$vector@PEAUcParticle@@V?$allocator@PEAUcParticle@@@std@@@std@@@Z
pdata	ENDS
;	COMDAT pdata
pdata	SEGMENT
$pdata$0$?GetLiveParticles@cParticleEmitter_2@@QEAAXAEAV?$vector@PEAUcParticle@@V?$allocator@PEAUcParticle@@@std@@@std@@@Z DD imagerel $LN28@GetLivePar+50
	DD	imagerel $LN28@GetLivePar+136
	DD	imagerel $chain$0$?GetLiveParticles@cParticleEmitter_2@@QEAAXAEAV?$vector@PEAUcParticle@@V?$allocator@PEAUcParticle@@@std@@@std@@@Z
pdata	ENDS
;	COMDAT pdata
pdata	SEGMENT
$pdata$1$?GetLiveParticles@cParticleEmitter_2@@QEAAXAEAV?$vector@PEAUcParticle@@V?$allocator@PEAUcParticle@@@std@@@std@@@Z DD imagerel $LN28@GetLivePar+136
	DD	imagerel $LN28@GetLivePar+152
	DD	imagerel $chain$1$?GetLiveParticles@cParticleEmitter_2@@QEAAXAEAV?$vector@PEAUcParticle@@V?$allocator@PEAUcParticle@@@std@@@std@@@Z
pdata	ENDS
;	COMDAT pdata
pdata	SEGMENT
$pdata$?m_CreateParticles@cParticleEmitter_2@@QEAAXI@Z DD imagerel $LN28@m_CreatePa
	DD	imagerel $LN28@m_CreatePa+509
	DD	imagerel $unwind$?m_CreateParticles@cParticleEmitter_2@@QEAAXI@Z
pdata	ENDS
;	COMDAT pdata
pdata	SEGMENT
$pdata$?m_ResizeContainer@cParticleEmitter_2@@AEAAXXZ DD imagerel $LN28@m_ResizeCo
	DD	imagerel $LN28@m_ResizeCo+130
	DD	imagerel $unwind$?m_ResizeContainer@cParticleEmitter_2@@AEAAXXZ
pdata	ENDS
;	COMDAT pdata
pdata	SEGMENT
$pdata$??_D?$basic_ostringstream@DU?$char_traits@D@std@@V?$allocator@D@2@@std@@QEAAXXZ DD imagerel $LN11@vbase
	DD	imagerel $LN11@vbase+91
	DD	imagerel $unwind$??_D?$basic_ostringstream@DU?$char_traits@D@std@@V?$allocator@D@2@@std@@QEAAXXZ
pdata	ENDS
;	COMDAT pdata
pdata	SEGMENT
$pdata$?Update@cParticleEmitter_2@@QEAAXN@Z DD imagerel $LN125@Update
	DD	imagerel $LN125@Update+697
	DD	imagerel $unwind$?Update@cParticleEmitter_2@@QEAAXN@Z
pdata	ENDS
;	COMDAT pdata
pdata	SEGMENT
$pdata$?dtor$1@?0??Update@cParticleEmitter_2@@QEAAXN@Z@4HA DD imagerel ?dtor$1@?0??Update@cParticleEmitter_2@@QEAAXN@Z@4HA
	DD	imagerel ?dtor$1@?0??Update@cParticleEmitter_2@@QEAAXN@Z@4HA+46
	DD	imagerel $unwind$?dtor$1@?0??Update@cParticleEmitter_2@@QEAAXN@Z@4HA
pdata	ENDS
;	COMDAT pdata
pdata	SEGMENT
$pdata$??0cParticleEmitter_2@@QEAA@XZ DD imagerel $LN36@cParticleE
	DD	imagerel $LN36@cParticleE+170
	DD	imagerel $unwind$??0cParticleEmitter_2@@QEAA@XZ
pdata	ENDS
;	COMDAT pdata
pdata	SEGMENT
$pdata$?getRandom_vec3@cParticleEmitter_2@@AEAA?AU?$vec@$02M$0A@@glm@@U23@0@Z DD imagerel $LN12@getRandom_
	DD	imagerel $LN12@getRandom_+242
	DD	imagerel $unwind$?getRandom_vec3@cParticleEmitter_2@@AEAA?AU?$vec@$02M$0A@@glm@@U23@0@Z
pdata	ENDS
;	COMDAT pdata
pdata	SEGMENT
$pdata$?getRandomFloat@cParticleEmitter_2@@AEAAMMM@Z DD imagerel $LN4@getRandomF
	DD	imagerel $LN4@getRandomF+68
	DD	imagerel $unwind$?getRandomFloat@cParticleEmitter_2@@AEAAMMM@Z
;	COMDAT xdata
xdata	SEGMENT
$unwind$?getRandomFloat@cParticleEmitter_2@@AEAAMMM@Z DQ 00002781100051101r ; 3.43358e-309
	DQ	00000820400036809r		; 7.06285e-310
xdata	ENDS
;	COMDAT xdata
xdata	SEGMENT
$unwind$?getRandom_vec3@cParticleEmitter_2@@AEAA?AU?$vec@$02M$0A@@glm@@U23@0@Z DQ 00002a83a000e3a01r ; 3.6952e-309
	DQ	00004782500038834r		; 6.21535e-309
	DQ	0000f640f00056814r		; 2.14036e-308
	DQ	0700bb20f000e340fr		; 5.37473e+231
xdata	ENDS
;	COMDAT xdata
xdata	SEGMENT
$unwind$??0cParticleEmitter_2@@QEAA@XZ DQ 00008640f00060f01r ; 1.16689e-308
	DQ	0700b320f0007340fr		; 5.2777e+231
xdata	ENDS
;	COMDAT xdata
xdata	SEGMENT
$unwind$?dtor$1@?0??Update@cParticleEmitter_2@@QEAAXN@Z@4HA DQ 05002320600020601r ; 2.6336e+77
xdata	ENDS
;	COMDAT xdata
xdata	SEGMENT
$ip2state$?Update@cParticleEmitter_2@@QEAAXN@Z DQ 0045a024000031d0ar ; 1.06754e-287
	DD	03710668H
	DB	00H
xdata	ENDS
;	COMDAT xdata
xdata	SEGMENT
$stateUnwindMap$?Update@cParticleEmitter_2@@QEAAXN@Z DW 0e06H
	DD	imagerel ?dtor$1@?0??Update@cParticleEmitter_2@@QEAAXN@Z@4HA
	DB	02eH
	DD	imagerel ?dtor$2@?0??Update@cParticleEmitter_2@@QEAAXN@Z@4HA
	DB	05aH
	DD	imagerel ??_D?$basic_ostringstream@DU?$char_traits@D@std@@V?$allocator@D@2@@std@@QEAAXXZ
	DB	080H
xdata	ENDS
;	COMDAT xdata
xdata	SEGMENT
$cppxdata$?Update@cParticleEmitter_2@@QEAAXN@Z DB 028H
	DD	imagerel $stateUnwindMap$?Update@cParticleEmitter_2@@QEAAXN@Z
	DD	imagerel $ip2state$?Update@cParticleEmitter_2@@QEAAXN@Z
xdata	ENDS
;	COMDAT xdata
xdata	SEGMENT
$unwind$?Update@cParticleEmitter_2@@QEAAXN@Z DQ 00014983600154419r ; 2.86403e-308
	DQ	00016782c00158831r		; 3.12476e-308
	DQ	00038742400176828r		; 1.36028e-307
	DQ	00036342400376424r		; 1.23512e-307
	DQ	0e016f01800300124r		; -7.68866e+154
	DQ	000005010c012d014r		; 4.3494e-310
	DD	imagerel __GSHandlerCheck_EH4
	DD	imagerel $cppxdata$?Update@cParticleEmitter_2@@QEAAXN@Z
	DD	0132H
xdata	ENDS
;	COMDAT xdata
xdata	SEGMENT
$unwind$??_D?$basic_ostringstream@DU?$char_traits@D@std@@V?$allocator@D@2@@std@@QEAAXXZ DQ 03002320600020601r ; 1.96423e-77
xdata	ENDS
;	COMDAT xdata
xdata	SEGMENT
$unwind$?m_ResizeContainer@cParticleEmitter_2@@AEAAXXZ DQ 00007340a00040a01r ; 1.00174e-308
	DD	07006320aH
xdata	ENDS
;	COMDAT xdata
xdata	SEGMENT
$unwind$?m_CreateParticles@cParticleEmitter_2@@QEAAXI@Z DQ 000089877001d7701r ; 1.19536e-308
	DQ	0000a786d00098872r		; 1.45609e-308
	DQ	0001f7465000b6869r		; 4.37431e-308
	DQ	00004d854001e3461r		; 6.73785e-309
	DQ	00006b82f0005c845r		; 9.34457e-309
	DQ	0002054170007a826r		; 4.54151e-308
	DQ	0e00ef01000180117r		; -5.18509e+154
	DQ	000006008c00ad00cr		; 5.21687e-310
xdata	ENDS
;	COMDAT xdata
xdata	SEGMENT
$chain$1$?GetLiveParticles@cParticleEmitter_2@@QEAAXAEAV?$vector@PEAUcParticle@@V?$allocator@PEAUcParticle@@@std@@@std@@@Z DD 021H
	DD	imagerel $LN28@GetLivePar
	DD	imagerel $LN28@GetLivePar+50
	DD	imagerel $unwind$?GetLiveParticles@cParticleEmitter_2@@QEAAXAEAV?$vector@PEAUcParticle@@V?$allocator@PEAUcParticle@@@std@@@std@@@Z
xdata	ENDS
;	COMDAT xdata
xdata	SEGMENT
$chain$0$?GetLiveParticles@cParticleEmitter_2@@QEAAXAEAV?$vector@PEAUcParticle@@V?$allocator@PEAUcParticle@@@std@@@std@@@Z DQ 00002680500020521r ; 3.34641e-309
	DD	imagerel $LN28@GetLivePar
	DD	imagerel $LN28@GetLivePar+50
	DD	imagerel $unwind$?GetLiveParticles@cParticleEmitter_2@@QEAAXAEAV?$vector@PEAUcParticle@@V?$allocator@PEAUcParticle@@@std@@@std@@@Z
xdata	ENDS
;	COMDAT xdata
xdata	SEGMENT
$unwind$?GetLiveParticles@cParticleEmitter_2@@QEAAXAEAV?$vector@PEAUcParticle@@V?$allocator@PEAUcParticle@@@std@@@std@@@Z DQ 0000a641400061401r ; 1.44504e-308
	DQ	07010521400093414r		; 6.33451e+231
xdata	ENDS
;	COMDAT xdata
xdata	SEGMENT
$chain$5$?GetNumberOfLiveParticles@cParticleEmitter_2@@QEAAIXZ DD 021H
	DD	imagerel $LN27@GetNumberO
	DD	imagerel $LN27@GetNumberO+41
	DD	imagerel $unwind$?GetNumberOfLiveParticles@cParticleEmitter_2@@QEAAIXZ
xdata	ENDS
;	COMDAT xdata
xdata	SEGMENT
$chain$4$?GetNumberOfLiveParticles@cParticleEmitter_2@@QEAAIXZ DQ 00000782c000a2c21r ; 6.52811e-310
	DQ	00009641500016823r		; 1.30597e-308
	DQ	0000734050008540dr		; 1.00173e-308
	DD	imagerel $LN27@GetNumberO
	DD	imagerel $LN27@GetNumberO+41
	DD	imagerel $unwind$?GetNumberOfLiveParticles@cParticleEmitter_2@@QEAAIXZ
xdata	ENDS
;	COMDAT xdata
xdata	SEGMENT
$unwind$?GetNumberOfLiveParticles@cParticleEmitter_2@@QEAAIXZ DQ 07002320600020601r ; 3.53109e+231
xdata	ENDS
;	COMDAT xdata
xdata	SEGMENT
$unwind$??1?$basic_ostringstream@DU?$char_traits@D@std@@V?$allocator@D@2@@std@@UEAA@XZ DQ 03002320600020601r ; 1.96423e-77
xdata	ENDS
;	COMDAT xdata
xdata	SEGMENT
$unwind$?dtor$0@?0???0?$basic_ostringstream@DU?$char_traits@D@std@@V?$allocator@D@2@@std@@QEAA@XZ@4HA DQ 05002320600020601r ; 2.6336e+77
xdata	ENDS
;	COMDAT xdata
xdata	SEGMENT
$ip2state$??0?$basic_ostringstream@DU?$char_traits@D@std@@V?$allocator@D@2@@std@@QEAA@XZ DD 03e005e06H
	DW	06402H
	DB	04H
xdata	ENDS
;	COMDAT xdata
xdata	SEGMENT
$stateUnwindMap$??0?$basic_ostringstream@DU?$char_traits@D@std@@V?$allocator@D@2@@std@@QEAA@XZ DW 0e04H
	DD	imagerel ?dtor$0@?0???0?$basic_ostringstream@DU?$char_traits@D@std@@V?$allocator@D@2@@std@@QEAA@XZ@4HA
	DB	02eH
	DD	imagerel ?dtor$1@?0???0?$basic_ostringstream@DU?$char_traits@D@std@@V?$allocator@D@2@@std@@QEAA@XZ@4HA
xdata	ENDS
;	COMDAT xdata
xdata	SEGMENT
$cppxdata$??0?$basic_ostringstream@DU?$char_traits@D@std@@V?$allocator@D@2@@std@@QEAA@XZ DB 028H
	DD	imagerel $stateUnwindMap$??0?$basic_ostringstream@DU?$char_traits@D@std@@V?$allocator@D@2@@std@@QEAA@XZ
	DD	imagerel $ip2state$??0?$basic_ostringstream@DU?$char_traits@D@std@@V?$allocator@D@2@@std@@QEAA@XZ
xdata	ENDS
;	COMDAT xdata
xdata	SEGMENT
$unwind$??0?$basic_ostringstream@DU?$char_traits@D@std@@V?$allocator@D@2@@std@@QEAA@XZ DQ 00009340f00040f11r ; 1.27988e-308
	DD	0700b320fH
	DD	imagerel __CxxFrameHandler4
	DD	imagerel $cppxdata$??0?$basic_ostringstream@DU?$char_traits@D@std@@V?$allocator@D@2@@std@@QEAA@XZ
xdata	ENDS
;	COMDAT xdata
xdata	SEGMENT
$unwind$??_G?$basic_ostringstream@DU?$char_traits@D@std@@V?$allocator@D@2@@std@@UEAAPEAXI@Z DQ 00007640f00060f01r ; 1.02782e-308
	DQ	0700b320f0006340fr		; 5.2777e+231
xdata	ENDS
;	COMDAT xdata
xdata	SEGMENT
$chain$6$??$_Emplace_reallocate@AEBQEAUcParticle@@@?$vector@PEAUcParticle@@V?$allocator@PEAUcParticle@@@std@@@std@@AEAAPEAPEAUcParticle@@QEAPEAU2@AEBQEAU2@@Z DQ 00004f40000060021r ; 6.88817e-309
	DQ	0000c3400000d6400r		; 1.69705e-308
	DD	imagerel $LN168@Emplace_re
	DD	imagerel $LN168@Emplace_re+70
	DD	imagerel $unwind$??$_Emplace_reallocate@AEBQEAUcParticle@@@?$vector@PEAUcParticle@@V?$allocator@PEAUcParticle@@@std@@@std@@AEAAPEAPEAUcParticle@@QEAPEAU2@AEBQEAU2@@Z
xdata	ENDS
;	COMDAT xdata
xdata	SEGMENT
$chain$5$??$_Emplace_reallocate@AEBQEAUcParticle@@@?$vector@PEAUcParticle@@V?$allocator@PEAUcParticle@@@std@@@std@@AEAAPEAPEAUcParticle@@QEAPEAU2@AEBQEAU2@@Z DD 021H
	DD	imagerel $LN168@Emplace_re
	DD	imagerel $LN168@Emplace_re+70
	DD	imagerel $unwind$??$_Emplace_reallocate@AEBQEAUcParticle@@@?$vector@PEAUcParticle@@V?$allocator@PEAUcParticle@@@std@@@std@@AEAAPEAPEAUcParticle@@QEAPEAU2@AEBQEAU2@@Z
xdata	ENDS
;	COMDAT xdata
xdata	SEGMENT
$chain$4$??$_Emplace_reallocate@AEBQEAUcParticle@@@?$vector@PEAUcParticle@@V?$allocator@PEAUcParticle@@@std@@@std@@AEAAPEAPEAUcParticle@@QEAPEAU2@AEBQEAU2@@Z DQ 00004f40000060021r ; 6.88817e-309
	DQ	0000c3400000d6400r		; 1.69705e-308
	DD	imagerel $LN168@Emplace_re
	DD	imagerel $LN168@Emplace_re+70
	DD	imagerel $unwind$??$_Emplace_reallocate@AEBQEAUcParticle@@@?$vector@PEAUcParticle@@V?$allocator@PEAUcParticle@@@std@@@std@@AEAAPEAPEAUcParticle@@QEAPEAU2@AEBQEAU2@@Z
xdata	ENDS
;	COMDAT xdata
xdata	SEGMENT
$chain$2$??$_Emplace_reallocate@AEBQEAUcParticle@@@?$vector@PEAUcParticle@@V?$allocator@PEAUcParticle@@@std@@@std@@AEAAPEAPEAUcParticle@@QEAPEAU2@AEBQEAU2@@Z DQ 00004f41900061921r ; 6.8887e-309
	DQ	0000c3405000d640er		; 1.69706e-308
	DD	imagerel $LN168@Emplace_re
	DD	imagerel $LN168@Emplace_re+70
	DD	imagerel $unwind$??$_Emplace_reallocate@AEBQEAUcParticle@@@?$vector@PEAUcParticle@@V?$allocator@PEAUcParticle@@@std@@@std@@AEAAPEAPEAUcParticle@@QEAPEAU2@AEBQEAU2@@Z
xdata	ENDS
;	COMDAT xdata
xdata	SEGMENT
$unwind$??$_Emplace_reallocate@AEBQEAUcParticle@@@?$vector@PEAUcParticle@@V?$allocator@PEAUcParticle@@@std@@@std@@AEAAPEAPEAUcParticle@@QEAPEAU2@AEBQEAU2@@Z DQ 0e007420b00050b01r ; -3.89798e+154
	DQ	0000050027003c005r		; 4.34636e-310
xdata	ENDS
;	COMDAT xdata
xdata	SEGMENT
$unwind$??1_Reallocation_guard@?$vector@PEAUcParticle@@V?$allocator@PEAUcParticle@@@std@@@std@@QEAA@XZ DQ 00000420400010401r ; 3.58617e-310
xdata	ENDS
;	COMDAT xdata
xdata	SEGMENT
$unwind$?_Xlength@?$vector@PEAUcParticle@@V?$allocator@PEAUcParticle@@@std@@@std@@CAXXZ DQ 00000420400010401r ; 3.58617e-310
xdata	ENDS
;	COMDAT xdata
xdata	SEGMENT
$unwind$?_Change_array@?$vector@PEAUcParticle@@V?$allocator@PEAUcParticle@@@std@@@std@@AEAAXQEAPEAUcParticle@@_K1@Z DQ 00009641400081401r ; 1.30597e-308
	DQ	00007341400085414r		; 1.00176e-308
	DD	070103214H
xdata	ENDS
;	COMDAT xdata
xdata	SEGMENT
$unwind$?deallocate@?$allocator@PEAUcParticle@@@std@@QEAAXQEAPEAUcParticle@@_K@Z DQ 00000420400010401r ; 3.58617e-310
xdata	ENDS
;	COMDAT xdata
xdata	SEGMENT
$unwind$??$_Allocate_at_least_helper@V?$allocator@PEAUcParticle@@@std@@@std@@YAPEAPEAUcParticle@@AEAV?$allocator@PEAUcParticle@@@0@AEA_K@Z DQ 00000420400010401r ; 3.58617e-310
xdata	ENDS
;	COMDAT xdata
xdata	SEGMENT
$unwind$??$_Uninitialized_move@PEAPEAUcParticle@@V?$allocator@PEAUcParticle@@@std@@@std@@YAPEAPEAUcParticle@@QEAPEAU1@0PEAPEAU1@AEAV?$allocator@PEAUcParticle@@@0@@Z DQ 00009340a00040a01r ; 1.27987e-308
	DD	07006320aH
xdata	ENDS
;	COMDAT xdata
xdata	SEGMENT
$unwind$?allocate@?$allocator@PEAUcParticle@@@std@@QEAAPEAPEAUcParticle@@_K@Z DQ 00000420400010401r ; 3.58617e-310
xdata	ENDS
;	COMDAT xdata
xdata	SEGMENT
$unwind$??$_Copy_memmove@PEAPEAUcParticle@@PEAPEAU1@@std@@YAPEAPEAUcParticle@@PEAPEAU1@00@Z DQ 00009340a00040a01r ; 1.27987e-308
	DD	07006320aH
xdata	ENDS
;	COMDAT xdata
xdata	SEGMENT
$unwind$??$_Copy_memmove_tail@PEAPEAUcParticle@@@std@@YAPEAPEAUcParticle@@QEBDQEAPEAU1@_K2@Z DQ 00006340a00040a01r ; 8.62672e-309
	DD	07006320aH
END
