; Listing generated by Microsoft (R) Optimizing Compiler Version 19.43.34808.0 

include listing.inc

INCLUDELIB OLDNAMES

?_Fake_alloc@std@@3U_Fake_allocator@1@B	ORG $+1		; std::_Fake_alloc
?piecewise_construct@std@@3Upiecewise_construct_t@1@B	ORG $+1 ; std::piecewise_construct
PUBLIC	??$addressof@PEAU?$_Tree_node@U?$pair@$$CB_KPEAVcBroad_Cube@cPhysics@@@std@@PEAX@std@@@std@@YAPEAPEAU?$_Tree_node@U?$pair@$$CB_KPEAVcBroad_Cube@cPhysics@@@std@@PEAX@0@AEAPEAU10@@Z ; std::addressof<std::_Tree_node<std::pair<unsigned __int64 const ,cPhysics::cBroad_Cube *>,void *> *>
PUBLIC	??R?$divides@M@std@@QEBAMAEBM0@Z		; std::divides<float>::operator()
PUBLIC	??$_Get_size_of_n@$0DA@@std@@YA_K_K@Z		; std::_Get_size_of_n<48>
PUBLIC	??$call@U?$divides@M@std@@@?$functor2@Uvec@glm@@$02M$0A@@detail@glm@@SA?AU?$vec@$02M$0A@@2@U?$divides@M@std@@AEBU32@1@Z ; glm::detail::functor2<glm::vec,3,float,0>::call<std::divides<float> >
PUBLIC	??$forward@AEBQEAU?$_Tree_node@U?$pair@$$CB_KPEAVcBroad_Cube@cPhysics@@@std@@PEAX@std@@@std@@YAAEBQEAU?$_Tree_node@U?$pair@$$CB_KPEAVcBroad_Cube@cPhysics@@@std@@PEAX@0@AEBQEAU10@@Z ; std::forward<std::_Tree_node<std::pair<unsigned __int64 const ,cPhysics::cBroad_Cube *>,void *> * const &>
PUBLIC	?allocate@?$allocator@U?$_Tree_node@U?$pair@$$CB_KPEAVcBroad_Cube@cPhysics@@@std@@PEAX@std@@@std@@QEAAPEAU?$_Tree_node@U?$pair@$$CB_KPEAVcBroad_Cube@cPhysics@@@std@@PEAX@2@_K@Z ; std::allocator<std::_Tree_node<std::pair<unsigned __int64 const ,cPhysics::cBroad_Cube *>,void *> >::allocate
PUBLIC	?call@?$compute_vec_div@$02M$0A@$0A@@detail@glm@@SA?AU?$vec@$02M$0A@@3@AEBU43@0@Z ; glm::detail::compute_vec_div<3,float,0,0>::call
PUBLIC	??$destroy@U?$pair@$$CB_KPEAVcBroad_Cube@cPhysics@@@std@@@?$_Default_allocator_traits@V?$allocator@U?$_Tree_node@U?$pair@$$CB_KPEAVcBroad_Cube@cPhysics@@@std@@PEAX@std@@@std@@@std@@SAXAEAV?$allocator@U?$_Tree_node@U?$pair@$$CB_KPEAVcBroad_Cube@cPhysics@@@std@@PEAX@std@@@1@QEAU?$pair@$$CB_KPEAVcBroad_Cube@cPhysics@@@1@@Z ; std::_Default_allocator_traits<std::allocator<std::_Tree_node<std::pair<unsigned __int64 const ,cPhysics::cBroad_Cube *>,void *> > >::destroy<std::pair<unsigned __int64 const ,cPhysics::cBroad_Cube *> >
PUBLIC	??$addressof@U?$pair@$$CB_KPEAVcBroad_Cube@cPhysics@@@std@@@std@@YAPEAU?$pair@$$CB_KPEAVcBroad_Cube@cPhysics@@@0@AEAU10@@Z ; std::addressof<std::pair<unsigned __int64 const ,cPhysics::cBroad_Cube *> >
PUBLIC	??$_Destroy_in_place@PEAU?$_Tree_node@U?$pair@$$CB_KPEAVcBroad_Cube@cPhysics@@@std@@PEAX@std@@@std@@YAXAEAPEAU?$_Tree_node@U?$pair@$$CB_KPEAVcBroad_Cube@cPhysics@@@std@@PEAX@0@@Z ; std::_Destroy_in_place<std::_Tree_node<std::pair<unsigned __int64 const ,cPhysics::cBroad_Cube *>,void *> *>
PUBLIC	??$?_0M@?$vec@$02M$0A@@glm@@QEAAAEAU01@M@Z	; glm::vec<3,float,0>::operator/=<float>
PUBLIC	?_Get_first@?$_Compressed_pair@V?$allocator@U?$_Tree_node@U?$pair@$$CB_KPEAVcBroad_Cube@cPhysics@@@std@@PEAX@std@@@std@@V?$_Tree_val@U?$_Tree_simple_types@U?$pair@$$CB_KPEAVcBroad_Cube@cPhysics@@@std@@@std@@@2@$00@std@@QEAAAEAV?$allocator@U?$_Tree_node@U?$pair@$$CB_KPEAVcBroad_Cube@cPhysics@@@std@@PEAX@std@@@2@XZ ; std::_Compressed_pair<std::allocator<std::_Tree_node<std::pair<unsigned __int64 const ,cPhysics::cBroad_Cube *>,void *> >,std::_Tree_val<std::_Tree_simple_types<std::pair<unsigned __int64 const ,cPhysics::cBroad_Cube *> > >,1>::_Get_first
PUBLIC	?_Getal@?$_Tree@V?$_Tmap_traits@_KPEAVcBroad_Cube@cPhysics@@U?$less@_K@std@@V?$allocator@U?$pair@$$CB_KPEAVcBroad_Cube@cPhysics@@@std@@@4@$0A@@std@@@std@@IEAAAEAV?$allocator@U?$_Tree_node@U?$pair@$$CB_KPEAVcBroad_Cube@cPhysics@@@std@@PEAX@std@@@2@XZ ; std::_Tree<std::_Tmap_traits<unsigned __int64,cPhysics::cBroad_Cube *,std::less<unsigned __int64>,std::allocator<std::pair<unsigned __int64 const ,cPhysics::cBroad_Cube *> >,0> >::_Getal
PUBLIC	??$addressof@V?$_Tree_val@U?$_Tree_simple_types@U?$pair@$$CB_KPEAVcBroad_Cube@cPhysics@@@std@@@std@@@std@@@std@@YAPEAV?$_Tree_val@U?$_Tree_simple_types@U?$pair@$$CB_KPEAVcBroad_Cube@cPhysics@@@std@@@std@@@0@AEAV10@@Z ; std::addressof<std::_Tree_val<std::_Tree_simple_types<std::pair<unsigned __int64 const ,cPhysics::cBroad_Cube *> > > >
PUBLIC	??$?KM$0A@@glm@@YA?AU?$vec@$02M$0A@@0@AEBU10@M@Z ; glm::operator/<float,0>
PUBLIC	?_Get_scary@?$_Tree@V?$_Tmap_traits@_KPEAVcBroad_Cube@cPhysics@@U?$less@_K@std@@V?$allocator@U?$pair@$$CB_KPEAVcBroad_Cube@cPhysics@@@std@@@4@$0A@@std@@@std@@IEAAPEAV?$_Tree_val@U?$_Tree_simple_types@U?$pair@$$CB_KPEAVcBroad_Cube@cPhysics@@@std@@@std@@@2@XZ ; std::_Tree<std::_Tmap_traits<unsigned __int64,cPhysics::cBroad_Cube *,std::less<unsigned __int64>,std::allocator<std::pair<unsigned __int64 const ,cPhysics::cBroad_Cube *> >,0> >::_Get_scary
;	COMDAT pdata
pdata	SEGMENT
$pdata$??$_Get_size_of_n@$0DA@@std@@YA_K_K@Z DD imagerel $LN7@Get_size_o
	DD	imagerel $LN7@Get_size_o+38
	DD	imagerel $unwind$??$_Get_size_of_n@$0DA@@std@@YA_K_K@Z
pdata	ENDS
;	COMDAT pdata
pdata	SEGMENT
$pdata$??$?KM$0A@@glm@@YA?AU?$vec@$02M$0A@@0@AEBU10@M@Z DD imagerel $LN20@operator
	DD	imagerel $LN20@operator+60
	DD	imagerel $unwind$??$?KM$0A@@glm@@YA?AU?$vec@$02M$0A@@0@AEBU10@M@Z
;	COMDAT xdata
xdata	SEGMENT
$unwind$??$?KM$0A@@glm@@YA?AU?$vec@$02M$0A@@0@AEBU10@M@Z DQ 00000220400010401r ; 1.84783e-310
xdata	ENDS
;	COMDAT xdata
xdata	SEGMENT
$unwind$??$_Get_size_of_n@$0DA@@std@@YA_K_K@Z DQ 00000420400010401r ; 3.58617e-310
END
