; Listing generated by Microsoft (R) Optimizing Compiler Version 19.43.34808.0 

include listing.inc

INCLUDELIB OLDNAMES

?_Fake_alloc@std@@3U_Fake_allocator@1@B	ORG $+1		; std::_Fake_alloc
PUBLIC	??$_Unfancy_maybe_null@PEAUsParticle@cSoftBodyVerlet@@@std@@YAPEAPEAUsParticle@cSoftBodyVerlet@@PEAPEAU12@@Z ; std::_Unfancy_maybe_null<cSoftBodyVerlet::sParticle *>
PUBLIC	??$_Unfancy_maybe_null@PEAUsConstraint@cSoftBodyVerlet@@@std@@YAPEAPEAUsConstraint@cSoftBodyVerlet@@PEAPEAU12@@Z ; std::_Unfancy_maybe_null<cSoftBodyVerlet::sConstraint *>
PUBLIC	?_Unchecked_begin@?$vector@PEAUsParticle@cSoftBodyVerlet@@V?$allocator@PEAUsParticle@cSoftBodyVerlet@@@std@@@std@@QEAAPEAPEAUsParticle@cSoftBodyVerlet@@XZ ; std::vector<cSoftBodyVerlet::sParticle *,std::allocator<cSoftBodyVerlet::sParticle *> >::_Unchecked_begin
PUBLIC	?_Unchecked_end@?$vector@PEAUsParticle@cSoftBodyVerlet@@V?$allocator@PEAUsParticle@cSoftBodyVerlet@@@std@@@std@@QEAAPEAPEAUsParticle@cSoftBodyVerlet@@XZ ; std::vector<cSoftBodyVerlet::sParticle *,std::allocator<cSoftBodyVerlet::sParticle *> >::_Unchecked_end
PUBLIC	?size@?$vector@PEAUsParticle@cSoftBodyVerlet@@V?$allocator@PEAUsParticle@cSoftBodyVerlet@@@std@@@std@@QEBA_KXZ ; std::vector<cSoftBodyVerlet::sParticle *,std::allocator<cSoftBodyVerlet::sParticle *> >::size
PUBLIC	??A?$vector@PEAUsParticle@cSoftBodyVerlet@@V?$allocator@PEAUsParticle@cSoftBodyVerlet@@@std@@@std@@QEAAAEAPEAUsParticle@cSoftBodyVerlet@@_K@Z ; std::vector<cSoftBodyVerlet::sParticle *,std::allocator<cSoftBodyVerlet::sParticle *> >::operator[]
PUBLIC	?_Unchecked_begin@?$vector@PEAUsConstraint@cSoftBodyVerlet@@V?$allocator@PEAUsConstraint@cSoftBodyVerlet@@@std@@@std@@QEAAPEAPEAUsConstraint@cSoftBodyVerlet@@XZ ; std::vector<cSoftBodyVerlet::sConstraint *,std::allocator<cSoftBodyVerlet::sConstraint *> >::_Unchecked_begin
PUBLIC	?_Unchecked_end@?$vector@PEAUsConstraint@cSoftBodyVerlet@@V?$allocator@PEAUsConstraint@cSoftBodyVerlet@@@std@@@std@@QEAAPEAPEAUsConstraint@cSoftBodyVerlet@@XZ ; std::vector<cSoftBodyVerlet::sConstraint *,std::allocator<cSoftBodyVerlet::sConstraint *> >::_Unchecked_end
PUBLIC	?cleanZeros@cSoftBodyVerlet@@QEAAXAEAU?$vec@$02M$0A@@glm@@@Z ; cSoftBodyVerlet::cleanZeros
PUBLIC	?UpdateNormals@cSoftBodyVerlet@@QEAAXXZ		; cSoftBodyVerlet::UpdateNormals
PUBLIC	??4sModelDrawInfo@@QEAAAEAU0@AEBU0@@Z		; sModelDrawInfo::operator=
PUBLIC	?SatisfyConstraints@cSoftBodyVerlet@@QEAAXXZ	; cSoftBodyVerlet::SatisfyConstraints
PUBLIC	?ApplyCollision@cSoftBodyVerlet@@QEAAXN@Z	; cSoftBodyVerlet::ApplyCollision
PUBLIC	?VerletUpdate@cSoftBodyVerlet@@QEAAXN@Z		; cSoftBodyVerlet::VerletUpdate
;	COMDAT pdata
pdata	SEGMENT
$pdata$?UpdateNormals@cSoftBodyVerlet@@QEAAXXZ DD imagerel $LN176@UpdateNorm
	DD	imagerel $LN176@UpdateNorm+22
	DD	imagerel $unwind$?UpdateNormals@cSoftBodyVerlet@@QEAAXXZ
pdata	ENDS
;	COMDAT pdata
pdata	SEGMENT
$pdata$4$?UpdateNormals@cSoftBodyVerlet@@QEAAXXZ DD imagerel $LN176@UpdateNorm+22
	DD	imagerel $LN176@UpdateNorm+145
	DD	imagerel $chain$4$?UpdateNormals@cSoftBodyVerlet@@QEAAXXZ
pdata	ENDS
;	COMDAT pdata
pdata	SEGMENT
$pdata$8$?UpdateNormals@cSoftBodyVerlet@@QEAAXXZ DD imagerel $LN176@UpdateNorm+145
	DD	imagerel $LN176@UpdateNorm+606
	DD	imagerel $chain$8$?UpdateNormals@cSoftBodyVerlet@@QEAAXXZ
pdata	ENDS
;	COMDAT pdata
pdata	SEGMENT
$pdata$9$?UpdateNormals@cSoftBodyVerlet@@QEAAXXZ DD imagerel $LN176@UpdateNorm+606
	DD	imagerel $LN176@UpdateNorm+626
	DD	imagerel $chain$9$?UpdateNormals@cSoftBodyVerlet@@QEAAXXZ
pdata	ENDS
;	COMDAT pdata
pdata	SEGMENT
$pdata$10$?UpdateNormals@cSoftBodyVerlet@@QEAAXXZ DD imagerel $LN176@UpdateNorm+626
	DD	imagerel $LN176@UpdateNorm+828
	DD	imagerel $chain$10$?UpdateNormals@cSoftBodyVerlet@@QEAAXXZ
pdata	ENDS
;	COMDAT pdata
pdata	SEGMENT
$pdata$??4sModelDrawInfo@@QEAAAEAU0@AEBU0@@Z DD imagerel $LN17@operator
	DD	imagerel $LN17@operator+208
	DD	imagerel $unwind$??4sModelDrawInfo@@QEAAAEAU0@AEBU0@@Z
pdata	ENDS
;	COMDAT pdata
pdata	SEGMENT
$pdata$?SatisfyConstraints@cSoftBodyVerlet@@QEAAXXZ DD imagerel $LN232@SatisfyCon
	DD	imagerel $LN232@SatisfyCon+588
	DD	imagerel $unwind$?SatisfyConstraints@cSoftBodyVerlet@@QEAAXXZ
pdata	ENDS
;	COMDAT pdata
pdata	SEGMENT
$pdata$?ApplyCollision@cSoftBodyVerlet@@QEAAXN@Z DD imagerel $LN177@ApplyColli
	DD	imagerel $LN177@ApplyColli+79
	DD	imagerel $unwind$?ApplyCollision@cSoftBodyVerlet@@QEAAXN@Z
pdata	ENDS
;	COMDAT pdata
pdata	SEGMENT
$pdata$8$?ApplyCollision@cSoftBodyVerlet@@QEAAXN@Z DD imagerel $LN177@ApplyColli+79
	DD	imagerel $LN177@ApplyColli+519
	DD	imagerel $chain$8$?ApplyCollision@cSoftBodyVerlet@@QEAAXN@Z
pdata	ENDS
;	COMDAT pdata
pdata	SEGMENT
$pdata$9$?ApplyCollision@cSoftBodyVerlet@@QEAAXN@Z DD imagerel $LN177@ApplyColli+519
	DD	imagerel $LN177@ApplyColli+536
	DD	imagerel $chain$9$?ApplyCollision@cSoftBodyVerlet@@QEAAXN@Z
pdata	ENDS
;	COMDAT pdata
pdata	SEGMENT
$pdata$?VerletUpdate@cSoftBodyVerlet@@QEAAXN@Z DD imagerel $LN101@VerletUpda
	DD	imagerel $LN101@VerletUpda+55
	DD	imagerel $unwind$?VerletUpdate@cSoftBodyVerlet@@QEAAXN@Z
pdata	ENDS
;	COMDAT pdata
pdata	SEGMENT
$pdata$4$?VerletUpdate@cSoftBodyVerlet@@QEAAXN@Z DD imagerel $LN101@VerletUpda+55
	DD	imagerel $LN101@VerletUpda+409
	DD	imagerel $chain$4$?VerletUpdate@cSoftBodyVerlet@@QEAAXN@Z
pdata	ENDS
;	COMDAT pdata
pdata	SEGMENT
$pdata$5$?VerletUpdate@cSoftBodyVerlet@@QEAAXN@Z DD imagerel $LN101@VerletUpda+409
	DD	imagerel $LN101@VerletUpda+420
	DD	imagerel $chain$5$?VerletUpdate@cSoftBodyVerlet@@QEAAXN@Z
;	COMDAT xdata
xdata	SEGMENT
$chain$5$?VerletUpdate@cSoftBodyVerlet@@QEAAXN@Z DD 021H
	DD	imagerel $LN101@VerletUpda
	DD	imagerel $LN101@VerletUpda+55
	DD	imagerel $unwind$?VerletUpdate@cSoftBodyVerlet@@QEAAXN@Z
xdata	ENDS
;	COMDAT xdata
xdata	SEGMENT
$chain$4$?VerletUpdate@cSoftBodyVerlet@@QEAAXN@Z DQ 000039824000a2421r ; 4.99849e-309
	DQ	0000578180004881er		; 7.60574e-309
	DQ	0000668050002a813r		; 8.90909e-309
	DD	imagerel $LN101@VerletUpda
	DD	imagerel $LN101@VerletUpda+55
	DD	imagerel $unwind$?VerletUpdate@cSoftBodyVerlet@@QEAAXN@Z
xdata	ENDS
;	COMDAT xdata
xdata	SEGMENT
$unwind$?VerletUpdate@cSoftBodyVerlet@@QEAAXN@Z DQ 00001b81500031501r ; 2.39066e-309
	DD	0e204H
xdata	ENDS
;	COMDAT xdata
xdata	SEGMENT
$chain$9$?ApplyCollision@cSoftBodyVerlet@@QEAAXN@Z DD 021H
	DD	imagerel $LN177@ApplyColli
	DD	imagerel $LN177@ApplyColli+79
	DD	imagerel $unwind$?ApplyCollision@cSoftBodyVerlet@@QEAAXN@Z
xdata	ENDS
;	COMDAT xdata
xdata	SEGMENT
$chain$8$?ApplyCollision@cSoftBodyVerlet@@QEAAXN@Z DQ 00006a86c00126c21r ; 9.25895e-309
	DQ	0000a685e00097866r		; 1.44737e-308
	DQ	00004c83e0003d84dr		; 6.65046e-309
	DQ	0000798200005b82fr		; 1.05611e-308
	DQ	00019740800088811r		; 3.53971e-308
	DD	imagerel $LN177@ApplyColli
	DD	imagerel $LN177@ApplyColli+79
	DD	imagerel $unwind$?ApplyCollision@cSoftBodyVerlet@@QEAAXN@Z
xdata	ENDS
;	COMDAT xdata
xdata	SEGMENT
$unwind$?ApplyCollision@cSoftBodyVerlet@@QEAAXN@Z DQ 0001a340d00050d01r ; 3.64402e-308
	DQ	0000060060016010dr		; 5.21629e-310
xdata	ENDS
;	COMDAT xdata
xdata	SEGMENT
$unwind$?SatisfyConstraints@cSoftBodyVerlet@@QEAAXXZ DQ 00003b85500195501r ; 5.17336e-309
	DQ	00005984a0004a84fr		; 7.78064e-309
	DQ	00007783500068845r		; 1.03877e-308
	DQ	0001b641f00086823r		; 3.8092e-308
	DQ	00019341f001a541fr		; 3.50499e-308
	DQ	0e016f0180012011fr		; -7.68866e+154
	DQ	000007010c012d014r		; 6.08774e-310
xdata	ENDS
;	COMDAT xdata
xdata	SEGMENT
$unwind$??4sModelDrawInfo@@QEAAAEAU0@AEBU0@@Z DQ 00006340a00040a01r ; 8.62672e-309
	DD	07006320aH
xdata	ENDS
;	COMDAT xdata
xdata	SEGMENT
$chain$10$?UpdateNormals@cSoftBodyVerlet@@QEAAXXZ DQ 00005880000080021r ; 7.69215e-309
	DQ	00007680000067800r		; 1.02997e-308
	DD	0175400H
	DD	imagerel $LN176@UpdateNorm
	DD	imagerel $LN176@UpdateNorm+22
	DD	imagerel $unwind$?UpdateNormals@cSoftBodyVerlet@@QEAAXXZ
xdata	ENDS
;	COMDAT xdata
xdata	SEGMENT
$chain$9$?UpdateNormals@cSoftBodyVerlet@@QEAAXXZ DD 021H
	DD	imagerel $LN176@UpdateNorm+22
	DD	imagerel $LN176@UpdateNorm+145
	DD	imagerel $chain$4$?UpdateNormals@cSoftBodyVerlet@@QEAAXXZ
xdata	ENDS
;	COMDAT xdata
xdata	SEGMENT
$chain$8$?UpdateNormals@cSoftBodyVerlet@@QEAAXXZ DQ 00002b81c00081c21r ; 3.78148e-309
	DQ	00010f4100003a816r		; 2.35766e-308
	DD	011e408H
	DD	imagerel $LN176@UpdateNorm+22
	DD	imagerel $LN176@UpdateNorm+145
	DD	imagerel $chain$4$?UpdateNormals@cSoftBodyVerlet@@QEAAXXZ
xdata	ENDS
;	COMDAT xdata
xdata	SEGMENT
$chain$4$?UpdateNormals@cSoftBodyVerlet@@QEAAXXZ DQ 00005886f000a6f21r ; 7.69451e-309
	DQ	00007686400067869r		; 1.03018e-308
	DQ	00018d4080017545fr		; 3.45279e-308
	DD	imagerel $LN176@UpdateNorm
	DD	imagerel $LN176@UpdateNorm+22
	DD	imagerel $unwind$?UpdateNormals@cSoftBodyVerlet@@QEAAXXZ
xdata	ENDS
;	COMDAT xdata
xdata	SEGMENT
$unwind$?UpdateNormals@cSoftBodyVerlet@@QEAAXXZ DQ 00004981300071301r ; 6.3888e-309
	DQ	0600370040012010br		; 3.25769e+154
	DD	03002H
END
