; Listing generated by Microsoft (R) Optimizing Compiler Version 19.43.34808.0 

include listing.inc

INCLUDELIB OLDNAMES

PUBLIC	??_C@_0BI@HGKIKLOO@A?5super?5tank?5is?5created@	; `string'
PUBLIC	??_R1A@?0A@EA@cSuperTank@@8			; cSuperTank::`RTTI Base Class Descriptor at (0,-1,0,64)'
PUBLIC	??_R2cSuperTank@@8				; cSuperTank::`RTTI Base Class Array'
PUBLIC	??_7cSuperTank@@6BiTank@@@			; cSuperTank::`vftable'
PUBLIC	??_R3cSuperTank@@8				; cSuperTank::`RTTI Class Hierarchy Descriptor'
PUBLIC	??_R0?AVcSuperTank@@@8				; cSuperTank `RTTI Type Descriptor'
PUBLIC	??_R4cSuperTank@@6BiTank@@@			; cSuperTank::`RTTI Complete Object Locator'
PUBLIC	??_7cSuperTank@@6BiMessaging@@@			; cSuperTank::`vftable'
PUBLIC	??_R4cSuperTank@@6BiMessaging@@@		; cSuperTank::`RTTI Complete Object Locator'
;	COMDAT ??_R4cSuperTank@@6BiMessaging@@@
rdata$r	SEGMENT
??_R4cSuperTank@@6BiMessaging@@@ DD 01H			; cSuperTank::`RTTI Complete Object Locator'
	DD	08H
	DD	00H
	DD	imagerel ??_R0?AVcSuperTank@@@8
	DD	imagerel ??_R3cSuperTank@@8
	DD	imagerel ??_R4cSuperTank@@6BiMessaging@@@
rdata$r	ENDS
;	COMDAT ??_7cSuperTank@@6BiMessaging@@@
CONST	SEGMENT
??_7cSuperTank@@6BiMessaging@@@ DQ FLAT:??_R4cSuperTank@@6BiMessaging@@@ ; cSuperTank::`vftable'
	DQ	FLAT:??_EcSuperTank@@W7EAAPEAXI@Z
	DQ	FLAT:?Receive_Message@cSuperTank@@UEAA_NUsNVPair@@@Z
	DQ	FLAT:?Send_Message@cSuperTank@@UEAA_NUsNVPair@@@Z
CONST	ENDS
;	COMDAT ??_R4cSuperTank@@6BiTank@@@
rdata$r	SEGMENT
??_R4cSuperTank@@6BiTank@@@ DD 01H			; cSuperTank::`RTTI Complete Object Locator'
	DD	00H
	DD	00H
	DD	imagerel ??_R0?AVcSuperTank@@@8
	DD	imagerel ??_R3cSuperTank@@8
	DD	imagerel ??_R4cSuperTank@@6BiTank@@@
rdata$r	ENDS
;	COMDAT ??_R0?AVcSuperTank@@@8
data$rs	SEGMENT
??_R0?AVcSuperTank@@@8 DQ FLAT:??_7type_info@@6B@	; cSuperTank `RTTI Type Descriptor'
	DQ	0000000000000000H
	DB	'.?AVcSuperTank@@', 00H
data$rs	ENDS
;	COMDAT ??_R3cSuperTank@@8
rdata$r	SEGMENT
??_R3cSuperTank@@8 DD 00H				; cSuperTank::`RTTI Class Hierarchy Descriptor'
	DD	01H
	DD	03H
	DD	imagerel ??_R2cSuperTank@@8
rdata$r	ENDS
;	COMDAT ??_7cSuperTank@@6BiTank@@@
CONST	SEGMENT
??_7cSuperTank@@6BiTank@@@ DQ FLAT:??_R4cSuperTank@@6BiTank@@@ ; cSuperTank::`vftable'
	DQ	FLAT:??_EcSuperTank@@UEAAPEAXI@Z
	DQ	FLAT:?Attack@cSuperTank@@UEAAXPEAViTank@@@Z
	DQ	FLAT:?getLocation@cSuperTank@@UEAA?AU?$vec@$02M$0A@@glm@@XZ
	DQ	FLAT:?setLocation@cSuperTank@@UEAAXU?$vec@$02M$0A@@glm@@@Z
	DQ	FLAT:?UpdateTick@cSuperTank@@UEAAXN@Z
	DQ	FLAT:?getID@cSuperTank@@UEAAIXZ
	DQ	FLAT:?setMediator@cSuperTank@@UEAAXPEAViMessaging@@@Z
CONST	ENDS
;	COMDAT ??_R2cSuperTank@@8
rdata$r	SEGMENT
??_R2cSuperTank@@8 DD imagerel ??_R1A@?0A@EA@cSuperTank@@8 ; cSuperTank::`RTTI Base Class Array'
	DD	imagerel ??_R1A@?0A@EA@iTank@@8
	DD	imagerel ??_R17?0A@EA@iMessaging@@8
	ORG $+3
rdata$r	ENDS
;	COMDAT ??_R1A@?0A@EA@cSuperTank@@8
rdata$r	SEGMENT
??_R1A@?0A@EA@cSuperTank@@8 DD imagerel ??_R0?AVcSuperTank@@@8 ; cSuperTank::`RTTI Base Class Descriptor at (0,-1,0,64)'
	DD	02H
	DD	00H
	DD	0ffffffffH
	DD	00H
	DD	040H
	DD	imagerel ??_R3cSuperTank@@8
rdata$r	ENDS
;	COMDAT ??_C@_0BI@HGKIKLOO@A?5super?5tank?5is?5created@
CONST	SEGMENT
??_C@_0BI@HGKIKLOO@A?5super?5tank?5is?5created@ DB 'A super tank is creat'
	DB	'ed', 00H					; `string'
?_Fake_alloc@std@@3U_Fake_allocator@1@B	ORG $+1		; std::_Fake_alloc
PUBLIC	??_EcSuperTank@@W7EAAPEAXI@Z			; [thunk]:cSuperTank::`vector deleting destructor'
PUBLIC	?_Tidy@?$vector@PEAViTank@@V?$allocator@PEAViTank@@@std@@@std@@AEAAXXZ ; std::vector<iTank *,std::allocator<iTank *> >::_Tidy
PUBLIC	??1?$vector@PEAViTank@@V?$allocator@PEAViTank@@@std@@@std@@QEAA@XZ ; std::vector<iTank *,std::allocator<iTank *> >::~vector<iTank *,std::allocator<iTank *> >
PUBLIC	?Send_Message@cSuperTank@@UEAA_NUsNVPair@@@Z	; cSuperTank::Send_Message
PUBLIC	?Receive_Message@cSuperTank@@UEAA_NUsNVPair@@@Z	; cSuperTank::Receive_Message
PUBLIC	?getID@cSuperTank@@UEAAIXZ			; cSuperTank::getID
PUBLIC	?UpdateTick@cSuperTank@@UEAAXN@Z		; cSuperTank::UpdateTick
PUBLIC	?setLocation@cSuperTank@@UEAAXU?$vec@$02M$0A@@glm@@@Z ; cSuperTank::setLocation
PUBLIC	?getLocation@cSuperTank@@UEAA?AU?$vec@$02M$0A@@glm@@XZ ; cSuperTank::getLocation
PUBLIC	?Attack@cSuperTank@@UEAAXPEAViTank@@@Z		; cSuperTank::Attack
PUBLIC	?setMediator@cSuperTank@@UEAAXPEAViMessaging@@@Z ; cSuperTank::setMediator
PUBLIC	??1cSuperTank@@UEAA@XZ				; cSuperTank::~cSuperTank
PUBLIC	??_GcSuperTank@@UEAAPEAXI@Z			; cSuperTank::`scalar deleting destructor'
EXTRN	??_EcSuperTank@@UEAAPEAXI@Z:PROC		; cSuperTank::`vector deleting destructor'
;	COMDAT pdata
pdata	SEGMENT
$pdata$?_Tidy@?$vector@PEAViTank@@V?$allocator@PEAViTank@@@std@@@std@@AEAAXXZ DD imagerel $LN31@Tidy
	DD	imagerel $LN31@Tidy+92
	DD	imagerel $unwind$?_Tidy@?$vector@PEAViTank@@V?$allocator@PEAViTank@@@std@@@std@@AEAAXXZ
pdata	ENDS
;	COMDAT pdata
pdata	SEGMENT
$pdata$??1?$vector@PEAViTank@@V?$allocator@PEAViTank@@@std@@@std@@QEAA@XZ DD imagerel $LN35@vector
	DD	imagerel $LN35@vector+92
	DD	imagerel $unwind$??1?$vector@PEAViTank@@V?$allocator@PEAViTank@@@std@@@std@@QEAA@XZ
pdata	ENDS
;	COMDAT pdata
pdata	SEGMENT
$pdata$?Send_Message@cSuperTank@@UEAA_NUsNVPair@@@Z DD imagerel $LN5@Send_Messa
	DD	imagerel $LN5@Send_Messa+19
	DD	imagerel $unwind$?Send_Message@cSuperTank@@UEAA_NUsNVPair@@@Z
pdata	ENDS
;	COMDAT pdata
pdata	SEGMENT
$pdata$?Receive_Message@cSuperTank@@UEAA_NUsNVPair@@@Z DD imagerel $LN5@Receive_Me
	DD	imagerel $LN5@Receive_Me+19
	DD	imagerel $unwind$?Receive_Message@cSuperTank@@UEAA_NUsNVPair@@@Z
pdata	ENDS
;	COMDAT pdata
pdata	SEGMENT
$pdata$?UpdateTick@cSuperTank@@UEAAXN@Z DD imagerel $LN8@UpdateTick
	DD	imagerel $LN8@UpdateTick+56
	DD	imagerel $unwind$?UpdateTick@cSuperTank@@UEAAXN@Z
pdata	ENDS
;	COMDAT pdata
pdata	SEGMENT
$pdata$?Attack@cSuperTank@@UEAAXPEAViTank@@@Z DD imagerel $LN7@Attack
	DD	imagerel $LN7@Attack+56
	DD	imagerel $unwind$?Attack@cSuperTank@@UEAAXPEAViTank@@@Z
pdata	ENDS
;	COMDAT pdata
pdata	SEGMENT
$pdata$??1cSuperTank@@UEAA@XZ DD imagerel $LN39@cSuperTank
	DD	imagerel $LN39@cSuperTank+136
	DD	imagerel $unwind$??1cSuperTank@@UEAA@XZ
pdata	ENDS
;	COMDAT pdata
pdata	SEGMENT
$pdata$??_GcSuperTank@@UEAAPEAXI@Z DD imagerel $LN47@scalar
	DD	imagerel $LN47@scalar+169
	DD	imagerel $unwind$??_GcSuperTank@@UEAAPEAXI@Z
;	COMDAT xdata
xdata	SEGMENT
$unwind$??_GcSuperTank@@UEAAPEAXI@Z DQ 00007340a00040a01r ; 1.00174e-308
	DD	07006320aH
xdata	ENDS
;	COMDAT xdata
xdata	SEGMENT
$unwind$??1cSuperTank@@UEAA@XZ DQ 03002320600020601r ; 1.96423e-77
xdata	ENDS
;	COMDAT xdata
xdata	SEGMENT
$unwind$?Attack@cSuperTank@@UEAAXPEAViTank@@@Z DQ 00000420400010401r ; 3.58617e-310
xdata	ENDS
;	COMDAT xdata
xdata	SEGMENT
$unwind$?UpdateTick@cSuperTank@@UEAAXN@Z DQ 00000420400010401r ; 3.58617e-310
xdata	ENDS
;	COMDAT xdata
xdata	SEGMENT
$unwind$?Receive_Message@cSuperTank@@UEAA_NUsNVPair@@@Z DQ 00000420400010401r ; 3.58617e-310
xdata	ENDS
;	COMDAT xdata
xdata	SEGMENT
$unwind$?Send_Message@cSuperTank@@UEAA_NUsNVPair@@@Z DQ 00000420400010401r ; 3.58617e-310
xdata	ENDS
;	COMDAT xdata
xdata	SEGMENT
$unwind$??1?$vector@PEAViTank@@V?$allocator@PEAViTank@@@std@@@std@@QEAA@XZ DQ 03002320600020601r ; 1.96423e-77
xdata	ENDS
;	COMDAT xdata
xdata	SEGMENT
$unwind$?_Tidy@?$vector@PEAViTank@@V?$allocator@PEAViTank@@@std@@@std@@AEAAXXZ DQ 03002320600020601r ; 1.96423e-77
END
