; Listing generated by Microsoft (R) Optimizing Compiler Version 19.43.34808.0 

include listing.inc

INCLUDELIB OLDNAMES

PUBLIC	??_C@_0BJ@ONJJFAI@Regular?5Tank?5with?5Shield@	; `string'
PUBLIC	??_C@_0N@BACHFGLC@Regular?5Tank@		; `string'
PUBLIC	??_C@_0M@KBGGAENB@Super?5Tank?$CB@		; `string'
PUBLIC	??_C@_0L@PLPOLPPP@Super?5Tank@			; `string'
PUBLIC	??_C@_0L@DFLPJENL@Hover?5Tank@			; `string'
PUBLIC	??_R3cRailGun@@8				; cRailGun::`RTTI Class Hierarchy Descriptor'
PUBLIC	??_7cJetPack@@6B@				; cJetPack::`vftable'
PUBLIC	??_R0?AVcJetPack@@@8				; cJetPack `RTTI Type Descriptor'
PUBLIC	??_R4cRailGun@@6B@				; cRailGun::`RTTI Complete Object Locator'
PUBLIC	??_R1A@?0A@EA@cRailGun@@8			; cRailGun::`RTTI Base Class Descriptor at (0,-1,0,64)'
PUBLIC	??_R4cJetPack@@6B@				; cJetPack::`RTTI Complete Object Locator'
PUBLIC	??_R0?AVcRailGun@@@8				; cRailGun `RTTI Type Descriptor'
PUBLIC	??_7cRailGun@@6B@				; cRailGun::`vftable'
PUBLIC	??_R2cJetPack@@8				; cJetPack::`RTTI Base Class Array'
PUBLIC	??_R2cRailGun@@8				; cRailGun::`RTTI Base Class Array'
PUBLIC	??_R1A@?0A@EA@cJetPack@@8			; cJetPack::`RTTI Base Class Descriptor at (0,-1,0,64)'
PUBLIC	??_R3cJetPack@@8				; cJetPack::`RTTI Class Hierarchy Descriptor'
;	COMDAT ??_R3cJetPack@@8
rdata$r	SEGMENT
??_R3cJetPack@@8 DD 00H					; cJetPack::`RTTI Class Hierarchy Descriptor'
	DD	00H
	DD	02H
	DD	imagerel ??_R2cJetPack@@8
rdata$r	ENDS
;	COMDAT ??_R1A@?0A@EA@cJetPack@@8
rdata$r	SEGMENT
??_R1A@?0A@EA@cJetPack@@8 DD imagerel ??_R0?AVcJetPack@@@8 ; cJetPack::`RTTI Base Class Descriptor at (0,-1,0,64)'
	DD	01H
	DD	00H
	DD	0ffffffffH
	DD	00H
	DD	040H
	DD	imagerel ??_R3cJetPack@@8
rdata$r	ENDS
;	COMDAT ??_R2cRailGun@@8
rdata$r	SEGMENT
??_R2cRailGun@@8 DD imagerel ??_R1A@?0A@EA@cRailGun@@8	; cRailGun::`RTTI Base Class Array'
	DD	imagerel ??_R1A@?0A@EA@iMessaging@@8
	ORG $+3
rdata$r	ENDS
;	COMDAT ??_R2cJetPack@@8
rdata$r	SEGMENT
??_R2cJetPack@@8 DD imagerel ??_R1A@?0A@EA@cJetPack@@8	; cJetPack::`RTTI Base Class Array'
	DD	imagerel ??_R1A@?0A@EA@iMessaging@@8
	ORG $+3
rdata$r	ENDS
;	COMDAT ??_7cRailGun@@6B@
CONST	SEGMENT
??_7cRailGun@@6B@ DQ FLAT:??_R4cRailGun@@6B@		; cRailGun::`vftable'
	DQ	FLAT:??_EcRailGun@@UEAAPEAXI@Z
	DQ	FLAT:?Receive_Message@cRailGun@@UEAA_NUsNVPair@@@Z
	DQ	FLAT:?Send_Message@cRailGun@@UEAA_NUsNVPair@@@Z
CONST	ENDS
;	COMDAT ??_R0?AVcRailGun@@@8
data$rs	SEGMENT
??_R0?AVcRailGun@@@8 DQ FLAT:??_7type_info@@6B@		; cRailGun `RTTI Type Descriptor'
	DQ	0000000000000000H
	DB	'.?AVcRailGun@@', 00H
data$rs	ENDS
;	COMDAT ??_R4cJetPack@@6B@
rdata$r	SEGMENT
??_R4cJetPack@@6B@ DD 01H				; cJetPack::`RTTI Complete Object Locator'
	DD	00H
	DD	00H
	DD	imagerel ??_R0?AVcJetPack@@@8
	DD	imagerel ??_R3cJetPack@@8
	DD	imagerel ??_R4cJetPack@@6B@
rdata$r	ENDS
;	COMDAT ??_R1A@?0A@EA@cRailGun@@8
rdata$r	SEGMENT
??_R1A@?0A@EA@cRailGun@@8 DD imagerel ??_R0?AVcRailGun@@@8 ; cRailGun::`RTTI Base Class Descriptor at (0,-1,0,64)'
	DD	01H
	DD	00H
	DD	0ffffffffH
	DD	00H
	DD	040H
	DD	imagerel ??_R3cRailGun@@8
rdata$r	ENDS
;	COMDAT ??_R4cRailGun@@6B@
rdata$r	SEGMENT
??_R4cRailGun@@6B@ DD 01H				; cRailGun::`RTTI Complete Object Locator'
	DD	00H
	DD	00H
	DD	imagerel ??_R0?AVcRailGun@@@8
	DD	imagerel ??_R3cRailGun@@8
	DD	imagerel ??_R4cRailGun@@6B@
rdata$r	ENDS
;	COMDAT ??_R0?AVcJetPack@@@8
data$rs	SEGMENT
??_R0?AVcJetPack@@@8 DQ FLAT:??_7type_info@@6B@		; cJetPack `RTTI Type Descriptor'
	DQ	0000000000000000H
	DB	'.?AVcJetPack@@', 00H
data$rs	ENDS
;	COMDAT ??_7cJetPack@@6B@
CONST	SEGMENT
??_7cJetPack@@6B@ DQ FLAT:??_R4cJetPack@@6B@		; cJetPack::`vftable'
	DQ	FLAT:??_EcJetPack@@UEAAPEAXI@Z
	DQ	FLAT:?Receive_Message@cJetPack@@UEAA_NUsNVPair@@@Z
	DQ	FLAT:?Send_Message@cJetPack@@UEAA_NUsNVPair@@@Z
CONST	ENDS
;	COMDAT ??_R3cRailGun@@8
rdata$r	SEGMENT
??_R3cRailGun@@8 DD 00H					; cRailGun::`RTTI Class Hierarchy Descriptor'
	DD	00H
	DD	02H
	DD	imagerel ??_R2cRailGun@@8
rdata$r	ENDS
;	COMDAT ??_C@_0L@DFLPJENL@Hover?5Tank@
CONST	SEGMENT
??_C@_0L@DFLPJENL@Hover?5Tank@ DB 'Hover Tank', 00H	; `string'
CONST	ENDS
;	COMDAT ??_C@_0L@PLPOLPPP@Super?5Tank@
CONST	SEGMENT
??_C@_0L@PLPOLPPP@Super?5Tank@ DB 'Super Tank', 00H	; `string'
CONST	ENDS
;	COMDAT ??_C@_0M@KBGGAENB@Super?5Tank?$CB@
CONST	SEGMENT
??_C@_0M@KBGGAENB@Super?5Tank?$CB@ DB 'Super Tank!', 00H ; `string'
CONST	ENDS
;	COMDAT ??_C@_0N@BACHFGLC@Regular?5Tank@
CONST	SEGMENT
??_C@_0N@BACHFGLC@Regular?5Tank@ DB 'Regular Tank', 00H	; `string'
CONST	ENDS
;	COMDAT ??_C@_0BJ@ONJJFAI@Regular?5Tank?5with?5Shield@
CONST	SEGMENT
??_C@_0BJ@ONJJFAI@Regular?5Tank?5with?5Shield@ DB 'Regular Tank with Shie'
	DB	'ld', 00H					; `string'
?_Fake_alloc@std@@3U_Fake_allocator@1@B	ORG $+1		; std::_Fake_alloc
PUBLIC	??$_Construct_in_place@V?$basic_string@DU?$char_traits@D@std@@V?$allocator@D@2@@std@@V12@@std@@YAXAEAV?$basic_string@DU?$char_traits@D@std@@V?$allocator@D@2@@0@$$QEAV10@@Z ; std::_Construct_in_place<std::basic_string<char,std::char_traits<char>,std::allocator<char> >,std::basic_string<char,std::char_traits<char>,std::allocator<char> > >
PUBLIC	??$_Emplace_reallocate@V?$basic_string@DU?$char_traits@D@std@@V?$allocator@D@2@@std@@@?$vector@V?$basic_string@DU?$char_traits@D@std@@V?$allocator@D@2@@std@@V?$allocator@V?$basic_string@DU?$char_traits@D@std@@V?$allocator@D@2@@std@@@2@@std@@AEAAPEAV?$basic_string@DU?$char_traits@D@std@@V?$allocator@D@2@@1@QEAV21@$$QEAV21@@Z ; std::vector<std::basic_string<char,std::char_traits<char>,std::allocator<char> >,std::allocator<std::basic_string<char,std::char_traits<char>,std::allocator<char> > > >::_Emplace_reallocate<std::basic_string<char,std::char_traits<char>,std::allocator<char> > >
PUBLIC	??$_Emplace_back_with_unused_capacity@V?$basic_string@DU?$char_traits@D@std@@V?$allocator@D@2@@std@@@?$vector@V?$basic_string@DU?$char_traits@D@std@@V?$allocator@D@2@@std@@V?$allocator@V?$basic_string@DU?$char_traits@D@std@@V?$allocator@D@2@@std@@@2@@std@@AEAAAEAV?$basic_string@DU?$char_traits@D@std@@V?$allocator@D@2@@1@$$QEAV21@@Z ; std::vector<std::basic_string<char,std::char_traits<char>,std::allocator<char> >,std::allocator<std::basic_string<char,std::char_traits<char>,std::allocator<char> > > >::_Emplace_back_with_unused_capacity<std::basic_string<char,std::char_traits<char>,std::allocator<char> > >
PUBLIC	??$_Emplace_one_at_back@V?$basic_string@DU?$char_traits@D@std@@V?$allocator@D@2@@std@@@?$vector@V?$basic_string@DU?$char_traits@D@std@@V?$allocator@D@2@@std@@V?$allocator@V?$basic_string@DU?$char_traits@D@std@@V?$allocator@D@2@@std@@@2@@std@@AEAAAEAV?$basic_string@DU?$char_traits@D@std@@V?$allocator@D@2@@1@$$QEAV21@@Z ; std::vector<std::basic_string<char,std::char_traits<char>,std::allocator<char> >,std::allocator<std::basic_string<char,std::char_traits<char>,std::allocator<char> > > >::_Emplace_one_at_back<std::basic_string<char,std::char_traits<char>,std::allocator<char> > >
PUBLIC	?push_back@?$vector@V?$basic_string@DU?$char_traits@D@std@@V?$allocator@D@2@@std@@V?$allocator@V?$basic_string@DU?$char_traits@D@std@@V?$allocator@D@2@@std@@@2@@std@@QEAAX$$QEAV?$basic_string@DU?$char_traits@D@std@@V?$allocator@D@2@@2@@Z ; std::vector<std::basic_string<char,std::char_traits<char>,std::allocator<char> >,std::allocator<std::basic_string<char,std::char_traits<char>,std::allocator<char> > > >::push_back
PUBLIC	??1cJetPack@@UEAA@XZ				; cJetPack::~cJetPack
PUBLIC	??_GcJetPack@@UEAAPEAXI@Z			; cJetPack::`scalar deleting destructor'
PUBLIC	??1cRailGun@@UEAA@XZ				; cRailGun::~cRailGun
PUBLIC	??_GcRailGun@@UEAAPEAXI@Z			; cRailGun::`scalar deleting destructor'
EXTRN	??_EcJetPack@@UEAAPEAXI@Z:PROC			; cJetPack::`vector deleting destructor'
EXTRN	??_EcRailGun@@UEAAPEAXI@Z:PROC			; cRailGun::`vector deleting destructor'
;	COMDAT pdata
pdata	SEGMENT
$pdata$??$_Emplace_reallocate@V?$basic_string@DU?$char_traits@D@std@@V?$allocator@D@2@@std@@@?$vector@V?$basic_string@DU?$char_traits@D@std@@V?$allocator@D@2@@std@@V?$allocator@V?$basic_string@DU?$char_traits@D@std@@V?$allocator@D@2@@std@@@2@@std@@AEAAPEAV?$basic_string@DU?$char_traits@D@std@@V?$allocator@D@2@@1@QEAV21@$$QEAV21@@Z DD imagerel $LN277@Emplace_re
	DD	imagerel $LN277@Emplace_re+70
	DD	imagerel $unwind$??$_Emplace_reallocate@V?$basic_string@DU?$char_traits@D@std@@V?$allocator@D@2@@std@@@?$vector@V?$basic_string@DU?$char_traits@D@std@@V?$allocator@D@2@@std@@V?$allocator@V?$basic_string@DU?$char_traits@D@std@@V?$allocator@D@2@@std@@@2@@std@@AEAAPEAV?$basic_string@DU?$char_traits@D@std@@V?$allocator@D@2@@1@QEAV21@$$QEAV21@@Z
pdata	ENDS
;	COMDAT pdata
pdata	SEGMENT
$pdata$3$??$_Emplace_reallocate@V?$basic_string@DU?$char_traits@D@std@@V?$allocator@D@2@@std@@@?$vector@V?$basic_string@DU?$char_traits@D@std@@V?$allocator@D@2@@std@@V?$allocator@V?$basic_string@DU?$char_traits@D@std@@V?$allocator@D@2@@std@@@2@@std@@AEAAPEAV?$basic_string@DU?$char_traits@D@std@@V?$allocator@D@2@@1@QEAV21@$$QEAV21@@Z DD imagerel $LN277@Emplace_re+70
	DD	imagerel $LN277@Emplace_re+645
	DD	imagerel $chain$3$??$_Emplace_reallocate@V?$basic_string@DU?$char_traits@D@std@@V?$allocator@D@2@@std@@@?$vector@V?$basic_string@DU?$char_traits@D@std@@V?$allocator@D@2@@std@@V?$allocator@V?$basic_string@DU?$char_traits@D@std@@V?$allocator@D@2@@std@@@2@@std@@AEAAPEAV?$basic_string@DU?$char_traits@D@std@@V?$allocator@D@2@@1@QEAV21@$$QEAV21@@Z
pdata	ENDS
;	COMDAT pdata
pdata	SEGMENT
$pdata$4$??$_Emplace_reallocate@V?$basic_string@DU?$char_traits@D@std@@V?$allocator@D@2@@std@@@?$vector@V?$basic_string@DU?$char_traits@D@std@@V?$allocator@D@2@@std@@V?$allocator@V?$basic_string@DU?$char_traits@D@std@@V?$allocator@D@2@@std@@@2@@std@@AEAAPEAV?$basic_string@DU?$char_traits@D@std@@V?$allocator@D@2@@1@QEAV21@$$QEAV21@@Z DD imagerel $LN277@Emplace_re+645
	DD	imagerel $LN277@Emplace_re+651
	DD	imagerel $chain$4$??$_Emplace_reallocate@V?$basic_string@DU?$char_traits@D@std@@V?$allocator@D@2@@std@@@?$vector@V?$basic_string@DU?$char_traits@D@std@@V?$allocator@D@2@@std@@V?$allocator@V?$basic_string@DU?$char_traits@D@std@@V?$allocator@D@2@@std@@@2@@std@@AEAAPEAV?$basic_string@DU?$char_traits@D@std@@V?$allocator@D@2@@1@QEAV21@$$QEAV21@@Z
pdata	ENDS
;	COMDAT pdata
pdata	SEGMENT
$pdata$5$??$_Emplace_reallocate@V?$basic_string@DU?$char_traits@D@std@@V?$allocator@D@2@@std@@@?$vector@V?$basic_string@DU?$char_traits@D@std@@V?$allocator@D@2@@std@@V?$allocator@V?$basic_string@DU?$char_traits@D@std@@V?$allocator@D@2@@std@@@2@@std@@AEAAPEAV?$basic_string@DU?$char_traits@D@std@@V?$allocator@D@2@@1@QEAV21@$$QEAV21@@Z DD imagerel $LN277@Emplace_re+651
	DD	imagerel $LN277@Emplace_re+657
	DD	imagerel $chain$5$??$_Emplace_reallocate@V?$basic_string@DU?$char_traits@D@std@@V?$allocator@D@2@@std@@@?$vector@V?$basic_string@DU?$char_traits@D@std@@V?$allocator@D@2@@std@@V?$allocator@V?$basic_string@DU?$char_traits@D@std@@V?$allocator@D@2@@std@@@2@@std@@AEAAPEAV?$basic_string@DU?$char_traits@D@std@@V?$allocator@D@2@@1@QEAV21@$$QEAV21@@Z
pdata	ENDS
;	COMDAT pdata
pdata	SEGMENT
$pdata$??_GcJetPack@@UEAAPEAXI@Z DD imagerel $LN9@scalar
	DD	imagerel $LN9@scalar+43
	DD	imagerel $unwind$??_GcJetPack@@UEAAPEAXI@Z
pdata	ENDS
;	COMDAT pdata
pdata	SEGMENT
$pdata$??_GcRailGun@@UEAAPEAXI@Z DD imagerel $LN9@scalar
	DD	imagerel $LN9@scalar+43
	DD	imagerel $unwind$??_GcRailGun@@UEAAPEAXI@Z
;	COMDAT xdata
xdata	SEGMENT
$unwind$??_GcRailGun@@UEAAPEAXI@Z DQ 03002320600020601r ; 1.96423e-77
xdata	ENDS
;	COMDAT xdata
xdata	SEGMENT
$unwind$??_GcJetPack@@UEAAPEAXI@Z DQ 03002320600020601r ; 1.96423e-77
xdata	ENDS
;	COMDAT xdata
xdata	SEGMENT
$chain$5$??$_Emplace_reallocate@V?$basic_string@DU?$char_traits@D@std@@V?$allocator@D@2@@std@@@?$vector@V?$basic_string@DU?$char_traits@D@std@@V?$allocator@D@2@@std@@V?$allocator@V?$basic_string@DU?$char_traits@D@std@@V?$allocator@D@2@@std@@@2@@std@@AEAAPEAV?$basic_string@DU?$char_traits@D@std@@V?$allocator@D@2@@1@QEAV21@$$QEAV21@@Z DQ 00006f40000040021r ; 9.66951e-309
	DD	087400H
	DD	imagerel $LN277@Emplace_re
	DD	imagerel $LN277@Emplace_re+70
	DD	imagerel $unwind$??$_Emplace_reallocate@V?$basic_string@DU?$char_traits@D@std@@V?$allocator@D@2@@std@@@?$vector@V?$basic_string@DU?$char_traits@D@std@@V?$allocator@D@2@@std@@V?$allocator@V?$basic_string@DU?$char_traits@D@std@@V?$allocator@D@2@@std@@@2@@std@@AEAAPEAV?$basic_string@DU?$char_traits@D@std@@V?$allocator@D@2@@1@QEAV21@$$QEAV21@@Z
xdata	ENDS
;	COMDAT xdata
xdata	SEGMENT
$chain$4$??$_Emplace_reallocate@V?$basic_string@DU?$char_traits@D@std@@V?$allocator@D@2@@std@@@?$vector@V?$basic_string@DU?$char_traits@D@std@@V?$allocator@D@2@@std@@V?$allocator@V?$basic_string@DU?$char_traits@D@std@@V?$allocator@D@2@@std@@@2@@std@@AEAAPEAV?$basic_string@DU?$char_traits@D@std@@V?$allocator@D@2@@1@QEAV21@$$QEAV21@@Z DD 021H
	DD	imagerel $LN277@Emplace_re
	DD	imagerel $LN277@Emplace_re+70
	DD	imagerel $unwind$??$_Emplace_reallocate@V?$basic_string@DU?$char_traits@D@std@@V?$allocator@D@2@@std@@@?$vector@V?$basic_string@DU?$char_traits@D@std@@V?$allocator@D@2@@std@@V?$allocator@V?$basic_string@DU?$char_traits@D@std@@V?$allocator@D@2@@std@@@2@@std@@AEAAPEAV?$basic_string@DU?$char_traits@D@std@@V?$allocator@D@2@@1@QEAV21@$$QEAV21@@Z
xdata	ENDS
;	COMDAT xdata
xdata	SEGMENT
$chain$3$??$_Emplace_reallocate@V?$basic_string@DU?$char_traits@D@std@@V?$allocator@D@2@@std@@@?$vector@V?$basic_string@DU?$char_traits@D@std@@V?$allocator@D@2@@std@@V?$allocator@V?$basic_string@DU?$char_traits@D@std@@V?$allocator@D@2@@std@@@2@@std@@AEAAPEAV?$basic_string@DU?$char_traits@D@std@@V?$allocator@D@2@@1@QEAV21@$$QEAV21@@Z DQ 00007d4a70008a721r ; 1.08899e-308
	DQ	00006f4140011349fr		; 9.66993e-309
	DD	087405H
	DD	imagerel $LN277@Emplace_re
	DD	imagerel $LN277@Emplace_re+70
	DD	imagerel $unwind$??$_Emplace_reallocate@V?$basic_string@DU?$char_traits@D@std@@V?$allocator@D@2@@std@@@?$vector@V?$basic_string@DU?$char_traits@D@std@@V?$allocator@D@2@@std@@V?$allocator@V?$basic_string@DU?$char_traits@D@std@@V?$allocator@D@2@@std@@@2@@std@@AEAAPEAV?$basic_string@DU?$char_traits@D@std@@V?$allocator@D@2@@1@QEAV21@$$QEAV21@@Z
xdata	ENDS
;	COMDAT xdata
xdata	SEGMENT
$unwind$??$_Emplace_reallocate@V?$basic_string@DU?$char_traits@D@std@@V?$allocator@D@2@@std@@@?$vector@V?$basic_string@DU?$char_traits@D@std@@V?$allocator@D@2@@std@@V?$allocator@V?$basic_string@DU?$char_traits@D@std@@V?$allocator@D@2@@std@@@2@@std@@AEAAPEAV?$basic_string@DU?$char_traits@D@std@@V?$allocator@D@2@@1@QEAV21@$$QEAV21@@Z DQ 0e007820b00050b01r ; -3.93988e+154
	DQ	0000050026003c005r		; 4.34635e-310
END
