; Listing generated by Microsoft (R) Optimizing Compiler Version 19.43.34808.0 

include listing.inc

INCLUDELIB OLDNAMES

PUBLIC	??_C@_0BK@IBOEGIOB@A?5regular?5tank?5is?5created@ ; `string'
PUBLIC	??_7cTank@@6BiTank@@@				; cTank::`vftable'
PUBLIC	??_R3cTank@@8					; cTank::`RTTI Class Hierarchy Descriptor'
PUBLIC	??_7cTank@@6BiMessaging@@@			; cTank::`vftable'
PUBLIC	??_R4cTank@@6BiMessaging@@@			; cTank::`RTTI Complete Object Locator'
PUBLIC	??_R1A@?0A@EA@cTank@@8				; cTank::`RTTI Base Class Descriptor at (0,-1,0,64)'
PUBLIC	??_R0?AVcTank@@@8				; cTank `RTTI Type Descriptor'
PUBLIC	??_R2cTank@@8					; cTank::`RTTI Base Class Array'
PUBLIC	??_R4cTank@@6BiTank@@@				; cTank::`RTTI Complete Object Locator'
;	COMDAT ??_R4cTank@@6BiTank@@@
rdata$r	SEGMENT
??_R4cTank@@6BiTank@@@ DD 01H				; cTank::`RTTI Complete Object Locator'
	DD	00H
	DD	00H
	DD	imagerel ??_R0?AVcTank@@@8
	DD	imagerel ??_R3cTank@@8
	DD	imagerel ??_R4cTank@@6BiTank@@@
rdata$r	ENDS
;	COMDAT ??_R2cTank@@8
rdata$r	SEGMENT
??_R2cTank@@8 DD imagerel ??_R1A@?0A@EA@cTank@@8	; cTank::`RTTI Base Class Array'
	DD	imagerel ??_R1A@?0A@EA@iTank@@8
	DD	imagerel ??_R17?0A@EA@iMessaging@@8
	ORG $+3
rdata$r	ENDS
;	COMDAT ??_R0?AVcTank@@@8
data$rs	SEGMENT
??_R0?AVcTank@@@8 DQ FLAT:??_7type_info@@6B@		; cTank `RTTI Type Descriptor'
	DQ	0000000000000000H
	DB	'.?AVcTank@@', 00H
data$rs	ENDS
;	COMDAT ??_R1A@?0A@EA@cTank@@8
rdata$r	SEGMENT
??_R1A@?0A@EA@cTank@@8 DD imagerel ??_R0?AVcTank@@@8	; cTank::`RTTI Base Class Descriptor at (0,-1,0,64)'
	DD	02H
	DD	00H
	DD	0ffffffffH
	DD	00H
	DD	040H
	DD	imagerel ??_R3cTank@@8
rdata$r	ENDS
;	COMDAT ??_R4cTank@@6BiMessaging@@@
rdata$r	SEGMENT
??_R4cTank@@6BiMessaging@@@ DD 01H			; cTank::`RTTI Complete Object Locator'
	DD	08H
	DD	00H
	DD	imagerel ??_R0?AVcTank@@@8
	DD	imagerel ??_R3cTank@@8
	DD	imagerel ??_R4cTank@@6BiMessaging@@@
rdata$r	ENDS
;	COMDAT ??_7cTank@@6BiMessaging@@@
CONST	SEGMENT
??_7cTank@@6BiMessaging@@@ DQ FLAT:??_R4cTank@@6BiMessaging@@@ ; cTank::`vftable'
	DQ	FLAT:??_EcTank@@W7EAAPEAXI@Z
	DQ	FLAT:?Receive_Message@cTank@@UEAA_NUsNVPair@@@Z
	DQ	FLAT:?Send_Message@cTank@@UEAA_NUsNVPair@@@Z
CONST	ENDS
;	COMDAT ??_R3cTank@@8
rdata$r	SEGMENT
??_R3cTank@@8 DD 00H					; cTank::`RTTI Class Hierarchy Descriptor'
	DD	01H
	DD	03H
	DD	imagerel ??_R2cTank@@8
rdata$r	ENDS
;	COMDAT ??_7cTank@@6BiTank@@@
CONST	SEGMENT
??_7cTank@@6BiTank@@@ DQ FLAT:??_R4cTank@@6BiTank@@@	; cTank::`vftable'
	DQ	FLAT:??_EcTank@@UEAAPEAXI@Z
	DQ	FLAT:?Attack@cTank@@UEAAXPEAViTank@@@Z
	DQ	FLAT:?getLocation@cTank@@UEAA?AU?$vec@$02M$0A@@glm@@XZ
	DQ	FLAT:?setLocation@cTank@@UEAAXU?$vec@$02M$0A@@glm@@@Z
	DQ	FLAT:?UpdateTick@cTank@@UEAAXN@Z
	DQ	FLAT:?getID@cTank@@UEAAIXZ
	DQ	FLAT:?setMediator@cTank@@UEAAXPEAViMessaging@@@Z
CONST	ENDS
;	COMDAT ??_C@_0BK@IBOEGIOB@A?5regular?5tank?5is?5created@
CONST	SEGMENT
??_C@_0BK@IBOEGIOB@A?5regular?5tank?5is?5created@ DB 'A regular tank is c'
	DB	'reated', 00H				; `string'
?_Fake_alloc@std@@3U_Fake_allocator@1@B	ORG $+1		; std::_Fake_alloc
PUBLIC	??_EcTank@@W7EAAPEAXI@Z				; [thunk]:cTank::`vector deleting destructor'
PUBLIC	??$construct@U?$vec@$03M$0A@@glm@@AEAU12@@?$_Default_allocator_traits@V?$allocator@U?$vec@$03M$0A@@glm@@@std@@@std@@SAXAEAV?$allocator@U?$vec@$03M$0A@@glm@@@1@QEAU?$vec@$03M$0A@@glm@@AEAU34@@Z ; std::_Default_allocator_traits<std::allocator<glm::vec<4,float,0> > >::construct<glm::vec<4,float,0>,glm::vec<4,float,0> &>
PUBLIC	??$forward@AEAU?$vec@$03M$0A@@glm@@@std@@YAAEAU?$vec@$03M$0A@@glm@@AEAU12@@Z ; std::forward<glm::vec<4,float,0> &>
PUBLIC	??$_Copy_memmove_tail@PEAU?$vec@$03M$0A@@glm@@@std@@YAPEAU?$vec@$03M$0A@@glm@@QEBDQEAU12@_K2@Z ; std::_Copy_memmove_tail<glm::vec<4,float,0> *>
PUBLIC	??$_Emplace_back@U?$vec@$03M$0A@@glm@@@?$_Uninitialized_backout_al@V?$allocator@U?$vec@$03M$0A@@glm@@@std@@@std@@QEAAX$$QEAU?$vec@$03M$0A@@glm@@@Z ; std::_Uninitialized_backout_al<std::allocator<glm::vec<4,float,0> > >::_Emplace_back<glm::vec<4,float,0> >
PUBLIC	??$addressof@U?$vec@$03M$0A@@glm@@@std@@YAPEAU?$vec@$03M$0A@@glm@@AEAU12@@Z ; std::addressof<glm::vec<4,float,0> >
PUBLIC	??$_Get_size_of_n@$0BA@@std@@YA_K_K@Z		; std::_Get_size_of_n<16>
PUBLIC	??$_Emplace_back@AEAU?$vec@$03M$0A@@glm@@@?$_Uninitialized_backout_al@V?$allocator@U?$vec@$03M$0A@@glm@@@std@@@std@@QEAAXAEAU?$vec@$03M$0A@@glm@@@Z ; std::_Uninitialized_backout_al<std::allocator<glm::vec<4,float,0> > >::_Emplace_back<glm::vec<4,float,0> &>
PUBLIC	??$_Copy_memmove@PEAU?$vec@$03M$0A@@glm@@PEAU12@@std@@YAPEAU?$vec@$03M$0A@@glm@@PEAU12@00@Z ; std::_Copy_memmove<glm::vec<4,float,0> *,glm::vec<4,float,0> *>
PUBLIC	??$move@AEAPEAU?$vec@$03M$0A@@glm@@@std@@YA$$QEAPEAU?$vec@$03M$0A@@glm@@AEAPEAU12@@Z ; std::move<glm::vec<4,float,0> * &>
PUBLIC	??$_Uninitialized_move@PEAU?$vec@$03M$0A@@glm@@V?$allocator@U?$vec@$03M$0A@@glm@@@std@@@std@@YAPEAU?$vec@$03M$0A@@glm@@QEAU12@0PEAU12@AEAV?$allocator@U?$vec@$03M$0A@@glm@@@0@@Z ; std::_Uninitialized_move<glm::vec<4,float,0> *,std::allocator<glm::vec<4,float,0> > >
PUBLIC	??$_Get_unwrapped@AEBQEAU?$vec@$03M$0A@@glm@@@std@@YA?A_TAEBQEAU?$vec@$03M$0A@@glm@@@Z ; std::_Get_unwrapped<glm::vec<4,float,0> * const &>
PUBLIC	??$construct@U?$vec@$03M$0A@@glm@@U12@@?$_Default_allocator_traits@V?$allocator@U?$vec@$03M$0A@@glm@@@std@@@std@@SAXAEAV?$allocator@U?$vec@$03M$0A@@glm@@@1@QEAU?$vec@$03M$0A@@glm@@$$QEAU34@@Z ; std::_Default_allocator_traits<std::allocator<glm::vec<4,float,0> > >::construct<glm::vec<4,float,0>,glm::vec<4,float,0> >
PUBLIC	??$_Unfancy@U?$vec@$03M$0A@@glm@@@std@@YAPEAU?$vec@$03M$0A@@glm@@PEAU12@@Z ; std::_Unfancy<glm::vec<4,float,0> >
PUBLIC	??$_Construct_in_place@U?$vec@$03M$0A@@glm@@U12@@std@@YAXAEAU?$vec@$03M$0A@@glm@@$$QEAU12@@Z ; std::_Construct_in_place<glm::vec<4,float,0>,glm::vec<4,float,0> >
PUBLIC	?capacity@?$vector@U?$vec@$03M$0A@@glm@@V?$allocator@U?$vec@$03M$0A@@glm@@@std@@@std@@QEBA_KXZ ; std::vector<glm::vec<4,float,0>,std::allocator<glm::vec<4,float,0> > >::capacity
PUBLIC	?allocate@?$allocator@U?$vec@$03M$0A@@glm@@@std@@QEAAPEAU?$vec@$03M$0A@@glm@@_K@Z ; std::allocator<glm::vec<4,float,0> >::allocate
PUBLIC	?_Calculate_growth@?$vector@U?$vec@$03M$0A@@glm@@V?$allocator@U?$vec@$03M$0A@@glm@@@std@@@std@@AEBA_K_K@Z ; std::vector<glm::vec<4,float,0>,std::allocator<glm::vec<4,float,0> > >::_Calculate_growth
PUBLIC	?_Change_array@?$vector@U?$vec@$03M$0A@@glm@@V?$allocator@U?$vec@$03M$0A@@glm@@@std@@@std@@AEAAXQEAU?$vec@$03M$0A@@glm@@_K1@Z ; std::vector<glm::vec<4,float,0>,std::allocator<glm::vec<4,float,0> > >::_Change_array
PUBLIC	?_Orphan_range@?$vector@U?$vec@$03M$0A@@glm@@V?$allocator@U?$vec@$03M$0A@@glm@@@std@@@std@@AEBAXPEAU?$vec@$03M$0A@@glm@@0@Z ; std::vector<glm::vec<4,float,0>,std::allocator<glm::vec<4,float,0> > >::_Orphan_range
PUBLIC	??1_Reallocation_guard@?$vector@U?$vec@$03M$0A@@glm@@V?$allocator@U?$vec@$03M$0A@@glm@@@std@@@std@@QEAA@XZ ; std::vector<glm::vec<4,float,0>,std::allocator<glm::vec<4,float,0> > >::_Reallocation_guard::~_Reallocation_guard
PUBLIC	??0?$_Uninitialized_backout_al@V?$allocator@U?$vec@$03M$0A@@glm@@@std@@@std@@QEAA@PEAU?$vec@$03M$0A@@glm@@AEAV?$allocator@U?$vec@$03M$0A@@glm@@@1@@Z ; std::_Uninitialized_backout_al<std::allocator<glm::vec<4,float,0> > >::_Uninitialized_backout_al<std::allocator<glm::vec<4,float,0> > >
PUBLIC	??1?$_Uninitialized_backout_al@V?$allocator@U?$vec@$03M$0A@@glm@@@std@@@std@@QEAA@XZ ; std::_Uninitialized_backout_al<std::allocator<glm::vec<4,float,0> > >::~_Uninitialized_backout_al<std::allocator<glm::vec<4,float,0> > >
PUBLIC	?_Release@?$_Uninitialized_backout_al@V?$allocator@U?$vec@$03M$0A@@glm@@@std@@@std@@QEAAPEAU?$vec@$03M$0A@@glm@@XZ ; std::_Uninitialized_backout_al<std::allocator<glm::vec<4,float,0> > >::_Release
PUBLIC	?__autoclassinit2@?$_Uninitialized_backout_al@V?$allocator@U?$vec@$03M$0A@@glm@@@std@@@std@@QEAAX_K@Z ; std::_Uninitialized_backout_al<std::allocator<glm::vec<4,float,0> > >::__autoclassinit2
PUBLIC	??$_Allocate_at_least_helper@V?$allocator@U?$vec@$03M$0A@@glm@@@std@@@std@@YAPEAU?$vec@$03M$0A@@glm@@AEAV?$allocator@U?$vec@$03M$0A@@glm@@@0@AEA_K@Z ; std::_Allocate_at_least_helper<std::allocator<glm::vec<4,float,0> > >
PUBLIC	??$_To_address@PEAU?$vec@$03M$0A@@glm@@@std@@YA?A_PAEBQEAU?$vec@$03M$0A@@glm@@@Z ; std::_To_address<glm::vec<4,float,0> *>
PUBLIC	??$_Uninitialized_copy@PEAU?$vec@$03M$0A@@glm@@PEAU12@V?$allocator@U?$vec@$03M$0A@@glm@@@std@@@std@@YAPEAU?$vec@$03M$0A@@glm@@PEAU12@00AEAV?$allocator@U?$vec@$03M$0A@@glm@@@0@@Z ; std::_Uninitialized_copy<glm::vec<4,float,0> *,glm::vec<4,float,0> *,std::allocator<glm::vec<4,float,0> > >
PUBLIC	??$_Get_unwrapped@PEAU?$vec@$03M$0A@@glm@@@std@@YA?A_T$$QEAPEAU?$vec@$03M$0A@@glm@@@Z ; std::_Get_unwrapped<glm::vec<4,float,0> *>
PUBLIC	??$forward@AEBQEAU?$vec@$03M$0A@@glm@@@std@@YAAEBQEAU?$vec@$03M$0A@@glm@@AEBQEAU12@@Z ; std::forward<glm::vec<4,float,0> * const &>
PUBLIC	??$forward@V?$allocator@U?$vec@$03M$0A@@glm@@@std@@@std@@YA$$QEAV?$allocator@U?$vec@$03M$0A@@glm@@@0@AEAV10@@Z ; std::forward<std::allocator<glm::vec<4,float,0> > >
PUBLIC	??$_Emplace_reallocate@U?$vec@$03M$0A@@glm@@@?$vector@U?$vec@$03M$0A@@glm@@V?$allocator@U?$vec@$03M$0A@@glm@@@std@@@std@@AEAAPEAU?$vec@$03M$0A@@glm@@QEAU23@$$QEAU23@@Z ; std::vector<glm::vec<4,float,0>,std::allocator<glm::vec<4,float,0> > >::_Emplace_reallocate<glm::vec<4,float,0> >
PUBLIC	??$_Emplace_back_with_unused_capacity@U?$vec@$03M$0A@@glm@@@?$vector@U?$vec@$03M$0A@@glm@@V?$allocator@U?$vec@$03M$0A@@glm@@@std@@@std@@AEAAAEAU?$vec@$03M$0A@@glm@@$$QEAU23@@Z ; std::vector<glm::vec<4,float,0>,std::allocator<glm::vec<4,float,0> > >::_Emplace_back_with_unused_capacity<glm::vec<4,float,0> >
PUBLIC	??$forward@U?$vec@$03M$0A@@glm@@@std@@YA$$QEAU?$vec@$03M$0A@@glm@@AEAU12@@Z ; std::forward<glm::vec<4,float,0> >
PUBLIC	?max_size@?$_Default_allocator_traits@V?$allocator@U?$vec@$03M$0A@@glm@@@std@@@std@@SA_KAEBV?$allocator@U?$vec@$03M$0A@@glm@@@2@@Z ; std::_Default_allocator_traits<std::allocator<glm::vec<4,float,0> > >::max_size
PUBLIC	?max_size@?$vector@U?$vec@$03M$0A@@glm@@V?$allocator@U?$vec@$03M$0A@@glm@@@std@@@std@@QEBA_KXZ ; std::vector<glm::vec<4,float,0>,std::allocator<glm::vec<4,float,0> > >::max_size
PUBLIC	?_Buy_raw@?$vector@U?$vec@$03M$0A@@glm@@V?$allocator@U?$vec@$03M$0A@@glm@@@std@@@std@@AEAAX_K@Z ; std::vector<glm::vec<4,float,0>,std::allocator<glm::vec<4,float,0> > >::_Buy_raw
PUBLIC	?_Xlength@?$vector@U?$vec@$03M$0A@@glm@@V?$allocator@U?$vec@$03M$0A@@glm@@@std@@@std@@CAXXZ ; std::vector<glm::vec<4,float,0>,std::allocator<glm::vec<4,float,0> > >::_Xlength
PUBLIC	??0?$allocator@U?$vec@$03M$0A@@glm@@@std@@QEAA@XZ ; std::allocator<glm::vec<4,float,0> >::allocator<glm::vec<4,float,0> >
PUBLIC	?_Buy_nonzero@?$vector@U?$vec@$03M$0A@@glm@@V?$allocator@U?$vec@$03M$0A@@glm@@@std@@@std@@AEAAX_K@Z ; std::vector<glm::vec<4,float,0>,std::allocator<glm::vec<4,float,0> > >::_Buy_nonzero
PUBLIC	??0?$_Vector_val@U?$_Simple_types@U?$vec@$03M$0A@@glm@@@std@@@std@@QEAA@XZ ; std::_Vector_val<std::_Simple_types<glm::vec<4,float,0> > >::_Vector_val<std::_Simple_types<glm::vec<4,float,0> > >
PUBLIC	??1?$_Tidy_guard@V?$vector@U?$vec@$03M$0A@@glm@@V?$allocator@U?$vec@$03M$0A@@glm@@@std@@@std@@@std@@QEAA@XZ ; std::_Tidy_guard<std::vector<glm::vec<4,float,0>,std::allocator<glm::vec<4,float,0> > > >::~_Tidy_guard<std::vector<glm::vec<4,float,0>,std::allocator<glm::vec<4,float,0> > > >
PUBLIC	??$?0$$V@?$_Compressed_pair@V?$allocator@U?$vec@$03M$0A@@glm@@@std@@V?$_Vector_val@U?$_Simple_types@U?$vec@$03M$0A@@glm@@@std@@@2@$00@std@@QEAA@U_Zero_then_variadic_args_t@1@@Z ; std::_Compressed_pair<std::allocator<glm::vec<4,float,0> >,std::_Vector_val<std::_Simple_types<glm::vec<4,float,0> > >,1>::_Compressed_pair<std::allocator<glm::vec<4,float,0> >,std::_Vector_val<std::_Simple_types<glm::vec<4,float,0> > >,1><>
PUBLIC	??$_Construct_n@AEBQEAU?$vec@$03M$0A@@glm@@AEBQEAU12@@?$vector@U?$vec@$03M$0A@@glm@@V?$allocator@U?$vec@$03M$0A@@glm@@@std@@@std@@AEAAX_KAEBQEAU?$vec@$03M$0A@@glm@@1@Z ; std::vector<glm::vec<4,float,0>,std::allocator<glm::vec<4,float,0> > >::_Construct_n<glm::vec<4,float,0> * const &,glm::vec<4,float,0> * const &>
PUBLIC	??$?0V?$allocator@U?$vec@$03M$0A@@glm@@@std@@$$V@?$_Compressed_pair@V?$allocator@U?$vec@$03M$0A@@glm@@@std@@V?$_Vector_val@U?$_Simple_types@U?$vec@$03M$0A@@glm@@@std@@@2@$00@std@@QEAA@U_One_then_variadic_args_t@1@$$QEAV?$allocator@U?$vec@$03M$0A@@glm@@@1@@Z ; std::_Compressed_pair<std::allocator<glm::vec<4,float,0> >,std::_Vector_val<std::_Simple_types<glm::vec<4,float,0> > >,1>::_Compressed_pair<std::allocator<glm::vec<4,float,0> >,std::_Vector_val<std::_Simple_types<glm::vec<4,float,0> > >,1><std::allocator<glm::vec<4,float,0> > >
PUBLIC	??$_Emplace_one_at_back@U?$vec@$03M$0A@@glm@@@?$vector@U?$vec@$03M$0A@@glm@@V?$allocator@U?$vec@$03M$0A@@glm@@@std@@@std@@AEAAAEAU?$vec@$03M$0A@@glm@@$$QEAU23@@Z ; std::vector<glm::vec<4,float,0>,std::allocator<glm::vec<4,float,0> > >::_Emplace_one_at_back<glm::vec<4,float,0> >
PUBLIC	??$move@AEAU?$vec@$03M$0A@@glm@@@std@@YA$$QEAU?$vec@$03M$0A@@glm@@AEAU12@@Z ; std::move<glm::vec<4,float,0> &>
PUBLIC	?_Get_first@?$_Compressed_pair@V?$allocator@U?$vec@$03M$0A@@glm@@@std@@V?$_Vector_val@U?$_Simple_types@U?$vec@$03M$0A@@glm@@@std@@@2@$00@std@@QEBAAEBV?$allocator@U?$vec@$03M$0A@@glm@@@2@XZ ; std::_Compressed_pair<std::allocator<glm::vec<4,float,0> >,std::_Vector_val<std::_Simple_types<glm::vec<4,float,0> > >,1>::_Get_first
PUBLIC	?select_on_container_copy_construction@?$_Default_allocator_traits@V?$allocator@U?$vec@$03M$0A@@glm@@@std@@@std@@SA?AV?$allocator@U?$vec@$03M$0A@@glm@@@2@AEBV32@@Z ; std::_Default_allocator_traits<std::allocator<glm::vec<4,float,0> > >::select_on_container_copy_construction
PUBLIC	?_Getal@?$vector@U?$vec@$03M$0A@@glm@@V?$allocator@U?$vec@$03M$0A@@glm@@@std@@@std@@AEBAAEBV?$allocator@U?$vec@$03M$0A@@glm@@@2@XZ ; std::vector<glm::vec<4,float,0>,std::allocator<glm::vec<4,float,0> > >::_Getal
PUBLIC	??0?$vector@U?$vec@$03M$0A@@glm@@V?$allocator@U?$vec@$03M$0A@@glm@@@std@@@std@@QEAA@XZ ; std::vector<glm::vec<4,float,0>,std::allocator<glm::vec<4,float,0> > >::vector<glm::vec<4,float,0>,std::allocator<glm::vec<4,float,0> > >
PUBLIC	??0?$vector@U?$vec@$03M$0A@@glm@@V?$allocator@U?$vec@$03M$0A@@glm@@@std@@@std@@QEAA@AEBV01@@Z ; std::vector<glm::vec<4,float,0>,std::allocator<glm::vec<4,float,0> > >::vector<glm::vec<4,float,0>,std::allocator<glm::vec<4,float,0> > >
PUBLIC	?push_back@?$vector@U?$vec@$03M$0A@@glm@@V?$allocator@U?$vec@$03M$0A@@glm@@@std@@@std@@QEAAX$$QEAU?$vec@$03M$0A@@glm@@@Z ; std::vector<glm::vec<4,float,0>,std::allocator<glm::vec<4,float,0> > >::push_back
PUBLIC	?Send_Message@cTank@@UEAA_NUsNVPair@@@Z		; cTank::Send_Message
PUBLIC	?Receive_Message@cTank@@UEAA_NUsNVPair@@@Z	; cTank::Receive_Message
PUBLIC	?setMediator@cTank@@UEAAXPEAViMessaging@@@Z	; cTank::setMediator
PUBLIC	??0sNVPair@@QEAA@AEBU0@@Z			; sNVPair::sNVPair
PUBLIC	??0sNVPair@@QEAA@XZ				; sNVPair::sNVPair
PUBLIC	?UpdateTick@cTank@@UEAAXN@Z			; cTank::UpdateTick
PUBLIC	?setLocation@cTank@@UEAAXU?$vec@$02M$0A@@glm@@@Z ; cTank::setLocation
PUBLIC	?getLocation@cTank@@UEAA?AU?$vec@$02M$0A@@glm@@XZ ; cTank::getLocation
PUBLIC	?Attack@cTank@@UEAAXPEAViTank@@@Z		; cTank::Attack
PUBLIC	??1cTank@@UEAA@XZ				; cTank::~cTank
PUBLIC	?getID@cTank@@UEAAIXZ				; cTank::getID
PUBLIC	??_GcTank@@UEAAPEAXI@Z				; cTank::`scalar deleting destructor'
EXTRN	??_EcTank@@UEAAPEAXI@Z:PROC			; cTank::`vector deleting destructor'
;	COMDAT pdata
pdata	SEGMENT
$pdata$??$_Copy_memmove_tail@PEAU?$vec@$03M$0A@@glm@@@std@@YAPEAU?$vec@$03M$0A@@glm@@QEBDQEAU12@_K2@Z DD imagerel $LN4@Copy_memmo
	DD	imagerel $LN4@Copy_memmo+42
	DD	imagerel $unwind$??$_Copy_memmove_tail@PEAU?$vec@$03M$0A@@glm@@@std@@YAPEAU?$vec@$03M$0A@@glm@@QEBDQEAU12@_K2@Z
pdata	ENDS
;	COMDAT pdata
pdata	SEGMENT
$pdata$??$_Get_size_of_n@$0BA@@std@@YA_K_K@Z DD imagerel $LN7@Get_size_o
	DD	imagerel $LN7@Get_size_o+37
	DD	imagerel $unwind$??$_Get_size_of_n@$0BA@@std@@YA_K_K@Z
pdata	ENDS
;	COMDAT pdata
pdata	SEGMENT
$pdata$??$_Copy_memmove@PEAU?$vec@$03M$0A@@glm@@PEAU12@@std@@YAPEAU?$vec@$03M$0A@@glm@@PEAU12@00@Z DD imagerel $LN6@Copy_memmo
	DD	imagerel $LN6@Copy_memmo+48
	DD	imagerel $unwind$??$_Copy_memmove@PEAU?$vec@$03M$0A@@glm@@PEAU12@@std@@YAPEAU?$vec@$03M$0A@@glm@@PEAU12@00@Z
pdata	ENDS
;	COMDAT pdata
pdata	SEGMENT
$pdata$??$_Uninitialized_move@PEAU?$vec@$03M$0A@@glm@@V?$allocator@U?$vec@$03M$0A@@glm@@@std@@@std@@YAPEAU?$vec@$03M$0A@@glm@@QEAU12@0PEAU12@AEAV?$allocator@U?$vec@$03M$0A@@glm@@@0@@Z DD imagerel $LN23@Uninitiali
	DD	imagerel $LN23@Uninitiali+52
	DD	imagerel $unwind$??$_Uninitialized_move@PEAU?$vec@$03M$0A@@glm@@V?$allocator@U?$vec@$03M$0A@@glm@@@std@@@std@@YAPEAU?$vec@$03M$0A@@glm@@QEAU12@0PEAU12@AEAV?$allocator@U?$vec@$03M$0A@@glm@@@0@@Z
pdata	ENDS
;	COMDAT pdata
pdata	SEGMENT
$pdata$?allocate@?$allocator@U?$vec@$03M$0A@@glm@@@std@@QEAAPEAU?$vec@$03M$0A@@glm@@_K@Z DD imagerel $LN31@allocate
	DD	imagerel $LN31@allocate+108
	DD	imagerel $unwind$?allocate@?$allocator@U?$vec@$03M$0A@@glm@@@std@@QEAAPEAU?$vec@$03M$0A@@glm@@_K@Z
pdata	ENDS
;	COMDAT pdata
pdata	SEGMENT
$pdata$?_Change_array@?$vector@U?$vec@$03M$0A@@glm@@V?$allocator@U?$vec@$03M$0A@@glm@@@std@@@std@@AEAAXQEAU?$vec@$03M$0A@@glm@@_K1@Z DD imagerel $LN31@Change_arr
	DD	imagerel $LN31@Change_arr+142
	DD	imagerel $unwind$?_Change_array@?$vector@U?$vec@$03M$0A@@glm@@V?$allocator@U?$vec@$03M$0A@@glm@@@std@@@std@@AEAAXQEAU?$vec@$03M$0A@@glm@@_K1@Z
pdata	ENDS
;	COMDAT pdata
pdata	SEGMENT
$pdata$??1_Reallocation_guard@?$vector@U?$vec@$03M$0A@@glm@@V?$allocator@U?$vec@$03M$0A@@glm@@@std@@@std@@QEAA@XZ DD imagerel $LN28@Reallocati
	DD	imagerel $LN28@Reallocati+78
	DD	imagerel $unwind$??1_Reallocation_guard@?$vector@U?$vec@$03M$0A@@glm@@V?$allocator@U?$vec@$03M$0A@@glm@@@std@@@std@@QEAA@XZ
pdata	ENDS
;	COMDAT pdata
pdata	SEGMENT
$pdata$??$_Allocate_at_least_helper@V?$allocator@U?$vec@$03M$0A@@glm@@@std@@@std@@YAPEAU?$vec@$03M$0A@@glm@@AEAV?$allocator@U?$vec@$03M$0A@@glm@@@0@AEA_K@Z DD imagerel $LN34@Allocate_a
	DD	imagerel $LN34@Allocate_a+111
	DD	imagerel $unwind$??$_Allocate_at_least_helper@V?$allocator@U?$vec@$03M$0A@@glm@@@std@@@std@@YAPEAU?$vec@$03M$0A@@glm@@AEAV?$allocator@U?$vec@$03M$0A@@glm@@@0@AEA_K@Z
pdata	ENDS
;	COMDAT pdata
pdata	SEGMENT
$pdata$??$_Uninitialized_copy@PEAU?$vec@$03M$0A@@glm@@PEAU12@V?$allocator@U?$vec@$03M$0A@@glm@@@std@@@std@@YAPEAU?$vec@$03M$0A@@glm@@PEAU12@00AEAV?$allocator@U?$vec@$03M$0A@@glm@@@0@@Z DD imagerel $LN23@Uninitiali
	DD	imagerel $LN23@Uninitiali+52
	DD	imagerel $unwind$??$_Uninitialized_copy@PEAU?$vec@$03M$0A@@glm@@PEAU12@V?$allocator@U?$vec@$03M$0A@@glm@@@std@@@std@@YAPEAU?$vec@$03M$0A@@glm@@PEAU12@00AEAV?$allocator@U?$vec@$03M$0A@@glm@@@0@@Z
pdata	ENDS
;	COMDAT pdata
pdata	SEGMENT
$pdata$??$_Emplace_reallocate@U?$vec@$03M$0A@@glm@@@?$vector@U?$vec@$03M$0A@@glm@@V?$allocator@U?$vec@$03M$0A@@glm@@@std@@@std@@AEAAPEAU?$vec@$03M$0A@@glm@@QEAU23@$$QEAU23@@Z DD imagerel $LN175@Emplace_re
	DD	imagerel $LN175@Emplace_re+71
	DD	imagerel $unwind$??$_Emplace_reallocate@U?$vec@$03M$0A@@glm@@@?$vector@U?$vec@$03M$0A@@glm@@V?$allocator@U?$vec@$03M$0A@@glm@@@std@@@std@@AEAAPEAU?$vec@$03M$0A@@glm@@QEAU23@$$QEAU23@@Z
pdata	ENDS
;	COMDAT pdata
pdata	SEGMENT
$pdata$1$??$_Emplace_reallocate@U?$vec@$03M$0A@@glm@@@?$vector@U?$vec@$03M$0A@@glm@@V?$allocator@U?$vec@$03M$0A@@glm@@@std@@@std@@AEAAPEAU?$vec@$03M$0A@@glm@@QEAU23@$$QEAU23@@Z DD imagerel $LN175@Emplace_re+71
	DD	imagerel $LN175@Emplace_re+374
	DD	imagerel $chain$1$??$_Emplace_reallocate@U?$vec@$03M$0A@@glm@@@?$vector@U?$vec@$03M$0A@@glm@@V?$allocator@U?$vec@$03M$0A@@glm@@@std@@@std@@AEAAPEAU?$vec@$03M$0A@@glm@@QEAU23@$$QEAU23@@Z
pdata	ENDS
;	COMDAT pdata
pdata	SEGMENT
$pdata$3$??$_Emplace_reallocate@U?$vec@$03M$0A@@glm@@@?$vector@U?$vec@$03M$0A@@glm@@V?$allocator@U?$vec@$03M$0A@@glm@@@std@@@std@@AEAAPEAU?$vec@$03M$0A@@glm@@QEAU23@$$QEAU23@@Z DD imagerel $LN175@Emplace_re+374
	DD	imagerel $LN175@Emplace_re+381
	DD	imagerel $chain$3$??$_Emplace_reallocate@U?$vec@$03M$0A@@glm@@@?$vector@U?$vec@$03M$0A@@glm@@V?$allocator@U?$vec@$03M$0A@@glm@@@std@@@std@@AEAAPEAU?$vec@$03M$0A@@glm@@QEAU23@$$QEAU23@@Z
pdata	ENDS
;	COMDAT pdata
pdata	SEGMENT
$pdata$4$??$_Emplace_reallocate@U?$vec@$03M$0A@@glm@@@?$vector@U?$vec@$03M$0A@@glm@@V?$allocator@U?$vec@$03M$0A@@glm@@@std@@@std@@AEAAPEAU?$vec@$03M$0A@@glm@@QEAU23@$$QEAU23@@Z DD imagerel $LN175@Emplace_re+381
	DD	imagerel $LN175@Emplace_re+387
	DD	imagerel $chain$4$??$_Emplace_reallocate@U?$vec@$03M$0A@@glm@@@?$vector@U?$vec@$03M$0A@@glm@@V?$allocator@U?$vec@$03M$0A@@glm@@@std@@@std@@AEAAPEAU?$vec@$03M$0A@@glm@@QEAU23@$$QEAU23@@Z
pdata	ENDS
;	COMDAT pdata
pdata	SEGMENT
$pdata$5$??$_Emplace_reallocate@U?$vec@$03M$0A@@glm@@@?$vector@U?$vec@$03M$0A@@glm@@V?$allocator@U?$vec@$03M$0A@@glm@@@std@@@std@@AEAAPEAU?$vec@$03M$0A@@glm@@QEAU23@$$QEAU23@@Z DD imagerel $LN175@Emplace_re+387
	DD	imagerel $LN175@Emplace_re+393
	DD	imagerel $chain$5$??$_Emplace_reallocate@U?$vec@$03M$0A@@glm@@@?$vector@U?$vec@$03M$0A@@glm@@V?$allocator@U?$vec@$03M$0A@@glm@@@std@@@std@@AEAAPEAU?$vec@$03M$0A@@glm@@QEAU23@$$QEAU23@@Z
pdata	ENDS
;	COMDAT pdata
pdata	SEGMENT
$pdata$?_Buy_raw@?$vector@U?$vec@$03M$0A@@glm@@V?$allocator@U?$vec@$03M$0A@@glm@@@std@@@std@@AEAAX_K@Z DD imagerel $LN42@Buy_raw
	DD	imagerel $LN42@Buy_raw+135
	DD	imagerel $unwind$?_Buy_raw@?$vector@U?$vec@$03M$0A@@glm@@V?$allocator@U?$vec@$03M$0A@@glm@@@std@@@std@@AEAAX_K@Z
pdata	ENDS
;	COMDAT pdata
pdata	SEGMENT
$pdata$?_Xlength@?$vector@U?$vec@$03M$0A@@glm@@V?$allocator@U?$vec@$03M$0A@@glm@@@std@@@std@@CAXXZ DD imagerel $LN4@Xlength
	DD	imagerel $LN4@Xlength+18
	DD	imagerel $unwind$?_Xlength@?$vector@U?$vec@$03M$0A@@glm@@V?$allocator@U?$vec@$03M$0A@@glm@@@std@@@std@@CAXXZ
pdata	ENDS
;	COMDAT pdata
pdata	SEGMENT
$pdata$?_Buy_nonzero@?$vector@U?$vec@$03M$0A@@glm@@V?$allocator@U?$vec@$03M$0A@@glm@@@std@@@std@@AEAAX_K@Z DD imagerel $LN46@Buy_nonzer
	DD	imagerel $LN46@Buy_nonzer+141
	DD	imagerel $unwind$?_Buy_nonzero@?$vector@U?$vec@$03M$0A@@glm@@V?$allocator@U?$vec@$03M$0A@@glm@@@std@@@std@@AEAAX_K@Z
pdata	ENDS
;	COMDAT pdata
pdata	SEGMENT
$pdata$??1?$_Tidy_guard@V?$vector@U?$vec@$03M$0A@@glm@@V?$allocator@U?$vec@$03M$0A@@glm@@@std@@@std@@@std@@QEAA@XZ DD imagerel $LN37@Tidy_guard
	DD	imagerel $LN37@Tidy_guard+97
	DD	imagerel $unwind$??1?$_Tidy_guard@V?$vector@U?$vec@$03M$0A@@glm@@V?$allocator@U?$vec@$03M$0A@@glm@@@std@@@std@@@std@@QEAA@XZ
pdata	ENDS
;	COMDAT pdata
pdata	SEGMENT
$pdata$??$_Construct_n@AEBQEAU?$vec@$03M$0A@@glm@@AEBQEAU12@@?$vector@U?$vec@$03M$0A@@glm@@V?$allocator@U?$vec@$03M$0A@@glm@@@std@@@std@@AEAAX_KAEBQEAU?$vec@$03M$0A@@glm@@1@Z DD imagerel $LN104@Construct_
	DD	imagerel $LN104@Construct_+54
	DD	imagerel $unwind$??$_Construct_n@AEBQEAU?$vec@$03M$0A@@glm@@AEBQEAU12@@?$vector@U?$vec@$03M$0A@@glm@@V?$allocator@U?$vec@$03M$0A@@glm@@@std@@@std@@AEAAX_KAEBQEAU?$vec@$03M$0A@@glm@@1@Z
pdata	ENDS
;	COMDAT pdata
pdata	SEGMENT
$pdata$0$??$_Construct_n@AEBQEAU?$vec@$03M$0A@@glm@@AEBQEAU12@@?$vector@U?$vec@$03M$0A@@glm@@V?$allocator@U?$vec@$03M$0A@@glm@@@std@@@std@@AEAAX_KAEBQEAU?$vec@$03M$0A@@glm@@1@Z DD imagerel $LN104@Construct_+54
	DD	imagerel $LN104@Construct_+189
	DD	imagerel $chain$0$??$_Construct_n@AEBQEAU?$vec@$03M$0A@@glm@@AEBQEAU12@@?$vector@U?$vec@$03M$0A@@glm@@V?$allocator@U?$vec@$03M$0A@@glm@@@std@@@std@@AEAAX_KAEBQEAU?$vec@$03M$0A@@glm@@1@Z
pdata	ENDS
;	COMDAT pdata
pdata	SEGMENT
$pdata$1$??$_Construct_n@AEBQEAU?$vec@$03M$0A@@glm@@AEBQEAU12@@?$vector@U?$vec@$03M$0A@@glm@@V?$allocator@U?$vec@$03M$0A@@glm@@@std@@@std@@AEAAX_KAEBQEAU?$vec@$03M$0A@@glm@@1@Z DD imagerel $LN104@Construct_+189
	DD	imagerel $LN104@Construct_+190
	DD	imagerel $chain$1$??$_Construct_n@AEBQEAU?$vec@$03M$0A@@glm@@AEBQEAU12@@?$vector@U?$vec@$03M$0A@@glm@@V?$allocator@U?$vec@$03M$0A@@glm@@@std@@@std@@AEAAX_KAEBQEAU?$vec@$03M$0A@@glm@@1@Z
pdata	ENDS
;	COMDAT pdata
pdata	SEGMENT
$pdata$2$??$_Construct_n@AEBQEAU?$vec@$03M$0A@@glm@@AEBQEAU12@@?$vector@U?$vec@$03M$0A@@glm@@V?$allocator@U?$vec@$03M$0A@@glm@@@std@@@std@@AEAAX_KAEBQEAU?$vec@$03M$0A@@glm@@1@Z DD imagerel $LN104@Construct_+190
	DD	imagerel $LN104@Construct_+196
	DD	imagerel $chain$2$??$_Construct_n@AEBQEAU?$vec@$03M$0A@@glm@@AEBQEAU12@@?$vector@U?$vec@$03M$0A@@glm@@V?$allocator@U?$vec@$03M$0A@@glm@@@std@@@std@@AEAAX_KAEBQEAU?$vec@$03M$0A@@glm@@1@Z
pdata	ENDS
;	COMDAT pdata
pdata	SEGMENT
$pdata$3$??$_Construct_n@AEBQEAU?$vec@$03M$0A@@glm@@AEBQEAU12@@?$vector@U?$vec@$03M$0A@@glm@@V?$allocator@U?$vec@$03M$0A@@glm@@@std@@@std@@AEAAX_KAEBQEAU?$vec@$03M$0A@@glm@@1@Z DD imagerel $LN104@Construct_+196
	DD	imagerel $LN104@Construct_+202
	DD	imagerel $chain$3$??$_Construct_n@AEBQEAU?$vec@$03M$0A@@glm@@AEBQEAU12@@?$vector@U?$vec@$03M$0A@@glm@@V?$allocator@U?$vec@$03M$0A@@glm@@@std@@@std@@AEAAX_KAEBQEAU?$vec@$03M$0A@@glm@@1@Z
pdata	ENDS
;	COMDAT pdata
pdata	SEGMENT
$pdata$??0?$vector@U?$vec@$03M$0A@@glm@@V?$allocator@U?$vec@$03M$0A@@glm@@@std@@@std@@QEAA@AEBV01@@Z DD imagerel $LN111@vector
	DD	imagerel $LN111@vector+216
	DD	imagerel $unwind$??0?$vector@U?$vec@$03M$0A@@glm@@V?$allocator@U?$vec@$03M$0A@@glm@@@std@@@std@@QEAA@AEBV01@@Z
pdata	ENDS
;	COMDAT pdata
pdata	SEGMENT
$pdata$?Send_Message@cTank@@UEAA_NUsNVPair@@@Z DD imagerel $LN5@Send_Messa
	DD	imagerel $LN5@Send_Messa+19
	DD	imagerel $unwind$?Send_Message@cTank@@UEAA_NUsNVPair@@@Z
pdata	ENDS
;	COMDAT pdata
pdata	SEGMENT
$pdata$?Receive_Message@cTank@@UEAA_NUsNVPair@@@Z DD imagerel $LN5@Receive_Me
	DD	imagerel $LN5@Receive_Me+19
	DD	imagerel $unwind$?Receive_Message@cTank@@UEAA_NUsNVPair@@@Z
pdata	ENDS
;	COMDAT pdata
pdata	SEGMENT
$pdata$??0sNVPair@@QEAA@AEBU0@@Z DD imagerel $LN111@sNVPair
	DD	imagerel $LN111@sNVPair+254
	DD	imagerel $unwind$??0sNVPair@@QEAA@AEBU0@@Z
pdata	ENDS
;	COMDAT pdata
pdata	SEGMENT
$pdata$?UpdateTick@cTank@@UEAAXN@Z DD imagerel $LN198@UpdateTick
	DD	imagerel $LN198@UpdateTick+566
	DD	imagerel $unwind$?UpdateTick@cTank@@UEAAXN@Z
pdata	ENDS
;	COMDAT pdata
pdata	SEGMENT
$pdata$??_GcTank@@UEAAPEAXI@Z DD imagerel $LN14@scalar
	DD	imagerel $LN14@scalar+54
	DD	imagerel $unwind$??_GcTank@@UEAAPEAXI@Z
;	COMDAT xdata
xdata	SEGMENT
$unwind$??_GcTank@@UEAAPEAXI@Z DQ 03002320600020601r ; 1.96423e-77
xdata	ENDS
;	COMDAT xdata
xdata	SEGMENT
$ip2state$?UpdateTick@cTank@@UEAAXN@Z DQ 0061c04f00202690cr ; 3.08717e-279
	DD	01e0202e5H
	DW	08400H
	DB	06H
xdata	ENDS
;	COMDAT xdata
xdata	SEGMENT
$stateUnwindMap$?UpdateTick@cTank@@UEAAXN@Z DW 0a06H
	DD	imagerel ??1sNVPair@@QEAA@XZ
	DW	0241H
	DB	03cH
	DD	imagerel ??1?$basic_string@DU?$char_traits@D@std@@V?$allocator@D@2@@std@@QEAA@XZ
	DW	03640H
	DD	imagerel ?dtor$10@?0??UpdateTick@cTank@@UEAAXN@Z@4HA
xdata	ENDS
;	COMDAT xdata
xdata	SEGMENT
$cppxdata$?UpdateTick@cTank@@UEAAXN@Z DB 028H
	DD	imagerel $stateUnwindMap$?UpdateTick@cTank@@UEAAXN@Z
	DD	imagerel $ip2state$?UpdateTick@cTank@@UEAAXN@Z
xdata	ENDS
;	COMDAT xdata
xdata	SEGMENT
$unwind$?UpdateTick@cTank@@UEAAXN@Z DQ 00025741c00092a19r ; 5.96697e-308
	DQ	00023341c0024641cr		; 5.34117e-308
	DQ	0000050100020011cr		; 4.34924e-310
	DD	imagerel __GSHandlerCheck_EH4
	DD	imagerel $cppxdata$?UpdateTick@cTank@@UEAAXN@Z
	DD	0f2H
xdata	ENDS
;	COMDAT xdata
xdata	SEGMENT
$ip2state$??0sNVPair@@QEAA@AEBU0@@Z DQ 0cc04ae021c002e0ar ; -1.62261e+58
	DW	02000H
	DB	04H
xdata	ENDS
;	COMDAT xdata
xdata	SEGMENT
$stateUnwindMap$??0sNVPair@@QEAA@AEBU0@@Z DW 0c04H
	DD	imagerel ??1?$basic_string@DU?$char_traits@D@std@@V?$allocator@D@2@@std@@QEAA@XZ
	DW	03640H
	DD	imagerel ?dtor$1@?0???0sNVPair@@QEAA@AEBU0@@Z@4HA
xdata	ENDS
;	COMDAT xdata
xdata	SEGMENT
$cppxdata$??0sNVPair@@QEAA@AEBU0@@Z DB 028H
	DD	imagerel $stateUnwindMap$??0sNVPair@@QEAA@AEBU0@@Z
	DD	imagerel $ip2state$??0sNVPair@@QEAA@AEBU0@@Z
xdata	ENDS
;	COMDAT xdata
xdata	SEGMENT
$unwind$??0sNVPair@@QEAA@AEBU0@@Z DQ 0000c340c00060c11r ; 1.69708e-308
	DQ	0500660077008520cr		; 3.23858e+77
	DD	imagerel __CxxFrameHandler4
	DD	imagerel $cppxdata$??0sNVPair@@QEAA@AEBU0@@Z
xdata	ENDS
;	COMDAT xdata
xdata	SEGMENT
$unwind$?Receive_Message@cTank@@UEAA_NUsNVPair@@@Z DQ 00000420400010401r ; 3.58617e-310
xdata	ENDS
;	COMDAT xdata
xdata	SEGMENT
$unwind$?Send_Message@cTank@@UEAA_NUsNVPair@@@Z DQ 00000420400010401r ; 3.58617e-310
xdata	ENDS
;	COMDAT xdata
xdata	SEGMENT
$unwind$??0?$vector@U?$vec@$03M$0A@@glm@@V?$allocator@U?$vec@$03M$0A@@glm@@@std@@@std@@QEAA@AEBV01@@Z DQ 0000a340d00060d01r ; 1.41895e-308
	DQ	060067007e009320dr		; 3.76049e+154
xdata	ENDS
;	COMDAT xdata
xdata	SEGMENT
$chain$3$??$_Construct_n@AEBQEAU?$vec@$03M$0A@@glm@@AEBQEAU12@@?$vector@U?$vec@$03M$0A@@glm@@V?$allocator@U?$vec@$03M$0A@@glm@@@std@@@std@@AEAAX_KAEBQEAU?$vec@$03M$0A@@glm@@1@Z DD 021H
	DD	imagerel $LN104@Construct_
	DD	imagerel $LN104@Construct_+54
	DD	imagerel $unwind$??$_Construct_n@AEBQEAU?$vec@$03M$0A@@glm@@AEBQEAU12@@?$vector@U?$vec@$03M$0A@@glm@@V?$allocator@U?$vec@$03M$0A@@glm@@@std@@@std@@AEAAX_KAEBQEAU?$vec@$03M$0A@@glm@@1@Z
xdata	ENDS
;	COMDAT xdata
xdata	SEGMENT
$chain$2$??$_Construct_n@AEBQEAU?$vec@$03M$0A@@glm@@AEBQEAU12@@?$vector@U?$vec@$03M$0A@@glm@@V?$allocator@U?$vec@$03M$0A@@glm@@@std@@@std@@AEAAX_KAEBQEAU?$vec@$03M$0A@@glm@@1@Z DQ 00004740000020021r ; 6.19283e-309
	DD	imagerel $LN104@Construct_
	DD	imagerel $LN104@Construct_+54
	DD	imagerel $unwind$??$_Construct_n@AEBQEAU?$vec@$03M$0A@@glm@@AEBQEAU12@@?$vector@U?$vec@$03M$0A@@glm@@V?$allocator@U?$vec@$03M$0A@@glm@@@std@@@std@@AEAAX_KAEBQEAU?$vec@$03M$0A@@glm@@1@Z
xdata	ENDS
;	COMDAT xdata
xdata	SEGMENT
$chain$1$??$_Construct_n@AEBQEAU?$vec@$03M$0A@@glm@@AEBQEAU12@@?$vector@U?$vec@$03M$0A@@glm@@V?$allocator@U?$vec@$03M$0A@@glm@@@std@@@std@@AEAAX_KAEBQEAU?$vec@$03M$0A@@glm@@1@Z DD 021H
	DD	imagerel $LN104@Construct_
	DD	imagerel $LN104@Construct_+54
	DD	imagerel $unwind$??$_Construct_n@AEBQEAU?$vec@$03M$0A@@glm@@AEBQEAU12@@?$vector@U?$vec@$03M$0A@@glm@@V?$allocator@U?$vec@$03M$0A@@glm@@@std@@@std@@AEAAX_KAEBQEAU?$vec@$03M$0A@@glm@@1@Z
xdata	ENDS
;	COMDAT xdata
xdata	SEGMENT
$chain$0$??$_Construct_n@AEBQEAU?$vec@$03M$0A@@glm@@AEBQEAU12@@?$vector@U?$vec@$03M$0A@@glm@@V?$allocator@U?$vec@$03M$0A@@glm@@@std@@@std@@AEAAX_KAEBQEAU?$vec@$03M$0A@@glm@@1@Z DQ 00004740500020521r ; 6.19294e-309
	DD	imagerel $LN104@Construct_
	DD	imagerel $LN104@Construct_+54
	DD	imagerel $unwind$??$_Construct_n@AEBQEAU?$vec@$03M$0A@@glm@@AEBQEAU12@@?$vector@U?$vec@$03M$0A@@glm@@V?$allocator@U?$vec@$03M$0A@@glm@@@std@@@std@@AEAAX_KAEBQEAU?$vec@$03M$0A@@glm@@1@Z
xdata	ENDS
;	COMDAT xdata
xdata	SEGMENT
$unwind$??$_Construct_n@AEBQEAU?$vec@$03M$0A@@glm@@AEBQEAU12@@?$vector@U?$vec@$03M$0A@@glm@@V?$allocator@U?$vec@$03M$0A@@glm@@@std@@@std@@AEAAX_KAEBQEAU?$vec@$03M$0A@@glm@@1@Z DQ 0f00f421300051301r ; -6.0661e+231
	DQ	00000300a600be00dr		; 2.60971e-310
xdata	ENDS
;	COMDAT xdata
xdata	SEGMENT
$unwind$??1?$_Tidy_guard@V?$vector@U?$vec@$03M$0A@@glm@@V?$allocator@U?$vec@$03M$0A@@glm@@@std@@@std@@@std@@QEAA@XZ DQ 03002320600020601r ; 1.96423e-77
xdata	ENDS
;	COMDAT xdata
xdata	SEGMENT
$unwind$?_Buy_nonzero@?$vector@U?$vec@$03M$0A@@glm@@V?$allocator@U?$vec@$03M$0A@@glm@@@std@@@std@@AEAAX_K@Z DQ 00008340a00040a01r ; 1.14081e-308
	DD	07006320aH
xdata	ENDS
;	COMDAT xdata
xdata	SEGMENT
$unwind$?_Xlength@?$vector@U?$vec@$03M$0A@@glm@@V?$allocator@U?$vec@$03M$0A@@glm@@@std@@@std@@CAXXZ DQ 00000420400010401r ; 3.58617e-310
xdata	ENDS
;	COMDAT xdata
xdata	SEGMENT
$unwind$?_Buy_raw@?$vector@U?$vec@$03M$0A@@glm@@V?$allocator@U?$vec@$03M$0A@@glm@@@std@@@std@@AEAAX_K@Z DQ 00006340a00040a01r ; 8.62672e-309
	DD	07006320aH
xdata	ENDS
;	COMDAT xdata
xdata	SEGMENT
$chain$5$??$_Emplace_reallocate@U?$vec@$03M$0A@@glm@@@?$vector@U?$vec@$03M$0A@@glm@@V?$allocator@U?$vec@$03M$0A@@glm@@@std@@@std@@AEAAPEAU?$vec@$03M$0A@@glm@@QEAU23@$$QEAU23@@Z DQ 0000d740000040021r ; 1.87089e-308
	DD	0c3400H
	DD	imagerel $LN175@Emplace_re
	DD	imagerel $LN175@Emplace_re+71
	DD	imagerel $unwind$??$_Emplace_reallocate@U?$vec@$03M$0A@@glm@@@?$vector@U?$vec@$03M$0A@@glm@@V?$allocator@U?$vec@$03M$0A@@glm@@@std@@@std@@AEAAPEAU?$vec@$03M$0A@@glm@@QEAU23@$$QEAU23@@Z
xdata	ENDS
;	COMDAT xdata
xdata	SEGMENT
$chain$4$??$_Emplace_reallocate@U?$vec@$03M$0A@@glm@@@?$vector@U?$vec@$03M$0A@@glm@@V?$allocator@U?$vec@$03M$0A@@glm@@@std@@@std@@AEAAPEAU?$vec@$03M$0A@@glm@@QEAU23@$$QEAU23@@Z DD 021H
	DD	imagerel $LN175@Emplace_re
	DD	imagerel $LN175@Emplace_re+71
	DD	imagerel $unwind$??$_Emplace_reallocate@U?$vec@$03M$0A@@glm@@@?$vector@U?$vec@$03M$0A@@glm@@V?$allocator@U?$vec@$03M$0A@@glm@@@std@@@std@@AEAAPEAU?$vec@$03M$0A@@glm@@QEAU23@$$QEAU23@@Z
xdata	ENDS
;	COMDAT xdata
xdata	SEGMENT
$chain$3$??$_Emplace_reallocate@U?$vec@$03M$0A@@glm@@@?$vector@U?$vec@$03M$0A@@glm@@V?$allocator@U?$vec@$03M$0A@@glm@@@std@@@std@@AEAAPEAU?$vec@$03M$0A@@glm@@QEAU23@$$QEAU23@@Z DQ 0000d740000040021r ; 1.87089e-308
	DD	0c3400H
	DD	imagerel $LN175@Emplace_re
	DD	imagerel $LN175@Emplace_re+71
	DD	imagerel $unwind$??$_Emplace_reallocate@U?$vec@$03M$0A@@glm@@@?$vector@U?$vec@$03M$0A@@glm@@V?$allocator@U?$vec@$03M$0A@@glm@@@std@@@std@@AEAAPEAU?$vec@$03M$0A@@glm@@QEAU23@$$QEAU23@@Z
xdata	ENDS
;	COMDAT xdata
xdata	SEGMENT
$chain$1$??$_Emplace_reallocate@U?$vec@$03M$0A@@glm@@@?$vector@U?$vec@$03M$0A@@glm@@V?$allocator@U?$vec@$03M$0A@@glm@@@std@@@std@@AEAAPEAU?$vec@$03M$0A@@glm@@QEAU23@$$QEAU23@@Z DQ 0000d741400041421r ; 1.87093e-308
	DD	0c3405H
	DD	imagerel $LN175@Emplace_re
	DD	imagerel $LN175@Emplace_re+71
	DD	imagerel $unwind$??$_Emplace_reallocate@U?$vec@$03M$0A@@glm@@@?$vector@U?$vec@$03M$0A@@glm@@V?$allocator@U?$vec@$03M$0A@@glm@@@std@@@std@@AEAAPEAU?$vec@$03M$0A@@glm@@QEAU23@$$QEAU23@@Z
xdata	ENDS
;	COMDAT xdata
xdata	SEGMENT
$unwind$??$_Emplace_reallocate@U?$vec@$03M$0A@@glm@@@?$vector@U?$vec@$03M$0A@@glm@@V?$allocator@U?$vec@$03M$0A@@glm@@@std@@@std@@AEAAPEAU?$vec@$03M$0A@@glm@@QEAU23@$$QEAU23@@Z DQ 0f009320d00060d01r ; -4.88956e+231
	DQ	050026003c005e007r		; 2.65961e+77
xdata	ENDS
;	COMDAT xdata
xdata	SEGMENT
$unwind$??$_Uninitialized_copy@PEAU?$vec@$03M$0A@@glm@@PEAU12@V?$allocator@U?$vec@$03M$0A@@glm@@@std@@@std@@YAPEAU?$vec@$03M$0A@@glm@@PEAU12@00AEAV?$allocator@U?$vec@$03M$0A@@glm@@@0@@Z DQ 00009340a00040a01r ; 1.27987e-308
	DD	07006320aH
xdata	ENDS
;	COMDAT xdata
xdata	SEGMENT
$unwind$??$_Allocate_at_least_helper@V?$allocator@U?$vec@$03M$0A@@glm@@@std@@@std@@YAPEAU?$vec@$03M$0A@@glm@@AEAV?$allocator@U?$vec@$03M$0A@@glm@@@0@AEA_K@Z DQ 00000420400010401r ; 3.58617e-310
xdata	ENDS
;	COMDAT xdata
xdata	SEGMENT
$unwind$??1_Reallocation_guard@?$vector@U?$vec@$03M$0A@@glm@@V?$allocator@U?$vec@$03M$0A@@glm@@@std@@@std@@QEAA@XZ DQ 00000420400010401r ; 3.58617e-310
xdata	ENDS
;	COMDAT xdata
xdata	SEGMENT
$unwind$?_Change_array@?$vector@U?$vec@$03M$0A@@glm@@V?$allocator@U?$vec@$03M$0A@@glm@@@std@@@std@@AEAAXQEAU?$vec@$03M$0A@@glm@@_K1@Z DQ 00009641400081401r ; 1.30597e-308
	DQ	00007341400085414r		; 1.00176e-308
	DD	070103214H
xdata	ENDS
;	COMDAT xdata
xdata	SEGMENT
$unwind$?allocate@?$allocator@U?$vec@$03M$0A@@glm@@@std@@QEAAPEAU?$vec@$03M$0A@@glm@@_K@Z DQ 00000420400010401r ; 3.58617e-310
xdata	ENDS
;	COMDAT xdata
xdata	SEGMENT
$unwind$??$_Uninitialized_move@PEAU?$vec@$03M$0A@@glm@@V?$allocator@U?$vec@$03M$0A@@glm@@@std@@@std@@YAPEAU?$vec@$03M$0A@@glm@@QEAU12@0PEAU12@AEAV?$allocator@U?$vec@$03M$0A@@glm@@@0@@Z DQ 00009340a00040a01r ; 1.27987e-308
	DD	07006320aH
xdata	ENDS
;	COMDAT xdata
xdata	SEGMENT
$unwind$??$_Copy_memmove@PEAU?$vec@$03M$0A@@glm@@PEAU12@@std@@YAPEAU?$vec@$03M$0A@@glm@@PEAU12@00@Z DQ 00009340a00040a01r ; 1.27987e-308
	DD	07006320aH
xdata	ENDS
;	COMDAT xdata
xdata	SEGMENT
$unwind$??$_Get_size_of_n@$0BA@@std@@YA_K_K@Z DQ 00000420400010401r ; 3.58617e-310
xdata	ENDS
;	COMDAT xdata
xdata	SEGMENT
$unwind$??$_Copy_memmove_tail@PEAU?$vec@$03M$0A@@glm@@@std@@YAPEAU?$vec@$03M$0A@@glm@@QEBDQEAU12@_K2@Z DQ 00006340a00040a01r ; 8.62672e-309
	DD	07006320aH
END
