; Listing generated by Microsoft (R) Optimizing Compiler Version 19.43.34808.0 

include listing.inc

INCLUDELIB OLDNAMES

PUBLIC	??_C@_0BH@GPGJMCIO@Writing?5texture?5to?5BMP@	; `string'
PUBLIC	??_C@_0BH@FCDBEIN@Reading?5texture?5file?3?5@	; `string'
PUBLIC	??_C@_01LFCBOECM@?4@				; `string'
PUBLIC	??_C@_09INFLADPO@complete?4@			; `string'
PUBLIC	??_C@_0CN@HAIHKHNO@ERROR?3?5File?5does?5not?5exist?5or?5w@ ; `string'
PUBLIC	??_C@_0DF@IMAEJAAP@ERROR?3?5File?5is?5not?5a?5BMP?5file?5?9@ ; `string'
PUBLIC	??_C@_0CC@PALBHGD@ERROR?3?5Not?5a?524?5Bit?5bitmap?5form@ ; `string'
PUBLIC	??_C@_0CJ@CLNEACEP@ERROR?3?5Not?5enought?5memory?5to?5ho@ ; `string'
PUBLIC	??_C@_08INEPGKHH@No?5error@			; `string'
PUBLIC	??_C@_0M@OIOFJFPO@GL_NO_ERROR@			; `string'
PUBLIC	??_C@_0CJ@MDOBLJCH@GL_NO_ERROR?3?5No?5error?5has?5been?5@ ; `string'
PUBLIC	??_C@_0BA@LLPLHEDK@GL_INVALID_ENUM@		; `string'
PUBLIC	??_C@_0FA@JINBKFFI@GL_INVALID_ENUM?3?5An?5unacceptabl@ ; `string'
PUBLIC	??_C@_0BB@HDIPJELP@GL_INVALID_VALUE@		; `string'
PUBLIC	??_C@_0DG@OGOHPGP@GL_INVALID_VALUE?3?5A?5numeric?5arg@ ; `string'
PUBLIC	??_C@_0BF@NFNGKHIL@GL_INVALID_OPERATION@	; `string'
PUBLIC	??_C@_0FD@EOOHMJEE@GL_INVALID_OPERATION?3?5The?5speci@ ; `string'
PUBLIC	??_C@_0CB@IHDHGOIH@GL_INVALID_FRAMEBUFFER_OPERATIO@ ; `string'
PUBLIC	??_C@_0EK@HACFOMJC@GL_INVALID_FRAMEBUFFER_OPERATIO@ ; `string'
PUBLIC	??_C@_0BB@JMBJBKGI@GL_OUT_OF_MEMORY@		; `string'
PUBLIC	??_C@_0EK@KHDMGIID@GL_OUT_OF_MEMORY?3?5There?5is?5not?5@ ; `string'
PUBLIC	??_C@_0BD@KAJAFKFC@GL_STACK_UNDERFLOW@		; `string'
PUBLIC	??_C@_0HG@OCOLGIHB@GL_STACK_UNDERFLOW?3?5An?5attempt?5@ ; `string'
PUBLIC	??_C@_0BC@DLCDMCHH@GL_STACK_OVERFLOW@		; `string'
PUBLIC	??_C@_0HE@CKEECEMI@GL_STACK_OVERFLOW?3?5An?5attempt?5h@ ; `string'
PUBLIC	??_C@_0O@NIPGCINC@Unknown?5error@		; `string'
PUBLIC	??_R4?$basic_ofstream@DU?$char_traits@D@std@@@std@@6B@ ; std::basic_ofstream<char,std::char_traits<char> >::`RTTI Complete Object Locator'
PUBLIC	??_R3?$basic_ofstream@DU?$char_traits@D@std@@@std@@8 ; std::basic_ofstream<char,std::char_traits<char> >::`RTTI Class Hierarchy Descriptor'
PUBLIC	??_R2?$basic_ofstream@DU?$char_traits@D@std@@@std@@8 ; std::basic_ofstream<char,std::char_traits<char> >::`RTTI Base Class Array'
PUBLIC	??_7?$basic_ofstream@DU?$char_traits@D@std@@@std@@6B@ ; std::basic_ofstream<char,std::char_traits<char> >::`vftable'
PUBLIC	??_R0?AV?$basic_ofstream@DU?$char_traits@D@std@@@std@@@8 ; std::basic_ofstream<char,std::char_traits<char> > `RTTI Type Descriptor'
PUBLIC	??_8?$basic_ofstream@DU?$char_traits@D@std@@@std@@7B@ ; std::basic_ofstream<char,std::char_traits<char> >::`vbtable'
PUBLIC	??_R1A@?0A@EA@?$basic_ofstream@DU?$char_traits@D@std@@@std@@8 ; std::basic_ofstream<char,std::char_traits<char> >::`RTTI Base Class Descriptor at (0,-1,0,64)'
EXTRN	__imp_??7ios_base@std@@QEBA_NXZ:PROC
EXTRN	__imp_?tellg@?$basic_istream@DU?$char_traits@D@std@@@std@@QEAA?AV?$fpos@U_Mbstatet@@@2@XZ:PROC
EXTRN	__imp_?seekg@?$basic_istream@DU?$char_traits@D@std@@@std@@QEAAAEAV12@_JH@Z:PROC
EXTRN	__imp_?read@?$basic_istream@DU?$char_traits@D@std@@@std@@QEAAAEAV12@PEAD_J@Z:PROC
EXTRN	__imp_?get@?$basic_istream@DU?$char_traits@D@std@@@std@@QEAAAEAV12@AEAD@Z:PROC
EXTRN	__imp_??1?$basic_ostream@DU?$char_traits@D@std@@@std@@UEAA@XZ:PROC
EXTRN	__imp_??0?$basic_ostream@DU?$char_traits@D@std@@@std@@QEAA@PEAV?$basic_streambuf@DU?$char_traits@D@std@@@1@_N@Z:PROC
EXTRN	__imp_?clear@?$basic_ios@DU?$char_traits@D@std@@@std@@QEAAXH_N@Z:PROC
EXTRN	??_L@YAXPEAX_K1P6AX0@Z2@Z:PROC			; `eh vector constructor iterator'
EXTRN	??_M@YAXPEAX_K1P6AX0@Z@Z:PROC			; `eh vector destructor iterator'
EXTRN	??_V@YAXPEAX_K@Z:PROC				; operator delete[]
;	COMDAT ??_R1A@?0A@EA@?$basic_ofstream@DU?$char_traits@D@std@@@std@@8
rdata$r	SEGMENT
??_R1A@?0A@EA@?$basic_ofstream@DU?$char_traits@D@std@@@std@@8 DD imagerel ??_R0?AV?$basic_ofstream@DU?$char_traits@D@std@@@std@@@8 ; std::basic_ofstream<char,std::char_traits<char> >::`RTTI Base Class Descriptor at (0,-1,0,64)'
	DD	04H
	DD	00H
	DD	0ffffffffH
	DD	00H
	DD	040H
	DD	imagerel ??_R3?$basic_ofstream@DU?$char_traits@D@std@@@std@@8
rdata$r	ENDS
;	COMDAT ??_8?$basic_ofstream@DU?$char_traits@D@std@@@std@@7B@
CONST	SEGMENT
??_8?$basic_ofstream@DU?$char_traits@D@std@@@std@@7B@ DD 00H ; std::basic_ofstream<char,std::char_traits<char> >::`vbtable'
	DD	0a8H
CONST	ENDS
;	COMDAT ??_R0?AV?$basic_ofstream@DU?$char_traits@D@std@@@std@@@8
data$rs	SEGMENT
??_R0?AV?$basic_ofstream@DU?$char_traits@D@std@@@std@@@8 DQ FLAT:??_7type_info@@6B@ ; std::basic_ofstream<char,std::char_traits<char> > `RTTI Type Descriptor'
	DQ	0000000000000000H
	DB	'.?AV?$basic_ofstream@DU?$char_traits@D@std@@@std@@', 00H
data$rs	ENDS
;	COMDAT ??_7?$basic_ofstream@DU?$char_traits@D@std@@@std@@6B@
CONST	SEGMENT
??_7?$basic_ofstream@DU?$char_traits@D@std@@@std@@6B@ DQ FLAT:??_R4?$basic_ofstream@DU?$char_traits@D@std@@@std@@6B@ ; std::basic_ofstream<char,std::char_traits<char> >::`vftable'
	DQ	FLAT:??_E?$basic_ofstream@DU?$char_traits@D@std@@@std@@$4PPPPPPPM@A@EAAPEAXI@Z
CONST	ENDS
;	COMDAT ??_R2?$basic_ofstream@DU?$char_traits@D@std@@@std@@8
rdata$r	SEGMENT
??_R2?$basic_ofstream@DU?$char_traits@D@std@@@std@@8 DD imagerel ??_R1A@?0A@EA@?$basic_ofstream@DU?$char_traits@D@std@@@std@@8 ; std::basic_ofstream<char,std::char_traits<char> >::`RTTI Base Class Array'
	DD	imagerel ??_R1A@?0A@EA@?$basic_ostream@DU?$char_traits@D@std@@@std@@8
	DD	imagerel ??_R1A@A@3FA@?$basic_ios@DU?$char_traits@D@std@@@std@@8
	DD	imagerel ??_R1A@A@3EA@ios_base@std@@8
	DD	imagerel ??_R17A@3EA@?$_Iosb@H@std@@8
	ORG $+3
rdata$r	ENDS
;	COMDAT ??_R3?$basic_ofstream@DU?$char_traits@D@std@@@std@@8
rdata$r	SEGMENT
??_R3?$basic_ofstream@DU?$char_traits@D@std@@@std@@8 DD 00H ; std::basic_ofstream<char,std::char_traits<char> >::`RTTI Class Hierarchy Descriptor'
	DD	00H
	DD	05H
	DD	imagerel ??_R2?$basic_ofstream@DU?$char_traits@D@std@@@std@@8
rdata$r	ENDS
;	COMDAT ??_R4?$basic_ofstream@DU?$char_traits@D@std@@@std@@6B@
rdata$r	SEGMENT
??_R4?$basic_ofstream@DU?$char_traits@D@std@@@std@@6B@ DD 01H ; std::basic_ofstream<char,std::char_traits<char> >::`RTTI Complete Object Locator'
	DD	0a8H
	DD	04H
	DD	imagerel ??_R0?AV?$basic_ofstream@DU?$char_traits@D@std@@@std@@@8
	DD	imagerel ??_R3?$basic_ofstream@DU?$char_traits@D@std@@@std@@8
	DD	imagerel ??_R4?$basic_ofstream@DU?$char_traits@D@std@@@std@@6B@
rdata$r	ENDS
;	COMDAT ??_C@_0O@NIPGCINC@Unknown?5error@
CONST	SEGMENT
??_C@_0O@NIPGCINC@Unknown?5error@ DB 'Unknown error', 00H ; `string'
CONST	ENDS
;	COMDAT ??_C@_0HE@CKEECEMI@GL_STACK_OVERFLOW?3?5An?5attempt?5h@
CONST	SEGMENT
??_C@_0HE@CKEECEMI@GL_STACK_OVERFLOW?3?5An?5attempt?5h@ DB 'GL_STACK_OVER'
	DB	'FLOW: An attempt has been made to perform an operation that w'
	DB	'ould cause an internal stack to overflow.', 00H ; `string'
CONST	ENDS
;	COMDAT ??_C@_0BC@DLCDMCHH@GL_STACK_OVERFLOW@
CONST	SEGMENT
??_C@_0BC@DLCDMCHH@GL_STACK_OVERFLOW@ DB 'GL_STACK_OVERFLOW', 00H ; `string'
CONST	ENDS
;	COMDAT ??_C@_0HG@OCOLGIHB@GL_STACK_UNDERFLOW?3?5An?5attempt?5@
CONST	SEGMENT
??_C@_0HG@OCOLGIHB@GL_STACK_UNDERFLOW?3?5An?5attempt?5@ DB 'GL_STACK_UNDE'
	DB	'RFLOW: An attempt has been made to perform an operation that '
	DB	'would cause an internal stack to underflow.', 00H ; `string'
CONST	ENDS
;	COMDAT ??_C@_0BD@KAJAFKFC@GL_STACK_UNDERFLOW@
CONST	SEGMENT
??_C@_0BD@KAJAFKFC@GL_STACK_UNDERFLOW@ DB 'GL_STACK_UNDERFLOW', 00H ; `string'
CONST	ENDS
;	COMDAT ??_C@_0EK@KHDMGIID@GL_OUT_OF_MEMORY?3?5There?5is?5not?5@
CONST	SEGMENT
??_C@_0EK@KHDMGIID@GL_OUT_OF_MEMORY?3?5There?5is?5not?5@ DB 'GL_OUT_OF_ME'
	DB	'MORY: There is not enough memory left to execute the command.'
	DB	00H						; `string'
CONST	ENDS
;	COMDAT ??_C@_0BB@JMBJBKGI@GL_OUT_OF_MEMORY@
CONST	SEGMENT
??_C@_0BB@JMBJBKGI@GL_OUT_OF_MEMORY@ DB 'GL_OUT_OF_MEMORY', 00H ; `string'
CONST	ENDS
;	COMDAT ??_C@_0EK@HACFOMJC@GL_INVALID_FRAMEBUFFER_OPERATIO@
CONST	SEGMENT
??_C@_0EK@HACFOMJC@GL_INVALID_FRAMEBUFFER_OPERATIO@ DB 'GL_INVALID_FRAMEB'
	DB	'UFFER_OPERATION: The framebuffer object is not complete.', 00H ; `string'
CONST	ENDS
;	COMDAT ??_C@_0CB@IHDHGOIH@GL_INVALID_FRAMEBUFFER_OPERATIO@
CONST	SEGMENT
??_C@_0CB@IHDHGOIH@GL_INVALID_FRAMEBUFFER_OPERATIO@ DB 'GL_INVALID_FRAMEB'
	DB	'UFFER_OPERATION', 00H			; `string'
CONST	ENDS
;	COMDAT ??_C@_0FD@EOOHMJEE@GL_INVALID_OPERATION?3?5The?5speci@
CONST	SEGMENT
??_C@_0FD@EOOHMJEE@GL_INVALID_OPERATION?3?5The?5speci@ DB 'GL_INVALID_OPE'
	DB	'RATION: The specified operation is not allowed in the current'
	DB	' state.', 00H				; `string'
CONST	ENDS
;	COMDAT ??_C@_0BF@NFNGKHIL@GL_INVALID_OPERATION@
CONST	SEGMENT
??_C@_0BF@NFNGKHIL@GL_INVALID_OPERATION@ DB 'GL_INVALID_OPERATION', 00H ; `string'
CONST	ENDS
;	COMDAT ??_C@_0DG@OGOHPGP@GL_INVALID_VALUE?3?5A?5numeric?5arg@
CONST	SEGMENT
??_C@_0DG@OGOHPGP@GL_INVALID_VALUE?3?5A?5numeric?5arg@ DB 'GL_INVALID_VAL'
	DB	'UE: A numeric argument is out of range.', 00H ; `string'
CONST	ENDS
;	COMDAT ??_C@_0BB@HDIPJELP@GL_INVALID_VALUE@
CONST	SEGMENT
??_C@_0BB@HDIPJELP@GL_INVALID_VALUE@ DB 'GL_INVALID_VALUE', 00H ; `string'
CONST	ENDS
;	COMDAT ??_C@_0FA@JINBKFFI@GL_INVALID_ENUM?3?5An?5unacceptabl@
CONST	SEGMENT
??_C@_0FA@JINBKFFI@GL_INVALID_ENUM?3?5An?5unacceptabl@ DB 'GL_INVALID_ENU'
	DB	'M: An unacceptable value is specified for an enumerated argum'
	DB	'ent.', 00H					; `string'
CONST	ENDS
;	COMDAT ??_C@_0BA@LLPLHEDK@GL_INVALID_ENUM@
CONST	SEGMENT
??_C@_0BA@LLPLHEDK@GL_INVALID_ENUM@ DB 'GL_INVALID_ENUM', 00H ; `string'
CONST	ENDS
;	COMDAT ??_C@_0CJ@MDOBLJCH@GL_NO_ERROR?3?5No?5error?5has?5been?5@
CONST	SEGMENT
??_C@_0CJ@MDOBLJCH@GL_NO_ERROR?3?5No?5error?5has?5been?5@ DB 'GL_NO_ERROR'
	DB	': No error has been recorded.', 00H		; `string'
CONST	ENDS
;	COMDAT ??_C@_0M@OIOFJFPO@GL_NO_ERROR@
CONST	SEGMENT
??_C@_0M@OIOFJFPO@GL_NO_ERROR@ DB 'GL_NO_ERROR', 00H	; `string'
CONST	ENDS
;	COMDAT ??_C@_08INEPGKHH@No?5error@
CONST	SEGMENT
??_C@_08INEPGKHH@No?5error@ DB 'No error', 00H		; `string'
CONST	ENDS
;	COMDAT ??_C@_0CJ@CLNEACEP@ERROR?3?5Not?5enought?5memory?5to?5ho@
CONST	SEGMENT
??_C@_0CJ@CLNEACEP@ERROR?3?5Not?5enought?5memory?5to?5ho@ DB 'ERROR: Not '
	DB	'enought memory to hold bitmap', 00H		; `string'
CONST	ENDS
;	COMDAT ??_C@_0CC@PALBHGD@ERROR?3?5Not?5a?524?5Bit?5bitmap?5form@
CONST	SEGMENT
??_C@_0CC@PALBHGD@ERROR?3?5Not?5a?524?5Bit?5bitmap?5form@ DB 'ERROR: Not '
	DB	'a 24 Bit bitmap format', 00H		; `string'
CONST	ENDS
;	COMDAT ??_C@_0DF@IMAEJAAP@ERROR?3?5File?5is?5not?5a?5BMP?5file?5?9@
CONST	SEGMENT
??_C@_0DF@IMAEJAAP@ERROR?3?5File?5is?5not?5a?5BMP?5file?5?9@ DB 'ERROR: F'
	DB	'ile is not a BMP file - ''BM'' tag not present', 00H ; `string'
CONST	ENDS
;	COMDAT ??_C@_0CN@HAIHKHNO@ERROR?3?5File?5does?5not?5exist?5or?5w@
CONST	SEGMENT
??_C@_0CN@HAIHKHNO@ERROR?3?5File?5does?5not?5exist?5or?5w@ DB 'ERROR: Fil'
	DB	'e does not exist or would not open', 00H	; `string'
CONST	ENDS
;	COMDAT ??_C@_09INFLADPO@complete?4@
CONST	SEGMENT
??_C@_09INFLADPO@complete?4@ DB 'complete.', 00H	; `string'
CONST	ENDS
;	COMDAT ??_C@_01LFCBOECM@?4@
CONST	SEGMENT
??_C@_01LFCBOECM@?4@ DB '.', 00H			; `string'
CONST	ENDS
;	COMDAT ??_C@_0BH@FCDBEIN@Reading?5texture?5file?3?5@
CONST	SEGMENT
??_C@_0BH@FCDBEIN@Reading?5texture?5file?3?5@ DB 'Reading texture file: ', 00H ; `string'
CONST	ENDS
;	COMDAT ??_C@_0BH@GPGJMCIO@Writing?5texture?5to?5BMP@
CONST	SEGMENT
??_C@_0BH@GPGJMCIO@Writing?5texture?5to?5BMP@ DB 'Writing texture to BMP', 00H ; `string'
?_Fake_alloc@std@@3U_Fake_allocator@1@B	ORG $+1		; std::_Fake_alloc
PUBLIC	??_E?$basic_ofstream@DU?$char_traits@D@std@@@std@@$4PPPPPPPM@A@EAAPEAXI@Z ; std::basic_ofstream<char,std::char_traits<char> >::`vector deleting destructor'
PUBLIC	??$?6U?$char_traits@D@std@@@std@@YAAEAV?$basic_ostream@DU?$char_traits@D@std@@@0@AEAV10@D@Z ; std::operator<<<std::char_traits<char> >
PUBLIC	??_G?$basic_ofstream@DU?$char_traits@D@std@@@std@@UEAAPEAXI@Z ; std::basic_ofstream<char,std::char_traits<char> >::`scalar deleting destructor'
PUBLIC	??1?$basic_ofstream@DU?$char_traits@D@std@@@std@@UEAA@XZ ; std::basic_ofstream<char,std::char_traits<char> >::~basic_ofstream<char,std::char_traits<char> >
PUBLIC	??0?$basic_ifstream@DU?$char_traits@D@std@@@std@@QEAA@XZ ; std::basic_ifstream<char,std::char_traits<char> >::basic_ifstream<char,std::char_traits<char> >
PUBLIC	?open@?$basic_ifstream@DU?$char_traits@D@std@@@std@@QEAAXPEBDHH@Z ; std::basic_ifstream<char,std::char_traits<char> >::open
PUBLIC	?bWasThereAnOpenGLError@CTextureFromBMP@@QEAA_NAEAIAEAV?$basic_string@DU?$char_traits@D@std@@V?$allocator@D@2@@std@@1@Z ; CTextureFromBMP::bWasThereAnOpenGLError
PUBLIC	?bWasThereAnOpenGLError@CTextureFromBMP@@QEAA_NXZ ; CTextureFromBMP::bWasThereAnOpenGLError
PUBLIC	?ShiftAndAdd_Byte_to_UShort@CTextureFromBMP@@AEAAGGDH@Z ; CTextureFromBMP::ShiftAndAdd_Byte_to_UShort
PUBLIC	?ShiftAndAdd_Byte_to_ULong@CTextureFromBMP@@AEAAKKDH@Z ; CTextureFromBMP::ShiftAndAdd_Byte_to_ULong
PUBLIC	?LoadBMP2@CTextureFromBMP@@QEAA_NV?$basic_string@DU?$char_traits@D@std@@V?$allocator@D@2@@std@@@Z ; CTextureFromBMP::LoadBMP2
PUBLIC	?ReadNextUnsignedLong@CTextureFromBMP@@AEAAKPEADAEAK@Z ; CTextureFromBMP::ReadNextUnsignedLong
PUBLIC	?ReadNextUnsignedShort@CTextureFromBMP@@AEAAGPEADAEAK@Z ; CTextureFromBMP::ReadNextUnsignedShort
PUBLIC	?ReadNextChar@CTextureFromBMP@@AEAADPEADAEAK@Z	; CTextureFromBMP::ReadNextChar
PUBLIC	??_D?$basic_ofstream@DU?$char_traits@D@std@@@std@@QEAAXXZ ; std::basic_ofstream<char,std::char_traits<char> >::`vbase destructor'
PUBLIC	??_EC24BitBMPpixel@@QEAAPEAXI@Z			; C24BitBMPpixel::`vector deleting destructor'
PUBLIC	?ClearBMP@CTextureFromBMP@@QEAA_NXZ		; CTextureFromBMP::ClearBMP
PUBLIC	?getTextureNumber@CTextureFromBMP@@QEAAIXZ	; CTextureFromBMP::getTextureNumber
PUBLIC	?CreateNewCubeTextureFromBMPFiles@CTextureFromBMP@@QEAA_NV?$basic_string@DU?$char_traits@D@std@@V?$allocator@D@2@@std@@000000_NAEAIAEAV23@3@Z ; CTextureFromBMP::CreateNewCubeTextureFromBMPFiles
PUBLIC	?CreateNewTextureFromBMPFile2@CTextureFromBMP@@QEAA_NV?$basic_string@DU?$char_traits@D@std@@V?$allocator@D@2@@std@@0_N@Z ; CTextureFromBMP::CreateNewTextureFromBMPFile2
PUBLIC	??0CTextureFromBMP@@QEAA@XZ			; CTextureFromBMP::CTextureFromBMP
EXTRN	??_E?$basic_ofstream@DU?$char_traits@D@std@@@std@@UEAAPEAXI@Z:PROC ; std::basic_ofstream<char,std::char_traits<char> >::`vector deleting destructor'
;	COMDAT pdata
pdata	SEGMENT
$pdata$??$?6U?$char_traits@D@std@@@std@@YAAEAV?$basic_ostream@DU?$char_traits@D@std@@@0@AEAV10@D@Z DD imagerel $LN144@operator
	DD	imagerel $LN144@operator+463
	DD	imagerel $unwind$??$?6U?$char_traits@D@std@@@std@@YAAEAV?$basic_ostream@DU?$char_traits@D@std@@@0@AEAV10@D@Z
pdata	ENDS
;	COMDAT pdata
pdata	SEGMENT
$pdata$?catch$16@?0???$?6U?$char_traits@D@std@@@std@@YAAEAV?$basic_ostream@DU?$char_traits@D@std@@@0@AEAV10@D@Z@4HA DD imagerel ?catch$16@?0???$?6U?$char_traits@D@std@@@std@@YAAEAV?$basic_ostream@DU?$char_traits@D@std@@@0@AEAV10@D@Z@4HA
	DD	imagerel ?catch$16@?0???$?6U?$char_traits@D@std@@@std@@YAAEAV?$basic_ostream@DU?$char_traits@D@std@@@0@AEAV10@D@Z@4HA+59
	DD	imagerel $unwind$?catch$16@?0???$?6U?$char_traits@D@std@@@std@@YAAEAV?$basic_ostream@DU?$char_traits@D@std@@@0@AEAV10@D@Z@4HA
pdata	ENDS
;	COMDAT pdata
pdata	SEGMENT
$pdata$??_G?$basic_ofstream@DU?$char_traits@D@std@@@std@@UEAAPEAXI@Z DD imagerel $LN9@scalar
	DD	imagerel $LN9@scalar+59
	DD	imagerel $unwind$??_G?$basic_ofstream@DU?$char_traits@D@std@@@std@@UEAAPEAXI@Z
pdata	ENDS
;	COMDAT pdata
pdata	SEGMENT
$pdata$??1?$basic_ofstream@DU?$char_traits@D@std@@@std@@UEAA@XZ DD imagerel $LN27@basic_ofst
	DD	imagerel $LN27@basic_ofst+187
	DD	imagerel $unwind$??1?$basic_ofstream@DU?$char_traits@D@std@@@std@@UEAA@XZ
pdata	ENDS
;	COMDAT pdata
pdata	SEGMENT
$pdata$??0?$basic_ifstream@DU?$char_traits@D@std@@@std@@QEAA@XZ DD imagerel $LN37@basic_ifst
	DD	imagerel $LN37@basic_ifst+201
	DD	imagerel $unwind$??0?$basic_ifstream@DU?$char_traits@D@std@@@std@@QEAA@XZ
pdata	ENDS
;	COMDAT pdata
pdata	SEGMENT
$pdata$?dtor$0@?0???0?$basic_ifstream@DU?$char_traits@D@std@@@std@@QEAA@XZ@4HA DD imagerel ?dtor$0@?0???0?$basic_ifstream@DU?$char_traits@D@std@@@std@@QEAA@XZ@4HA
	DD	imagerel ?dtor$0@?0???0?$basic_ifstream@DU?$char_traits@D@std@@@std@@QEAA@XZ@4HA+46
	DD	imagerel $unwind$?dtor$0@?0???0?$basic_ifstream@DU?$char_traits@D@std@@@std@@QEAA@XZ@4HA
pdata	ENDS
;	COMDAT pdata
pdata	SEGMENT
$pdata$?open@?$basic_ifstream@DU?$char_traits@D@std@@@std@@QEAAXPEBDHH@Z DD imagerel $LN7@open
	DD	imagerel $LN7@open+73
	DD	imagerel $unwind$?open@?$basic_ifstream@DU?$char_traits@D@std@@@std@@QEAAXPEBDHH@Z
pdata	ENDS
;	COMDAT pdata
pdata	SEGMENT
$pdata$?bWasThereAnOpenGLError@CTextureFromBMP@@QEAA_NAEAIAEAV?$basic_string@DU?$char_traits@D@std@@V?$allocator@D@2@@std@@1@Z DD imagerel $LN148@bWasThereA
	DD	imagerel $LN148@bWasThereA+420
	DD	imagerel $unwind$?bWasThereAnOpenGLError@CTextureFromBMP@@QEAA_NAEAIAEAV?$basic_string@DU?$char_traits@D@std@@V?$allocator@D@2@@std@@1@Z
pdata	ENDS
;	COMDAT pdata
pdata	SEGMENT
$pdata$?bWasThereAnOpenGLError@CTextureFromBMP@@QEAA_NXZ DD imagerel $LN123@bWasThereA
	DD	imagerel $LN123@bWasThereA+277
	DD	imagerel $unwind$?bWasThereAnOpenGLError@CTextureFromBMP@@QEAA_NXZ
pdata	ENDS
;	COMDAT pdata
pdata	SEGMENT
$pdata$?LoadBMP2@CTextureFromBMP@@QEAA_NV?$basic_string@DU?$char_traits@D@std@@V?$allocator@D@2@@std@@@Z DD imagerel $LN525@LoadBMP2
	DD	imagerel $LN525@LoadBMP2+2091
	DD	imagerel $unwind$?LoadBMP2@CTextureFromBMP@@QEAA_NV?$basic_string@DU?$char_traits@D@std@@V?$allocator@D@2@@std@@@Z
pdata	ENDS
;	COMDAT pdata
pdata	SEGMENT
$pdata$?dtor$3@?0??LoadBMP2@CTextureFromBMP@@QEAA_NV?$basic_string@DU?$char_traits@D@std@@V?$allocator@D@2@@std@@@Z@4HA DD imagerel ?dtor$3@?0??LoadBMP2@CTextureFromBMP@@QEAA_NV?$basic_string@DU?$char_traits@D@std@@V?$allocator@D@2@@std@@@Z@4HA
	DD	imagerel ?dtor$3@?0??LoadBMP2@CTextureFromBMP@@QEAA_NV?$basic_string@DU?$char_traits@D@std@@V?$allocator@D@2@@std@@@Z@4HA+46
	DD	imagerel $unwind$?dtor$3@?0??LoadBMP2@CTextureFromBMP@@QEAA_NV?$basic_string@DU?$char_traits@D@std@@V?$allocator@D@2@@std@@@Z@4HA
pdata	ENDS
;	COMDAT pdata
pdata	SEGMENT
$pdata$?dtor$2@?0??LoadBMP2@CTextureFromBMP@@QEAA_NV?$basic_string@DU?$char_traits@D@std@@V?$allocator@D@2@@std@@@Z@4HA DD imagerel ?dtor$2@?0??LoadBMP2@CTextureFromBMP@@QEAA_NV?$basic_string@DU?$char_traits@D@std@@V?$allocator@D@2@@std@@@Z@4HA
	DD	imagerel ?dtor$2@?0??LoadBMP2@CTextureFromBMP@@QEAA_NV?$basic_string@DU?$char_traits@D@std@@V?$allocator@D@2@@std@@@Z@4HA+62
	DD	imagerel $unwind$?dtor$2@?0??LoadBMP2@CTextureFromBMP@@QEAA_NV?$basic_string@DU?$char_traits@D@std@@V?$allocator@D@2@@std@@@Z@4HA
pdata	ENDS
;	COMDAT pdata
pdata	SEGMENT
$pdata$?ReadNextUnsignedLong@CTextureFromBMP@@AEAAKPEADAEAK@Z DD imagerel $LN16@ReadNextUn
	DD	imagerel $LN16@ReadNextUn+82
	DD	imagerel $unwind$?ReadNextUnsignedLong@CTextureFromBMP@@AEAAKPEADAEAK@Z
pdata	ENDS
;	COMDAT pdata
pdata	SEGMENT
$pdata$??_D?$basic_ofstream@DU?$char_traits@D@std@@@std@@QEAAXXZ DD imagerel $LN32@vbase
	DD	imagerel $LN32@vbase+190
	DD	imagerel $unwind$??_D?$basic_ofstream@DU?$char_traits@D@std@@@std@@QEAAXXZ
pdata	ENDS
;	COMDAT pdata
pdata	SEGMENT
$pdata$??_EC24BitBMPpixel@@QEAAPEAXI@Z DD imagerel $LN9@vector
	DD	imagerel $LN9@vector+58
	DD	imagerel $unwind$??_EC24BitBMPpixel@@QEAAPEAXI@Z
pdata	ENDS
;	COMDAT pdata
pdata	SEGMENT
$pdata$?ClearBMP@CTextureFromBMP@@QEAA_NXZ DD imagerel $LN16@ClearBMP
	DD	imagerel $LN16@ClearBMP+85
	DD	imagerel $unwind$?ClearBMP@CTextureFromBMP@@QEAA_NXZ
pdata	ENDS
;	COMDAT pdata
pdata	SEGMENT
$pdata$?CreateNewCubeTextureFromBMPFiles@CTextureFromBMP@@QEAA_NV?$basic_string@DU?$char_traits@D@std@@V?$allocator@D@2@@std@@000000_NAEAIAEAV23@3@Z DD imagerel $LN3881@CreateNewC
	DD	imagerel $LN3881@CreateNewC+3432
	DD	imagerel $unwind$?CreateNewCubeTextureFromBMPFiles@CTextureFromBMP@@QEAA_NV?$basic_string@DU?$char_traits@D@std@@V?$allocator@D@2@@std@@000000_NAEAIAEAV23@3@Z
pdata	ENDS
;	COMDAT pdata
pdata	SEGMENT
$pdata$?CreateNewTextureFromBMPFile2@CTextureFromBMP@@QEAA_NV?$basic_string@DU?$char_traits@D@std@@V?$allocator@D@2@@std@@0_N@Z DD imagerel $LN428@CreateNewT
	DD	imagerel $LN428@CreateNewT+838
	DD	imagerel $unwind$?CreateNewTextureFromBMPFile2@CTextureFromBMP@@QEAA_NV?$basic_string@DU?$char_traits@D@std@@V?$allocator@D@2@@std@@0_N@Z
;	COMDAT xdata
xdata	SEGMENT
$ip2state$?CreateNewTextureFromBMPFile2@CTextureFromBMP@@QEAA_NV?$basic_string@DU?$char_traits@D@std@@V?$allocator@D@2@@std@@0_N@Z DQ 00402490262046c0er ; 2.34538e-289
	DQ	05d02d604580603f9r		; 1.12155e+140
	DW	02H
xdata	ENDS
;	COMDAT xdata
xdata	SEGMENT
$stateUnwindMap$?CreateNewTextureFromBMPFile2@CTextureFromBMP@@QEAA_NV?$basic_string@DU?$char_traits@D@std@@V?$allocator@D@2@@std@@0_N@Z DW 0c06H
	DD	imagerel ??1?$basic_string@DU?$char_traits@D@std@@V?$allocator@D@2@@std@@QEAA@XZ
	DW	0201H
	DB	03cH
	DD	imagerel ??1?$basic_string@DU?$char_traits@D@std@@V?$allocator@D@2@@std@@QEAA@XZ
	DW	036f0H
	DD	imagerel __std_terminate
xdata	ENDS
;	COMDAT xdata
xdata	SEGMENT
$cppxdata$?CreateNewTextureFromBMPFile2@CTextureFromBMP@@QEAA_NV?$basic_string@DU?$char_traits@D@std@@V?$allocator@D@2@@std@@0_N@Z DB 028H
	DD	imagerel $stateUnwindMap$?CreateNewTextureFromBMPFile2@CTextureFromBMP@@QEAA_NV?$basic_string@DU?$char_traits@D@std@@V?$allocator@D@2@@std@@0_N@Z
	DD	imagerel $ip2state$?CreateNewTextureFromBMPFile2@CTextureFromBMP@@QEAA_NV?$basic_string@DU?$char_traits@D@std@@V?$allocator@D@2@@std@@0_N@Z
xdata	ENDS
;	COMDAT xdata
xdata	SEGMENT
$unwind$?CreateNewTextureFromBMPFile2@CTextureFromBMP@@QEAA_NV?$basic_string@DU?$char_traits@D@std@@V?$allocator@D@2@@std@@0_N@Z DQ 00014010e00072019r ; 2.78192e-308
	DQ	0500360047005e007r		; 2.80435e+77
	DD	03002H
	DD	imagerel __GSHandlerCheck_EH4
	DD	imagerel $cppxdata$?CreateNewTextureFromBMPFile2@CTextureFromBMP@@QEAA_NV?$basic_string@DU?$char_traits@D@std@@V?$allocator@D@2@@std@@0_N@Z
	DD	092H
xdata	ENDS
;	COMDAT xdata
xdata	SEGMENT
$ip2state$?CreateNewCubeTextureFromBMPFiles@CTextureFromBMP@@QEAA_NV?$basic_string@DU?$char_traits@D@std@@V?$allocator@D@2@@std@@000000_NAEAIAEAV23@3@Z DQ 008690c380e027134r ; 3.79299e-268
	DQ	005a10c03cd0e4200r		; 1.46737e-281
	DQ	01002c90e6a10420er		; 1.51249e-231
	DQ	0b20e04fd0c440e58r		; -1.39186e-67
	DQ	00e5810024d0e5810r		; 1.44346e-239
	DQ	05810c00e02850c4er		; 1.64998e+116
	DQ	010b20e027d0c440er		; 2.97711e-228
	DD	0c440e58H
	DW	0341H
	DB	0eH
xdata	ENDS
;	COMDAT xdata
xdata	SEGMENT
$stateUnwindMap$?CreateNewCubeTextureFromBMPFiles@CTextureFromBMP@@QEAA_NV?$basic_string@DU?$char_traits@D@std@@V?$allocator@D@2@@std@@000000_NAEAIAEAV23@3@Z DW 0c10H
	DD	imagerel ??1?$basic_string@DU?$char_traits@D@std@@V?$allocator@D@2@@std@@QEAA@XZ
	DW	0341H
	DB	03cH
	DD	imagerel ??1?$basic_string@DU?$char_traits@D@std@@V?$allocator@D@2@@std@@QEAA@XZ
	DW	0321H
	DB	03cH
	DD	imagerel ??1?$basic_string@DU?$char_traits@D@std@@V?$allocator@D@2@@std@@QEAA@XZ
	DW	0301H
	DB	03cH
	DD	imagerel ??1?$basic_string@DU?$char_traits@D@std@@V?$allocator@D@2@@std@@QEAA@XZ
	DW	02e1H
	DB	03cH
	DD	imagerel ??1?$basic_string@DU?$char_traits@D@std@@V?$allocator@D@2@@std@@QEAA@XZ
	DW	02c1H
	DB	03cH
	DD	imagerel ??1?$basic_string@DU?$char_traits@D@std@@V?$allocator@D@2@@std@@QEAA@XZ
	DW	02a1H
	DB	03cH
	DD	imagerel ??1?$basic_string@DU?$char_traits@D@std@@V?$allocator@D@2@@std@@QEAA@XZ
	DW	0281H
	DB	03eH
	DD	imagerel __std_terminate
xdata	ENDS
;	COMDAT xdata
xdata	SEGMENT
$cppxdata$?CreateNewCubeTextureFromBMPFiles@CTextureFromBMP@@QEAA_NV?$basic_string@DU?$char_traits@D@std@@V?$allocator@D@2@@std@@000000_NAEAIAEAV23@3@Z DB 028H
	DD	imagerel $stateUnwindMap$?CreateNewCubeTextureFromBMPFiles@CTextureFromBMP@@QEAA_NV?$basic_string@DU?$char_traits@D@std@@V?$allocator@D@2@@std@@000000_NAEAIAEAV23@3@Z
	DD	imagerel $ip2state$?CreateNewCubeTextureFromBMPFiles@CTextureFromBMP@@QEAA_NV?$basic_string@DU?$char_traits@D@std@@V?$allocator@D@2@@std@@000000_NAEAIAEAV23@3@Z
xdata	ENDS
;	COMDAT xdata
xdata	SEGMENT
$unwind$?CreateNewCubeTextureFromBMPFiles@CTextureFromBMP@@QEAA_NV?$basic_string@DU?$char_traits@D@std@@V?$allocator@D@2@@std@@000000_NAEAIAEAV23@3@Z DQ 0001f0119000a2719r ; 4.31168e-308
	DQ	0c007d009e00bf00dr		; -2.97658
	DQ	05002300360047005r		; 2.63247e+77
	DD	imagerel __GSHandlerCheck_EH4
	DD	imagerel $cppxdata$?CreateNewCubeTextureFromBMPFiles@CTextureFromBMP@@QEAA_NV?$basic_string@DU?$char_traits@D@std@@V?$allocator@D@2@@std@@000000_NAEAIAEAV23@3@Z
	DD	0e2H
xdata	ENDS
;	COMDAT xdata
xdata	SEGMENT
$ip2state$?ClearBMP@CTextureFromBMP@@QEAA_NXZ DW 05002H
	DB	02H
xdata	ENDS
;	COMDAT xdata
xdata	SEGMENT
$stateUnwindMap$?ClearBMP@CTextureFromBMP@@QEAA_NXZ DW 0e02H
	DD	imagerel __std_terminate
xdata	ENDS
;	COMDAT xdata
xdata	SEGMENT
$cppxdata$?ClearBMP@CTextureFromBMP@@QEAA_NXZ DB 028H
	DD	imagerel $stateUnwindMap$?ClearBMP@CTextureFromBMP@@QEAA_NXZ
	DD	imagerel $ip2state$?ClearBMP@CTextureFromBMP@@QEAA_NXZ
xdata	ENDS
;	COMDAT xdata
xdata	SEGMENT
$unwind$?ClearBMP@CTextureFromBMP@@QEAA_NXZ DQ 00006340a00040a11r ; 8.62672e-309
	DD	07006320aH
	DD	imagerel __CxxFrameHandler4
	DD	imagerel $cppxdata$?ClearBMP@CTextureFromBMP@@QEAA_NXZ
xdata	ENDS
;	COMDAT xdata
xdata	SEGMENT
$ip2state$??_EC24BitBMPpixel@@QEAAPEAXI@Z DW 03202H
	DB	00H
xdata	ENDS
;	COMDAT xdata
xdata	SEGMENT
$cppxdata$??_EC24BitBMPpixel@@QEAAPEAXI@Z DB 060H
	DD	imagerel $ip2state$??_EC24BitBMPpixel@@QEAAPEAXI@Z
xdata	ENDS
;	COMDAT xdata
xdata	SEGMENT
$unwind$??_EC24BitBMPpixel@@QEAAPEAXI@Z DQ 03002320600020619r ; 1.96423e-77
	DD	imagerel __CxxFrameHandler4
	DD	imagerel $cppxdata$??_EC24BitBMPpixel@@QEAAPEAXI@Z
xdata	ENDS
;	COMDAT xdata
xdata	SEGMENT
$ip2state$??_D?$basic_ofstream@DU?$char_traits@D@std@@@std@@QEAAXXZ DD 02023902H
xdata	ENDS
;	COMDAT xdata
xdata	SEGMENT
$stateUnwindMap$??_D?$basic_ofstream@DU?$char_traits@D@std@@@std@@QEAAXXZ DW 0e02H
	DD	imagerel __std_terminate
xdata	ENDS
;	COMDAT xdata
xdata	SEGMENT
$cppxdata$??_D?$basic_ofstream@DU?$char_traits@D@std@@@std@@QEAAXXZ DB 068H
	DD	imagerel $stateUnwindMap$??_D?$basic_ofstream@DU?$char_traits@D@std@@@std@@QEAAXXZ
	DD	imagerel $ip2state$??_D?$basic_ofstream@DU?$char_traits@D@std@@@std@@QEAAXXZ
xdata	ENDS
;	COMDAT xdata
xdata	SEGMENT
$unwind$??_D?$basic_ofstream@DU?$char_traits@D@std@@@std@@QEAAXXZ DQ 00006340a00040a19r ; 8.62672e-309
	DD	07006320aH
	DD	imagerel __CxxFrameHandler4
	DD	imagerel $cppxdata$??_D?$basic_ofstream@DU?$char_traits@D@std@@@std@@QEAAXXZ
xdata	ENDS
;	COMDAT xdata
xdata	SEGMENT
$unwind$?ReadNextUnsignedLong@CTextureFromBMP@@AEAAKPEADAEAK@Z DQ 00001340500020501r ; 1.67326e-309
xdata	ENDS
;	COMDAT xdata
xdata	SEGMENT
$unwind$?dtor$2@?0??LoadBMP2@CTextureFromBMP@@QEAA_NV?$basic_string@DU?$char_traits@D@std@@V?$allocator@D@2@@std@@@Z@4HA DQ 05002320600020601r ; 2.6336e+77
xdata	ENDS
;	COMDAT xdata
xdata	SEGMENT
$unwind$?dtor$3@?0??LoadBMP2@CTextureFromBMP@@QEAA_NV?$basic_string@DU?$char_traits@D@std@@V?$allocator@D@2@@std@@@Z@4HA DQ 05002320600020601r ; 2.6336e+77
xdata	ENDS
;	COMDAT xdata
xdata	SEGMENT
$ip2state$?LoadBMP2@CTextureFromBMP@@QEAA_NV?$basic_string@DU?$char_traits@D@std@@V?$allocator@D@2@@std@@@Z DQ 09a0668043e02d614r ; -2.63659e-183
	DQ	00908025902026d08r		; 3.72298e-265
	DQ	08d0206b908560a0dr		; -5.15631e-246
	DW	02H
xdata	ENDS
;	COMDAT xdata
xdata	SEGMENT
$stateUnwindMap$?LoadBMP2@CTextureFromBMP@@QEAA_NV?$basic_string@DU?$char_traits@D@std@@V?$allocator@D@2@@std@@@Z DW 0c0aH
	DD	imagerel ??1?$basic_string@DU?$char_traits@D@std@@V?$allocator@D@2@@std@@QEAA@XZ
	DW	0581H
	DB	03eH
	DD	imagerel ?dtor$3@?0??LoadBMP2@CTextureFromBMP@@QEAA_NV?$basic_string@DU?$char_traits@D@std@@V?$allocator@D@2@@std@@@Z@4HA
	DB	02eH
	DD	imagerel ?dtor$4@?0??LoadBMP2@CTextureFromBMP@@QEAA_NV?$basic_string@DU?$char_traits@D@std@@V?$allocator@D@2@@std@@@Z@4HA
	DB	08aH
	DD	imagerel ??_D?$basic_ifstream@DU?$char_traits@D@std@@@std@@QEAAXXZ
	DW	036a0H
	DD	imagerel ?dtor$2@?0??LoadBMP2@CTextureFromBMP@@QEAA_NV?$basic_string@DU?$char_traits@D@std@@V?$allocator@D@2@@std@@@Z@4HA
xdata	ENDS
;	COMDAT xdata
xdata	SEGMENT
$cppxdata$?LoadBMP2@CTextureFromBMP@@QEAA_NV?$basic_string@DU?$char_traits@D@std@@V?$allocator@D@2@@std@@@Z DB 028H
	DD	imagerel $stateUnwindMap$?LoadBMP2@CTextureFromBMP@@QEAA_NV?$basic_string@DU?$char_traits@D@std@@V?$allocator@D@2@@std@@@Z
	DD	imagerel $ip2state$?LoadBMP2@CTextureFromBMP@@QEAA_NV?$basic_string@DU?$char_traits@D@std@@V?$allocator@D@2@@std@@@Z
xdata	ENDS
;	COMDAT xdata
xdata	SEGMENT
$unwind$?LoadBMP2@CTextureFromBMP@@QEAA_NV?$basic_string@DU?$char_traits@D@std@@V?$allocator@D@2@@std@@@Z DQ 000197828000f3919r ; 3.54195e-308
	DQ	000403420001a6824r		; 1.80271e-307
	DQ	0e010f01200360120r		; -5.67746e+154
	DQ	06009700ac00cd00er		; 4.26329e+154
	DD	05008H
	DD	imagerel __GSHandlerCheck_EH4
	DD	imagerel $cppxdata$?LoadBMP2@CTextureFromBMP@@QEAA_NV?$basic_string@DU?$char_traits@D@std@@V?$allocator@D@2@@std@@@Z
	DD	0182H
xdata	ENDS
;	COMDAT xdata
xdata	SEGMENT
$ip2state$?bWasThereAnOpenGLError@CTextureFromBMP@@QEAA_NXZ DD 09904b804H
	DW	02H
xdata	ENDS
;	COMDAT xdata
xdata	SEGMENT
$stateUnwindMap$?bWasThereAnOpenGLError@CTextureFromBMP@@QEAA_NXZ DW 0a04H
	DD	imagerel ??1?$basic_string@DU?$char_traits@D@std@@V?$allocator@D@2@@std@@QEAA@XZ
	DW	03290H
	DD	imagerel ??1?$basic_string@DU?$char_traits@D@std@@V?$allocator@D@2@@std@@QEAA@XZ
	DB	050H
xdata	ENDS
;	COMDAT xdata
xdata	SEGMENT
$cppxdata$?bWasThereAnOpenGLError@CTextureFromBMP@@QEAA_NXZ DB 028H
	DD	imagerel $stateUnwindMap$?bWasThereAnOpenGLError@CTextureFromBMP@@QEAA_NXZ
	DD	imagerel $ip2state$?bWasThereAnOpenGLError@CTextureFromBMP@@QEAA_NXZ
xdata	ENDS
;	COMDAT xdata
xdata	SEGMENT
$unwind$?bWasThereAnOpenGLError@CTextureFromBMP@@QEAA_NXZ DQ 00010340c00041b19r ; 2.25335e-308
	DD	07008d20cH
	DD	imagerel __GSHandlerCheck_EH4
	DD	imagerel $cppxdata$?bWasThereAnOpenGLError@CTextureFromBMP@@QEAA_NXZ
	DD	06aH
xdata	ENDS
;	COMDAT xdata
xdata	SEGMENT
$unwind$?bWasThereAnOpenGLError@CTextureFromBMP@@QEAA_NAEAIAEAV?$basic_string@DU?$char_traits@D@std@@V?$allocator@D@2@@std@@1@Z DQ 00008641400081401r ; 1.1669e-308
	DQ	00006341400075414r		; 8.62693e-309
	DD	070103214H
xdata	ENDS
;	COMDAT xdata
xdata	SEGMENT
$unwind$?open@?$basic_ifstream@DU?$char_traits@D@std@@@std@@QEAAXPEBDHH@Z DQ 03002320600020601r ; 1.96423e-77
xdata	ENDS
;	COMDAT xdata
xdata	SEGMENT
$unwind$?dtor$0@?0???0?$basic_ifstream@DU?$char_traits@D@std@@@std@@QEAA@XZ@4HA DQ 05002320600020601r ; 2.6336e+77
xdata	ENDS
;	COMDAT xdata
xdata	SEGMENT
$ip2state$??0?$basic_ifstream@DU?$char_traits@D@std@@@std@@QEAA@XZ DD 03e005606H
	DW	06402H
	DB	04H
xdata	ENDS
;	COMDAT xdata
xdata	SEGMENT
$stateUnwindMap$??0?$basic_ifstream@DU?$char_traits@D@std@@@std@@QEAA@XZ DW 0e04H
	DD	imagerel ?dtor$0@?0???0?$basic_ifstream@DU?$char_traits@D@std@@@std@@QEAA@XZ@4HA
	DB	02eH
	DD	imagerel ?dtor$1@?0???0?$basic_ifstream@DU?$char_traits@D@std@@@std@@QEAA@XZ@4HA
xdata	ENDS
;	COMDAT xdata
xdata	SEGMENT
$cppxdata$??0?$basic_ifstream@DU?$char_traits@D@std@@@std@@QEAA@XZ DB 028H
	DD	imagerel $stateUnwindMap$??0?$basic_ifstream@DU?$char_traits@D@std@@@std@@QEAA@XZ
	DD	imagerel $ip2state$??0?$basic_ifstream@DU?$char_traits@D@std@@@std@@QEAA@XZ
xdata	ENDS
;	COMDAT xdata
xdata	SEGMENT
$unwind$??0?$basic_ifstream@DU?$char_traits@D@std@@@std@@QEAA@XZ DQ 0000d340a00040a11r ; 1.83614e-308
	DD	07006920aH
	DD	imagerel __CxxFrameHandler4
	DD	imagerel $cppxdata$??0?$basic_ifstream@DU?$char_traits@D@std@@@std@@QEAA@XZ
xdata	ENDS
;	COMDAT xdata
xdata	SEGMENT
$ip2state$??1?$basic_ofstream@DU?$char_traits@D@std@@@std@@UEAA@XZ DD 02025102H
xdata	ENDS
;	COMDAT xdata
xdata	SEGMENT
$stateUnwindMap$??1?$basic_ofstream@DU?$char_traits@D@std@@@std@@UEAA@XZ DW 0e02H
	DD	imagerel __std_terminate
xdata	ENDS
;	COMDAT xdata
xdata	SEGMENT
$cppxdata$??1?$basic_ofstream@DU?$char_traits@D@std@@@std@@UEAA@XZ DB 068H
	DD	imagerel $stateUnwindMap$??1?$basic_ofstream@DU?$char_traits@D@std@@@std@@UEAA@XZ
	DD	imagerel $ip2state$??1?$basic_ofstream@DU?$char_traits@D@std@@@std@@UEAA@XZ
xdata	ENDS
;	COMDAT xdata
xdata	SEGMENT
$unwind$??1?$basic_ofstream@DU?$char_traits@D@std@@@std@@UEAA@XZ DQ 00006340a00040a19r ; 8.62672e-309
	DD	07006320aH
	DD	imagerel __CxxFrameHandler4
	DD	imagerel $cppxdata$??1?$basic_ofstream@DU?$char_traits@D@std@@@std@@UEAA@XZ
xdata	ENDS
;	COMDAT xdata
xdata	SEGMENT
$unwind$??_G?$basic_ofstream@DU?$char_traits@D@std@@@std@@UEAAPEAXI@Z DQ 00006340a00040a01r ; 8.62672e-309
	DD	07006320aH
xdata	ENDS
;	COMDAT xdata
xdata	SEGMENT
$unwind$?catch$16@?0???$?6U?$char_traits@D@std@@@std@@YAAEAV?$basic_ostream@DU?$char_traits@D@std@@@0@AEAV10@D@Z@4HA DQ 05006320a00020a01r ; 3.21257e+77
xdata	ENDS
;	COMDAT xdata
xdata	SEGMENT
$ip2state$??$?6U?$char_traits@D@std@@@std@@YAAEAV?$basic_ostream@DU?$char_traits@D@std@@@0@AEAV10@D@Z DQ 0f006de025c00820cr ; -4.43772e+231
	DD	050006c04H
	DB	0aH
xdata	ENDS
;	COMDAT xdata
xdata	SEGMENT
$handlerMap$??$?6U?$char_traits@D@std@@@std@@YAAEAV?$basic_ostream@DU?$char_traits@D@std@@@0@AEAV10@D@Z DW 01102H
	DB	080H
	DD	imagerel ?catch$16@?0???$?6U?$char_traits@D@std@@@std@@YAAEAV?$basic_ostream@DU?$char_traits@D@std@@@0@AEAV10@D@Z@4HA
	DW	0561H
xdata	ENDS
;	COMDAT xdata
xdata	SEGMENT
$tryMap$??$?6U?$char_traits@D@std@@@std@@YAAEAV?$basic_ostream@DU?$char_traits@D@std@@@0@AEAV10@D@Z DD 06040402H
	DD	imagerel $handlerMap$??$?6U?$char_traits@D@std@@@std@@YAAEAV?$basic_ostream@DU?$char_traits@D@std@@@0@AEAV10@D@Z
xdata	ENDS
;	COMDAT xdata
xdata	SEGMENT
$stateUnwindMap$??$?6U?$char_traits@D@std@@@std@@YAAEAV?$basic_ostream@DU?$char_traits@D@std@@@0@AEAV10@D@Z DW 0a0aH
	DD	imagerel ??1_Sentry_base@?$basic_ostream@DU?$char_traits@D@std@@@std@@QEAA@XZ
	DW	03a40H
	DD	imagerel ??1sentry@?$basic_ostream@DU?$char_traits@D@std@@@std@@QEAA@XZ
	DD	07e383040H
	DD	imagerel __std_terminate
xdata	ENDS
;	COMDAT xdata
xdata	SEGMENT
$cppxdata$??$?6U?$char_traits@D@std@@@std@@YAAEAV?$basic_ostream@DU?$char_traits@D@std@@@0@AEAV10@D@Z DB 038H
	DD	imagerel $stateUnwindMap$??$?6U?$char_traits@D@std@@@std@@YAAEAV?$basic_ostream@DU?$char_traits@D@std@@@0@AEAV10@D@Z
	DD	imagerel $tryMap$??$?6U?$char_traits@D@std@@@std@@YAAEAV?$basic_ostream@DU?$char_traits@D@std@@@0@AEAV10@D@Z
	DD	imagerel $ip2state$??$?6U?$char_traits@D@std@@@std@@YAAEAV?$basic_ostream@DU?$char_traits@D@std@@@0@AEAV10@D@Z
xdata	ENDS
;	COMDAT xdata
xdata	SEGMENT
$unwind$??$?6U?$char_traits@D@std@@@std@@YAAEAV?$basic_ostream@DU?$char_traits@D@std@@@0@AEAV10@D@Z DQ 0000d641800081819r ; 1.86225e-308
	DQ	0f0145218000b3418r		; -7.88706e+231
	DD	07010e012H
	DD	imagerel __CxxFrameHandler4
	DD	imagerel $cppxdata$??$?6U?$char_traits@D@std@@@std@@YAAEAV?$basic_ostream@DU?$char_traits@D@std@@@0@AEAV10@D@Z
END
