; Listing generated by Microsoft (R) Optimizing Compiler Version 19.43.34808.0 

include listing.inc

INCLUDELIB OLDNAMES

PUBLIC	??_C@_0M@OHDEFEAH@Total?5now?3?5@		; `string'
PUBLIC	??_C@_0BG@BBKNOMOH@invalid?5map?$DMK?0?5T?$DO?5key@ ; `string'
PUBLIC	?g_Locked@@3JA					; g_Locked
PUBLIC	?g_Total@@3_JA					; g_Total
PUBLIC	?cVAOManager_LoadAsyncModels_Countdown@@3HA	; cVAOManager_LoadAsyncModels_Countdown
PUBLIC	?cVAOManager_CS_ModelMapLock@@3U_RTL_CRITICAL_SECTION@@A ; cVAOManager_CS_ModelMapLock
EXTRN	__imp_??6?$basic_ostream@DU?$char_traits@D@std@@@std@@QEAAAEAV01@_J@Z:PROC
EXTRN	__imp_DeleteCriticalSection:PROC
EXTRN	__imp_Sleep:PROC
EXTRN	__imp_LeaveCriticalSection:PROC
EXTRN	__imp_EnterCriticalSection:PROC
	ALIGN	8

?g_Total@@3_JA DQ 01H DUP (?)				; g_Total
?cVAOManager_LoadAsyncModels_Countdown@@3HA DD 01H DUP (?) ; cVAOManager_LoadAsyncModels_Countdown
?cVAOManager_CS_ModelMapLock@@3U_RTL_CRITICAL_SECTION@@A DB 028H DUP (?) ; cVAOManager_CS_ModelMapLock
_BSS	ENDS
;	COMDAT ??_C@_0BG@BBKNOMOH@invalid?5map?$DMK?0?5T?$DO?5key@
CONST	SEGMENT
??_C@_0BG@BBKNOMOH@invalid?5map?$DMK?0?5T?$DO?5key@ DB 'invalid map<K, T>'
	DB	' key', 00H					; `string'
CONST	ENDS
;	COMDAT ??_C@_0M@OHDEFEAH@Total?5now?3?5@
CONST	SEGMENT
??_C@_0M@OHDEFEAH@Total?5now?3?5@ DB 'Total now: ', 00H	; `string'
	ORG $+1
?g_Locked@@3JA DD 01c73H				; g_Locked
?_Fake_alloc@std@@3U_Fake_allocator@1@B	ORG $+1		; std::_Fake_alloc
?piecewise_construct@std@@3Upiecewise_construct_t@1@B	ORG $+1 ; std::piecewise_construct
PUBLIC	?_Min@?$_Tree_val@U?$_Tree_simple_types@U?$pair@$$CBV?$basic_string@DU?$char_traits@D@std@@V?$allocator@D@2@@std@@UsModelDrawInfo@@@std@@@std@@@std@@SAPEAU?$_Tree_node@U?$pair@$$CBV?$basic_string@DU?$char_traits@D@std@@V?$allocator@D@2@@std@@UsModelDrawInfo@@@std@@PEAX@2@PEAU32@@Z ; std::_Tree_val<std::_Tree_simple_types<std::pair<std::basic_string<char,std::char_traits<char>,std::allocator<char> > const ,sModelDrawInfo> > >::_Min
PUBLIC	??E?$_Tree_unchecked_const_iterator@V?$_Tree_val@U?$_Tree_simple_types@U?$pair@$$CBV?$basic_string@DU?$char_traits@D@std@@V?$allocator@D@2@@std@@UsModelDrawInfo@@@std@@@std@@@std@@U_Iterator_base0@2@@std@@QEAAAEAV01@XZ ; std::_Tree_unchecked_const_iterator<std::_Tree_val<std::_Tree_simple_types<std::pair<std::basic_string<char,std::char_traits<char>,std::allocator<char> > const ,sModelDrawInfo> > >,std::_Iterator_base0>::operator++
PUBLIC	??E?$_Tree_const_iterator@V?$_Tree_val@U?$_Tree_simple_types@U?$pair@$$CBV?$basic_string@DU?$char_traits@D@std@@V?$allocator@D@2@@std@@UsModelDrawInfo@@@std@@@std@@@std@@@std@@QEAAAEAV01@XZ ; std::_Tree_const_iterator<std::_Tree_val<std::_Tree_simple_types<std::pair<std::basic_string<char,std::char_traits<char>,std::allocator<char> > const ,sModelDrawInfo> > > >::operator++
PUBLIC	?begin@?$_Tree@V?$_Tmap_traits@V?$basic_string@DU?$char_traits@D@std@@V?$allocator@D@2@@std@@UsModelDrawInfo@@U?$less@V?$basic_string@DU?$char_traits@D@std@@V?$allocator@D@2@@std@@@2@V?$allocator@U?$pair@$$CBV?$basic_string@DU?$char_traits@D@std@@V?$allocator@D@2@@std@@UsModelDrawInfo@@@std@@@2@$0A@@std@@@std@@QEAA?AV?$_Tree_iterator@V?$_Tree_val@U?$_Tree_simple_types@U?$pair@$$CBV?$basic_string@DU?$char_traits@D@std@@V?$allocator@D@2@@std@@UsModelDrawInfo@@@std@@@std@@@std@@@2@XZ ; std::_Tree<std::_Tmap_traits<std::basic_string<char,std::char_traits<char>,std::allocator<char> >,sModelDrawInfo,std::less<std::basic_string<char,std::char_traits<char>,std::allocator<char> > >,std::allocator<std::pair<std::basic_string<char,std::char_traits<char>,std::allocator<char> > const ,sModelDrawInfo> >,0> >::begin
PUBLIC	?at@?$map@V?$basic_string@DU?$char_traits@D@std@@V?$allocator@D@2@@std@@UsModelDrawInfo@@U?$less@V?$basic_string@DU?$char_traits@D@std@@V?$allocator@D@2@@std@@@2@V?$allocator@U?$pair@$$CBV?$basic_string@DU?$char_traits@D@std@@V?$allocator@D@2@@std@@UsModelDrawInfo@@@std@@@2@@std@@QEAAAEAUsModelDrawInfo@@AEBV?$basic_string@DU?$char_traits@D@std@@V?$allocator@D@2@@2@@Z ; std::map<std::basic_string<char,std::char_traits<char>,std::allocator<char> >,sModelDrawInfo,std::less<std::basic_string<char,std::char_traits<char>,std::allocator<char> > >,std::allocator<std::pair<std::basic_string<char,std::char_traits<char>,std::allocator<char> > const ,sModelDrawInfo> > >::at
PUBLIC	??9?$_Tree_const_iterator@V?$_Tree_val@U?$_Tree_simple_types@U?$pair@$$CBV?$basic_string@DU?$char_traits@D@std@@V?$allocator@D@2@@std@@UsModelDrawInfo@@@std@@@std@@@std@@@std@@QEBA_NAEBV01@@Z ; std::_Tree_const_iterator<std::_Tree_val<std::_Tree_simple_types<std::pair<std::basic_string<char,std::char_traits<char>,std::allocator<char> > const ,sModelDrawInfo> > > >::operator!=
PUBLIC	??E?$_Tree_iterator@V?$_Tree_val@U?$_Tree_simple_types@U?$pair@$$CBV?$basic_string@DU?$char_traits@D@std@@V?$allocator@D@2@@std@@UsModelDrawInfo@@@std@@@std@@@std@@@std@@QEAA?AV01@H@Z ; std::_Tree_iterator<std::_Tree_val<std::_Tree_simple_types<std::pair<std::basic_string<char,std::char_traits<char>,std::allocator<char> > const ,sModelDrawInfo> > > >::operator++
PUBLIC	?LoadAsynModels@cVAOManager@@QEAAXI@Z		; cVAOManager::LoadAsynModels
PUBLIC	?threadProcLoadPlyFile@@YAKPEAX@Z		; threadProcLoadPlyFile
PUBLIC	??0sAsyncPLYLoaderInfo@@QEAA@XZ			; sAsyncPLYLoaderInfo::sAsyncPLYLoaderInfo
PUBLIC	?m_UnlockModelMap@cVAOManager@@AEAAXXZ		; cVAOManager::m_UnlockModelMap
PUBLIC	?m_LockModelMap@cVAOManager@@AEAAXXZ		; cVAOManager::m_LockModelMap
PUBLIC	?m_InitThead_and_CS@cVAOManager@@AEAAXXZ	; cVAOManager::m_InitThead_and_CS
PUBLIC	?cVAOManager_ThreadControl@@3UsAsyncPLYLoaderInfo@@A ; cVAOManager_ThreadControl
;	COMDAT pdata
pdata	SEGMENT
$pdata$?at@?$map@V?$basic_string@DU?$char_traits@D@std@@V?$allocator@D@2@@std@@UsModelDrawInfo@@U?$less@V?$basic_string@DU?$char_traits@D@std@@V?$allocator@D@2@@std@@@2@V?$allocator@U?$pair@$$CBV?$basic_string@DU?$char_traits@D@std@@V?$allocator@D@2@@std@@UsModelDrawInfo@@@std@@@2@@std@@QEAAAEAUsModelDrawInfo@@AEBV?$basic_string@DU?$char_traits@D@std@@V?$allocator@D@2@@2@@Z DD imagerel $LN63@at
	DD	imagerel $LN63@at+15
	DD	imagerel $unwind$?at@?$map@V?$basic_string@DU?$char_traits@D@std@@V?$allocator@D@2@@std@@UsModelDrawInfo@@U?$less@V?$basic_string@DU?$char_traits@D@std@@V?$allocator@D@2@@std@@@2@V?$allocator@U?$pair@$$CBV?$basic_string@DU?$char_traits@D@std@@V?$allocator@D@2@@std@@UsModelDrawInfo@@@std@@@2@@std@@QEAAAEAUsModelDrawInfo@@AEBV?$basic_string@DU?$char_traits@D@std@@V?$allocator@D@2@@2@@Z
pdata	ENDS
;	COMDAT pdata
pdata	SEGMENT
$pdata$0$?at@?$map@V?$basic_string@DU?$char_traits@D@std@@V?$allocator@D@2@@std@@UsModelDrawInfo@@U?$less@V?$basic_string@DU?$char_traits@D@std@@V?$allocator@D@2@@std@@@2@V?$allocator@U?$pair@$$CBV?$basic_string@DU?$char_traits@D@std@@V?$allocator@D@2@@std@@UsModelDrawInfo@@@std@@@2@@std@@QEAAAEAUsModelDrawInfo@@AEBV?$basic_string@DU?$char_traits@D@std@@V?$allocator@D@2@@2@@Z DD imagerel $LN63@at+15
	DD	imagerel $LN63@at+33
	DD	imagerel $chain$0$?at@?$map@V?$basic_string@DU?$char_traits@D@std@@V?$allocator@D@2@@std@@UsModelDrawInfo@@U?$less@V?$basic_string@DU?$char_traits@D@std@@V?$allocator@D@2@@std@@@2@V?$allocator@U?$pair@$$CBV?$basic_string@DU?$char_traits@D@std@@V?$allocator@D@2@@std@@UsModelDrawInfo@@@std@@@2@@std@@QEAAAEAUsModelDrawInfo@@AEBV?$basic_string@DU?$char_traits@D@std@@V?$allocator@D@2@@2@@Z
pdata	ENDS
;	COMDAT pdata
pdata	SEGMENT
$pdata$3$?at@?$map@V?$basic_string@DU?$char_traits@D@std@@V?$allocator@D@2@@std@@UsModelDrawInfo@@U?$less@V?$basic_string@DU?$char_traits@D@std@@V?$allocator@D@2@@std@@@2@V?$allocator@U?$pair@$$CBV?$basic_string@DU?$char_traits@D@std@@V?$allocator@D@2@@std@@UsModelDrawInfo@@@std@@@2@@std@@QEAAAEAUsModelDrawInfo@@AEBV?$basic_string@DU?$char_traits@D@std@@V?$allocator@D@2@@2@@Z DD imagerel $LN63@at+33
	DD	imagerel $LN63@at+143
	DD	imagerel $chain$3$?at@?$map@V?$basic_string@DU?$char_traits@D@std@@V?$allocator@D@2@@std@@UsModelDrawInfo@@U?$less@V?$basic_string@DU?$char_traits@D@std@@V?$allocator@D@2@@std@@@2@V?$allocator@U?$pair@$$CBV?$basic_string@DU?$char_traits@D@std@@V?$allocator@D@2@@std@@UsModelDrawInfo@@@std@@@2@@std@@QEAAAEAUsModelDrawInfo@@AEBV?$basic_string@DU?$char_traits@D@std@@V?$allocator@D@2@@2@@Z
pdata	ENDS
;	COMDAT pdata
pdata	SEGMENT
$pdata$4$?at@?$map@V?$basic_string@DU?$char_traits@D@std@@V?$allocator@D@2@@std@@UsModelDrawInfo@@U?$less@V?$basic_string@DU?$char_traits@D@std@@V?$allocator@D@2@@std@@@2@V?$allocator@U?$pair@$$CBV?$basic_string@DU?$char_traits@D@std@@V?$allocator@D@2@@std@@UsModelDrawInfo@@@std@@@2@@std@@QEAAAEAUsModelDrawInfo@@AEBV?$basic_string@DU?$char_traits@D@std@@V?$allocator@D@2@@2@@Z DD imagerel $LN63@at+143
	DD	imagerel $LN63@at+154
	DD	imagerel $chain$4$?at@?$map@V?$basic_string@DU?$char_traits@D@std@@V?$allocator@D@2@@std@@UsModelDrawInfo@@U?$less@V?$basic_string@DU?$char_traits@D@std@@V?$allocator@D@2@@std@@@2@V?$allocator@U?$pair@$$CBV?$basic_string@DU?$char_traits@D@std@@V?$allocator@D@2@@std@@UsModelDrawInfo@@@std@@@2@@std@@QEAAAEAUsModelDrawInfo@@AEBV?$basic_string@DU?$char_traits@D@std@@V?$allocator@D@2@@2@@Z
pdata	ENDS
;	COMDAT pdata
pdata	SEGMENT
$pdata$5$?at@?$map@V?$basic_string@DU?$char_traits@D@std@@V?$allocator@D@2@@std@@UsModelDrawInfo@@U?$less@V?$basic_string@DU?$char_traits@D@std@@V?$allocator@D@2@@std@@@2@V?$allocator@U?$pair@$$CBV?$basic_string@DU?$char_traits@D@std@@V?$allocator@D@2@@std@@UsModelDrawInfo@@@std@@@2@@std@@QEAAAEAUsModelDrawInfo@@AEBV?$basic_string@DU?$char_traits@D@std@@V?$allocator@D@2@@2@@Z DD imagerel $LN63@at+154
	DD	imagerel $LN63@at+186
	DD	imagerel $chain$5$?at@?$map@V?$basic_string@DU?$char_traits@D@std@@V?$allocator@D@2@@std@@UsModelDrawInfo@@U?$less@V?$basic_string@DU?$char_traits@D@std@@V?$allocator@D@2@@std@@@2@V?$allocator@U?$pair@$$CBV?$basic_string@DU?$char_traits@D@std@@V?$allocator@D@2@@std@@UsModelDrawInfo@@@std@@@2@@std@@QEAAAEAUsModelDrawInfo@@AEBV?$basic_string@DU?$char_traits@D@std@@V?$allocator@D@2@@2@@Z
pdata	ENDS
;	COMDAT pdata
pdata	SEGMENT
$pdata$6$?at@?$map@V?$basic_string@DU?$char_traits@D@std@@V?$allocator@D@2@@std@@UsModelDrawInfo@@U?$less@V?$basic_string@DU?$char_traits@D@std@@V?$allocator@D@2@@std@@@2@V?$allocator@U?$pair@$$CBV?$basic_string@DU?$char_traits@D@std@@V?$allocator@D@2@@std@@UsModelDrawInfo@@@std@@@2@@std@@QEAAAEAUsModelDrawInfo@@AEBV?$basic_string@DU?$char_traits@D@std@@V?$allocator@D@2@@2@@Z DD imagerel $LN63@at+186
	DD	imagerel $LN63@at+197
	DD	imagerel $chain$6$?at@?$map@V?$basic_string@DU?$char_traits@D@std@@V?$allocator@D@2@@std@@UsModelDrawInfo@@U?$less@V?$basic_string@DU?$char_traits@D@std@@V?$allocator@D@2@@std@@@2@V?$allocator@U?$pair@$$CBV?$basic_string@DU?$char_traits@D@std@@V?$allocator@D@2@@std@@UsModelDrawInfo@@@std@@@2@@std@@QEAAAEAUsModelDrawInfo@@AEBV?$basic_string@DU?$char_traits@D@std@@V?$allocator@D@2@@2@@Z
pdata	ENDS
;	COMDAT pdata
pdata	SEGMENT
$pdata$7$?at@?$map@V?$basic_string@DU?$char_traits@D@std@@V?$allocator@D@2@@std@@UsModelDrawInfo@@U?$less@V?$basic_string@DU?$char_traits@D@std@@V?$allocator@D@2@@std@@@2@V?$allocator@U?$pair@$$CBV?$basic_string@DU?$char_traits@D@std@@V?$allocator@D@2@@std@@UsModelDrawInfo@@@std@@@2@@std@@QEAAAEAUsModelDrawInfo@@AEBV?$basic_string@DU?$char_traits@D@std@@V?$allocator@D@2@@2@@Z DD imagerel $LN63@at+197
	DD	imagerel $LN63@at+211
	DD	imagerel $chain$7$?at@?$map@V?$basic_string@DU?$char_traits@D@std@@V?$allocator@D@2@@std@@UsModelDrawInfo@@U?$less@V?$basic_string@DU?$char_traits@D@std@@V?$allocator@D@2@@std@@@2@V?$allocator@U?$pair@$$CBV?$basic_string@DU?$char_traits@D@std@@V?$allocator@D@2@@std@@UsModelDrawInfo@@@std@@@2@@std@@QEAAAEAUsModelDrawInfo@@AEBV?$basic_string@DU?$char_traits@D@std@@V?$allocator@D@2@@2@@Z
pdata	ENDS
;	COMDAT pdata
pdata	SEGMENT
$pdata$?LoadAsynModels@cVAOManager@@QEAAXI@Z DD imagerel $LN199@LoadAsynMo
	DD	imagerel $LN199@LoadAsynMo+669
	DD	imagerel $unwind$?LoadAsynModels@cVAOManager@@QEAAXI@Z
pdata	ENDS
;	COMDAT pdata
pdata	SEGMENT
$pdata$?threadProcLoadPlyFile@@YAKPEAX@Z DD imagerel $LN253@threadProc
	DD	imagerel $LN253@threadProc+1064
	DD	imagerel $unwind$?threadProcLoadPlyFile@@YAKPEAX@Z
pdata	ENDS
;	COMDAT pdata
pdata	SEGMENT
$pdata$?m_InitThead_and_CS@cVAOManager@@AEAAXXZ DD imagerel $LN4@m_InitThea
	DD	imagerel $LN4@m_InitThea+98
	DD	imagerel $unwind$?m_InitThead_and_CS@cVAOManager@@AEAAXXZ
?cVAOManager_ThreadControl@@3UsAsyncPLYLoaderInfo@@A DQ 00000006400000000r ; 2.122e-312 ; cVAOManager_ThreadControl
	DQ	00000000000000000r		; 0
	DQ	00000000000000000r		; 0
	DQ	00000000000000000r		; 0
	DQ	00000000000000000r		; 0
	DQ	00000000000000000r		; 0
_DATA	ENDS
;	COMDAT xdata
xdata	SEGMENT
$unwind$?m_InitThead_and_CS@cVAOManager@@AEAAXXZ DQ 03002520600020601r ; 1.97773e-77
xdata	ENDS
;	COMDAT xdata
xdata	SEGMENT
$ip2state$?threadProcLoadPlyFile@@YAKPEAX@Z DD 02073504H
	DW	082dH
	DB	00H
xdata	ENDS
;	COMDAT xdata
xdata	SEGMENT
$stateUnwindMap$?threadProcLoadPlyFile@@YAKPEAX@Z DW 0a02H
	DD	imagerel ??1sModelDrawInfo@@QEAA@XZ
	DB	080H
xdata	ENDS
;	COMDAT xdata
xdata	SEGMENT
$cppxdata$?threadProcLoadPlyFile@@YAKPEAX@Z DB 028H
	DD	imagerel $stateUnwindMap$?threadProcLoadPlyFile@@YAKPEAX@Z
	DD	imagerel $ip2state$?threadProcLoadPlyFile@@YAKPEAX@Z
xdata	ENDS
;	COMDAT xdata
xdata	SEGMENT
$unwind$?threadProcLoadPlyFile@@YAKPEAX@Z DQ 0000e6827000f3519r ; 2.00352e-308
	DQ	00026642300277423r		; 6.22775e-308
	DQ	0001e012300253423r		; 4.17263e-308
	DQ	0c012d014e016f018r		; -4.7032
	DD	05010H
	DD	imagerel __GSHandlerCheck_EH4
	DD	imagerel $cppxdata$?threadProcLoadPlyFile@@YAKPEAX@Z
	DD	0d2H
xdata	ENDS
;	COMDAT xdata
xdata	SEGMENT
$ip2state$?LoadAsynModels@cVAOManager@@QEAAXI@Z DD 0206e504H
	DW	02e9H
	DB	00H
xdata	ENDS
;	COMDAT xdata
xdata	SEGMENT
$stateUnwindMap$?LoadAsynModels@cVAOManager@@QEAAXI@Z DW 0a02H
	DD	imagerel ??1sModelDrawInfo@@QEAA@XZ
	DB	040H
xdata	ENDS
;	COMDAT xdata
xdata	SEGMENT
$cppxdata$?LoadAsynModels@cVAOManager@@QEAAXI@Z DB 028H
	DD	imagerel $stateUnwindMap$?LoadAsynModels@cVAOManager@@QEAAXI@Z
	DD	imagerel $ip2state$?LoadAsynModels@cVAOManager@@QEAAXI@Z
xdata	ENDS
;	COMDAT xdata
xdata	SEGMENT
$unwind$?LoadAsynModels@cVAOManager@@QEAAXI@Z DQ 0001d741c00092a19r ; 4.09602e-308
	DQ	0001a341c001c641cr		; 3.64405e-308
	DQ	0000050100018011cr		; 4.34924e-310
	DD	imagerel __GSHandlerCheck_EH4
	DD	imagerel $cppxdata$?LoadAsynModels@cVAOManager@@QEAAXI@Z
	DD	0b2H
xdata	ENDS
;	COMDAT xdata
xdata	SEGMENT
$chain$7$?at@?$map@V?$basic_string@DU?$char_traits@D@std@@V?$allocator@D@2@@std@@UsModelDrawInfo@@U?$less@V?$basic_string@DU?$char_traits@D@std@@V?$allocator@D@2@@std@@@2@V?$allocator@U?$pair@$$CBV?$basic_string@DU?$char_traits@D@std@@V?$allocator@D@2@@std@@UsModelDrawInfo@@@std@@@2@@std@@QEAAAEAUsModelDrawInfo@@AEBV?$basic_string@DU?$char_traits@D@std@@V?$allocator@D@2@@2@@Z DD 021H
	DD	imagerel $LN63@at
	DD	imagerel $LN63@at+15
	DD	imagerel $unwind$?at@?$map@V?$basic_string@DU?$char_traits@D@std@@V?$allocator@D@2@@std@@UsModelDrawInfo@@U?$less@V?$basic_string@DU?$char_traits@D@std@@V?$allocator@D@2@@std@@@2@V?$allocator@U?$pair@$$CBV?$basic_string@DU?$char_traits@D@std@@V?$allocator@D@2@@std@@UsModelDrawInfo@@@std@@@2@@std@@QEAAAEAUsModelDrawInfo@@AEBV?$basic_string@DU?$char_traits@D@std@@V?$allocator@D@2@@2@@Z
xdata	ENDS
;	COMDAT xdata
xdata	SEGMENT
$chain$6$?at@?$map@V?$basic_string@DU?$char_traits@D@std@@V?$allocator@D@2@@std@@UsModelDrawInfo@@U?$less@V?$basic_string@DU?$char_traits@D@std@@V?$allocator@D@2@@std@@@2@V?$allocator@U?$pair@$$CBV?$basic_string@DU?$char_traits@D@std@@V?$allocator@D@2@@std@@UsModelDrawInfo@@@std@@@2@@std@@QEAAAEAUsModelDrawInfo@@AEBV?$basic_string@DU?$char_traits@D@std@@V?$allocator@D@2@@2@@Z DQ 0000bf40000080021r ; 1.66229e-308
	DQ	000096400000ae400r		; 1.30593e-308
	DD	083400H
	DD	imagerel $LN63@at
	DD	imagerel $LN63@at+15
	DD	imagerel $unwind$?at@?$map@V?$basic_string@DU?$char_traits@D@std@@V?$allocator@D@2@@std@@UsModelDrawInfo@@U?$less@V?$basic_string@DU?$char_traits@D@std@@V?$allocator@D@2@@std@@@2@V?$allocator@U?$pair@$$CBV?$basic_string@DU?$char_traits@D@std@@V?$allocator@D@2@@std@@UsModelDrawInfo@@@std@@@2@@std@@QEAAAEAUsModelDrawInfo@@AEBV?$basic_string@DU?$char_traits@D@std@@V?$allocator@D@2@@2@@Z
xdata	ENDS
;	COMDAT xdata
xdata	SEGMENT
$chain$5$?at@?$map@V?$basic_string@DU?$char_traits@D@std@@V?$allocator@D@2@@std@@UsModelDrawInfo@@U?$less@V?$basic_string@DU?$char_traits@D@std@@V?$allocator@D@2@@std@@@2@V?$allocator@U?$pair@$$CBV?$basic_string@DU?$char_traits@D@std@@V?$allocator@D@2@@std@@UsModelDrawInfo@@@std@@@2@@std@@QEAAAEAUsModelDrawInfo@@AEBV?$basic_string@DU?$char_traits@D@std@@V?$allocator@D@2@@2@@Z DD 021H
	DD	imagerel $LN63@at
	DD	imagerel $LN63@at+15
	DD	imagerel $unwind$?at@?$map@V?$basic_string@DU?$char_traits@D@std@@V?$allocator@D@2@@std@@UsModelDrawInfo@@U?$less@V?$basic_string@DU?$char_traits@D@std@@V?$allocator@D@2@@std@@@2@V?$allocator@U?$pair@$$CBV?$basic_string@DU?$char_traits@D@std@@V?$allocator@D@2@@std@@UsModelDrawInfo@@@std@@@2@@std@@QEAAAEAUsModelDrawInfo@@AEBV?$basic_string@DU?$char_traits@D@std@@V?$allocator@D@2@@2@@Z
xdata	ENDS
;	COMDAT xdata
xdata	SEGMENT
$chain$4$?at@?$map@V?$basic_string@DU?$char_traits@D@std@@V?$allocator@D@2@@std@@UsModelDrawInfo@@U?$less@V?$basic_string@DU?$char_traits@D@std@@V?$allocator@D@2@@std@@@2@V?$allocator@U?$pair@$$CBV?$basic_string@DU?$char_traits@D@std@@V?$allocator@D@2@@std@@UsModelDrawInfo@@@std@@@2@@std@@QEAAAEAUsModelDrawInfo@@AEBV?$basic_string@DU?$char_traits@D@std@@V?$allocator@D@2@@2@@Z DD 021H
	DD	imagerel $LN63@at+15
	DD	imagerel $LN63@at+33
	DD	imagerel $chain$0$?at@?$map@V?$basic_string@DU?$char_traits@D@std@@V?$allocator@D@2@@std@@UsModelDrawInfo@@U?$less@V?$basic_string@DU?$char_traits@D@std@@V?$allocator@D@2@@std@@@2@V?$allocator@U?$pair@$$CBV?$basic_string@DU?$char_traits@D@std@@V?$allocator@D@2@@std@@UsModelDrawInfo@@@std@@@2@@std@@QEAAAEAUsModelDrawInfo@@AEBV?$basic_string@DU?$char_traits@D@std@@V?$allocator@D@2@@2@@Z
xdata	ENDS
;	COMDAT xdata
xdata	SEGMENT
$chain$3$?at@?$map@V?$basic_string@DU?$char_traits@D@std@@V?$allocator@D@2@@std@@UsModelDrawInfo@@U?$less@V?$basic_string@DU?$char_traits@D@std@@V?$allocator@D@2@@std@@@2@V?$allocator@U?$pair@$$CBV?$basic_string@DU?$char_traits@D@std@@V?$allocator@D@2@@std@@UsModelDrawInfo@@@std@@@2@@std@@QEAAAEAUsModelDrawInfo@@AEBV?$basic_string@DU?$char_traits@D@std@@V?$allocator@D@2@@2@@Z DQ 0000bf41300061321r ; 1.66233e-308
	DQ	000096405000ae40ar		; 1.30594e-308
	DD	imagerel $LN63@at+15
	DD	imagerel $LN63@at+33
	DD	imagerel $chain$0$?at@?$map@V?$basic_string@DU?$char_traits@D@std@@V?$allocator@D@2@@std@@UsModelDrawInfo@@U?$less@V?$basic_string@DU?$char_traits@D@std@@V?$allocator@D@2@@std@@@2@V?$allocator@U?$pair@$$CBV?$basic_string@DU?$char_traits@D@std@@V?$allocator@D@2@@std@@UsModelDrawInfo@@@std@@@2@@std@@QEAAAEAUsModelDrawInfo@@AEBV?$basic_string@DU?$char_traits@D@std@@V?$allocator@D@2@@2@@Z
xdata	ENDS
;	COMDAT xdata
xdata	SEGMENT
$chain$0$?at@?$map@V?$basic_string@DU?$char_traits@D@std@@V?$allocator@D@2@@std@@UsModelDrawInfo@@U?$less@V?$basic_string@DU?$char_traits@D@std@@V?$allocator@D@2@@std@@@2@V?$allocator@U?$pair@$$CBV?$basic_string@DU?$char_traits@D@std@@V?$allocator@D@2@@std@@UsModelDrawInfo@@@std@@@2@@std@@QEAAAEAUsModelDrawInfo@@AEBV?$basic_string@DU?$char_traits@D@std@@V?$allocator@D@2@@2@@Z DQ 00008340500020521r ; 1.1408e-308
	DD	imagerel $LN63@at
	DD	imagerel $LN63@at+15
	DD	imagerel $unwind$?at@?$map@V?$basic_string@DU?$char_traits@D@std@@V?$allocator@D@2@@std@@UsModelDrawInfo@@U?$less@V?$basic_string@DU?$char_traits@D@std@@V?$allocator@D@2@@std@@@2@V?$allocator@U?$pair@$$CBV?$basic_string@DU?$char_traits@D@std@@V?$allocator@D@2@@std@@UsModelDrawInfo@@@std@@@2@@std@@QEAAAEAUsModelDrawInfo@@AEBV?$basic_string@DU?$char_traits@D@std@@V?$allocator@D@2@@2@@Z
xdata	ENDS
;	COMDAT xdata
xdata	SEGMENT
$unwind$?at@?$map@V?$basic_string@DU?$char_traits@D@std@@V?$allocator@D@2@@std@@UsModelDrawInfo@@U?$less@V?$basic_string@DU?$char_traits@D@std@@V?$allocator@D@2@@std@@@2@V?$allocator@U?$pair@$$CBV?$basic_string@DU?$char_traits@D@std@@V?$allocator@D@2@@std@@UsModelDrawInfo@@@std@@@2@@std@@QEAAAEAUsModelDrawInfo@@AEBV?$basic_string@DU?$char_traits@D@std@@V?$allocator@D@2@@2@@Z DQ 0c005320900040901r ; -2.64943
	DD	050027003H
CRT$XCU	ENDS
CRT$XCU	ENDS
END
