; Listing generated by Microsoft (R) Optimizing Compiler Version 19.43.34808.0 

include listing.inc

INCLUDELIB OLDNAMES

PUBLIC	glad_glVertexAttribPointer
PUBLIC	glad_glGetAttribLocation
PUBLIC	glad_glGenVertexArrays
PUBLIC	glad_glBufferData
PUBLIC	glad_glBindVertexArray
PUBLIC	glad_glEnableVertexAttribArray
PUBLIC	glad_glDisableVertexAttribArray
PUBLIC	glad_glGenBuffers
PUBLIC	glad_glBindBuffer
PUBLIC	glad_glBufferSubData
PUBLIC	??_C@_1BK@LCODAJLO@?$AAo?$AAp?$AAe?$AAn?$AAg?$AAl?$AA3?$AA2?$AA?4?$AAd?$AAl?$AAl@ ; `string'
PUBLIC	??_C@_0BC@FFKMKEGM@wglGetProcAddress@		; `string'
PUBLIC	??_C@_0L@BAPBLHME@glCullFace@			; `string'
PUBLIC	??_C@_0M@ILBMDJDA@glFrontFace@			; `string'
PUBLIC	??_C@_06HEADGMBC@glHint@			; `string'
PUBLIC	??_C@_0M@CFLGNFPG@glLineWidth@			; `string'
PUBLIC	??_C@_0M@EEAPMMNM@glPointSize@			; `string'
PUBLIC	??_C@_0O@DKMNBFMB@glPolygonMode@		; `string'
PUBLIC	??_C@_09ECGPAEPL@glScissor@			; `string'
PUBLIC	??_C@_0BA@INKFIMGP@glTexParameterf@		; `string'
PUBLIC	??_C@_0BB@KEOFAHDF@glTexParameterfv@		; `string'
PUBLIC	??_C@_0BA@KDNJAKA@glTexParameteri@		; `string'
PUBLIC	??_C@_0BB@KPLJEAAI@glTexParameteriv@		; `string'
PUBLIC	??_C@_0N@JDMMMFHL@glTexImage1D@			; `string'
PUBLIC	??_C@_0N@JBIKHLCC@glTexImage2D@			; `string'
PUBLIC	??_C@_0N@EKCLGPL@glDrawBuffer@			; `string'
PUBLIC	??_C@_07IBAPPAHJ@glClear@			; `string'
PUBLIC	??_C@_0N@OGLMDNKC@glClearColor@			; `string'
PUBLIC	??_C@_0P@KBLPBBFP@glClearStencil@		; `string'
PUBLIC	??_C@_0N@LJIELNG@glClearDepth@			; `string'
PUBLIC	??_C@_0O@DJFHPFEP@glStencilMask@		; `string'
PUBLIC	??_C@_0M@DLGOAHPH@glColorMask@			; `string'
PUBLIC	??_C@_0M@KABMFLLN@glDepthMask@			; `string'
PUBLIC	??_C@_09MHGMIMKN@glDisable@			; `string'
PUBLIC	??_C@_08OOEHEKOP@glEnable@			; `string'
PUBLIC	??_C@_08DFCPOKBK@glFinish@			; `string'
PUBLIC	??_C@_07COFELLJA@glFlush@			; `string'
PUBLIC	??_C@_0M@PFBKOKOH@glBlendFunc@			; `string'
PUBLIC	??_C@_09GKGMNAKG@glLogicOp@			; `string'
PUBLIC	??_C@_0O@ENNLLOLN@glStencilFunc@		; `string'
PUBLIC	??_C@_0M@BILBNGF@glStencilOp@			; `string'
PUBLIC	??_C@_0M@NEJABAEP@glDepthFunc@			; `string'
PUBLIC	??_C@_0O@BFLAHHCK@glPixelStoref@		; `string'
PUBLIC	??_C@_0O@JCCIGLOF@glPixelStorei@		; `string'
PUBLIC	??_C@_0N@HFKHBECK@glReadBuffer@			; `string'
PUBLIC	??_C@_0N@CKFNNHOO@glReadPixels@			; `string'
PUBLIC	??_C@_0O@NLMELLCJ@glGetBooleanv@		; `string'
PUBLIC	??_C@_0N@OFBMMCDH@glGetDoublev@			; `string'
PUBLIC	??_C@_0L@FPKAMKHB@glGetError@			; `string'
PUBLIC	??_C@_0M@CKCOBONE@glGetFloatv@			; `string'
PUBLIC	??_C@_0O@DHHDCCLF@glGetIntegerv@		; `string'
PUBLIC	??_C@_0M@OPOBFDCB@glGetString@			; `string'
PUBLIC	??_C@_0O@DOIIJLAD@glGetTexImage@		; `string'
PUBLIC	??_C@_0BE@DNHBPKMC@glGetTexParameterfv@		; `string'
PUBLIC	??_C@_0BE@DGCNLNPP@glGetTexParameteriv@		; `string'
PUBLIC	??_C@_0BJ@GAMLGIFF@glGetTexLevelParameterfv@	; `string'
PUBLIC	??_C@_0BJ@GLJHCPGI@glGetTexLevelParameteriv@	; `string'
PUBLIC	??_C@_0M@INHMIHKC@glIsEnabled@			; `string'
PUBLIC	??_C@_0N@PEBDIKOA@glDepthRange@			; `string'
PUBLIC	??_C@_0L@KBLIPDFH@glViewport@			; `string'
PUBLIC	??_C@_09KAGOBDOO@glNewList@			; `string'
PUBLIC	??_C@_09HKEBCLHH@glEndList@			; `string'
PUBLIC	??_C@_0L@CIPLDIDL@glCallList@			; `string'
PUBLIC	??_C@_0M@LFDBDICJ@glCallLists@			; `string'
PUBLIC	??_C@_0O@KPJIJAFM@glDeleteLists@		; `string'
PUBLIC	??_C@_0L@BNOFOEBP@glGenLists@			; `string'
PUBLIC	??_C@_0L@HDOJDFBA@glListBase@			; `string'
PUBLIC	??_C@_07FCOIFMD@glBegin@			; `string'
PUBLIC	??_C@_08PJOLDJDK@glBitmap@			; `string'
PUBLIC	??_C@_09JLHBBGHE@glColor3b@			; `string'
PUBLIC	??_C@_0L@COJGBKED@glColor3bv@			; `string'
PUBLIC	??_C@_09MNCLLBPC@glColor3d@			; `string'
PUBLIC	??_C@_0L@CKBLGGPB@glColor3dv@			; `string'
PUBLIC	??_C@_09PPBNNDHA@glColor3f@			; `string'
PUBLIC	??_C@_0L@CJJPLCJP@glColor3fv@			; `string'
PUBLIC	??_C@_09HIIFMPLP@glColor3i@			; `string'
PUBLIC	??_C@_0L@CCMDPFKC@glColor3iv@			; `string'
PUBLIC	??_C@_09MIKIDFGE@glColor3s@			; `string'
PUBLIC	??_C@_0L@DDHCNDAE@glColor3sv@			; `string'
PUBLIC	??_C@_0L@BJFBHIOD@glColor3ub@			; `string'
PUBLIC	??_C@_0M@EAHPDMMK@glColor3ubv@			; `string'
PUBLIC	??_C@_0L@PKKFKBCI@glColor3ui@			; `string'
PUBLIC	??_C@_0M@EMCKNDCL@glColor3uiv@			; `string'
PUBLIC	??_C@_0L@EKIIFLPD@glColor3us@			; `string'
PUBLIC	??_C@_0M@FNJLPFIN@glColor3usv@			; `string'
PUBLIC	??_C@_09JODOAAPB@glColor4b@			; `string'
PUBLIC	??_C@_0L@LDEBCCPK@glColor4bv@			; `string'
PUBLIC	??_C@_09MIGEKHHH@glColor4d@			; `string'
PUBLIC	??_C@_0L@LHMMFOEI@glColor4dv@			; `string'
PUBLIC	??_C@_09PKFCMFPF@glColor4f@			; `string'
PUBLIC	??_C@_0L@LEEIIKCG@glColor4fv@			; `string'
PUBLIC	??_C@_09HNMKNJDK@glColor4i@			; `string'
PUBLIC	??_C@_0L@LPBEMNBL@glColor4iv@			; `string'
PUBLIC	??_C@_09MNOHCDOB@glColor4s@			; `string'
PUBLIC	??_C@_0L@KOKFOLLN@glColor4sv@			; `string'
PUBLIC	??_C@_0L@IEIGEAFK@glColor4ub@			; `string'
PUBLIC	??_C@_0M@PCFPOANK@glColor4ubv@			; `string'
PUBLIC	??_C@_0L@GHHCJJJB@glColor4ui@			; `string'
PUBLIC	??_C@_0M@POAKAPDL@glColor4uiv@			; `string'
PUBLIC	??_C@_0L@NHFPGDEK@glColor4us@			; `string'
PUBLIC	??_C@_0M@OPLLCJJN@glColor4usv@			; `string'
PUBLIC	??_C@_0L@DFCKJEPI@glEdgeFlag@			; `string'
PUBLIC	??_C@_0M@MKDGIOMK@glEdgeFlagv@			; `string'
PUBLIC	??_C@_05OIBMBLHE@glEnd@				; `string'
PUBLIC	??_C@_08HOOEKNLP@glIndexd@			; `string'
PUBLIC	??_C@_09CCMFJEMA@glIndexdv@			; `string'
PUBLIC	??_C@_08EMNCMPDN@glIndexf@			; `string'
PUBLIC	??_C@_09CBEBEAKO@glIndexfv@			; `string'
PUBLIC	??_C@_08MLEKNDPC@glIndexi@			; `string'
PUBLIC	??_C@_09CKBNAHJD@glIndexiv@			; `string'
PUBLIC	??_C@_08HLGHCJCJ@glIndexs@			; `string'
PUBLIC	??_C@_09DLKMCBDF@glIndexsv@			; `string'
PUBLIC	??_C@_0L@FCAONKPI@glNormal3b@			; `string'
PUBLIC	??_C@_0M@MKFBKKIE@glNormal3bv@			; `string'
PUBLIC	??_C@_0L@EFEHNHO@glNormal3d@			; `string'
PUBLIC	??_C@_0M@MONMNGDG@glNormal3dv@			; `string'
PUBLIC	??_C@_0L@DGGCBPPM@glNormal3f@			; `string'
PUBLIC	??_C@_0M@MNFIACFI@glNormal3fv@			; `string'
PUBLIC	??_C@_0L@LBPKADDD@glNormal3i@			; `string'
PUBLIC	??_C@_0M@MGAEEFGF@glNormal3iv@			; `string'
PUBLIC	??_C@_0L@BNHPJOI@glNormal3s@			; `string'
PUBLIC	??_C@_0M@NHLFGDMD@glNormal3sv@			; `string'
PUBLIC	??_C@_0O@JNCPGME@glRasterPos2d@			; `string'
PUBLIC	??_C@_0P@OFGFAKCP@glRasterPos2dv@		; `string'
PUBLIC	??_C@_0O@DLOEJEEG@glRasterPos2f@		; `string'
PUBLIC	??_C@_0P@OGOBNOEB@glRasterPos2fv@		; `string'
PUBLIC	??_C@_0O@LMHMIIIJ@glRasterPos2i@		; `string'
PUBLIC	??_C@_0P@ONLNJJHM@glRasterPos2iv@		; `string'
PUBLIC	??_C@_0O@MFBHCFC@glRasterPos2s@			; `string'
PUBLIC	??_C@_0P@PMAMLPNK@glRasterPos2sv@		; `string'
PUBLIC	??_C@_0O@IBAJMPD@glRasterPos3d@			; `string'
PUBLIC	??_C@_0P@FNNJGNEK@glRasterPos3dv@		; `string'
PUBLIC	??_C@_0O@DKCGPOHB@glRasterPos3f@		; `string'
PUBLIC	??_C@_0P@FOFNLJCE@glRasterPos3fv@		; `string'
PUBLIC	??_C@_0O@LNLOOCLO@glRasterPos3i@		; `string'
PUBLIC	??_C@_0P@FFABPOBJ@glRasterPos3iv@		; `string'
PUBLIC	??_C@_0O@NJDBIGF@glRasterPos3s@			; `string'
PUBLIC	??_C@_0P@EELANILP@glRasterPos3sv@		; `string'
PUBLIC	??_C@_0O@NFPIKHG@glRasterPos4d@			; `string'
PUBLIC	??_C@_0P@MAAOFFPD@glRasterPos4dv@		; `string'
PUBLIC	??_C@_0O@DPGJOIPE@glRasterPos4f@		; `string'
PUBLIC	??_C@_0P@MDIKIBJN@glRasterPos4fv@		; `string'
PUBLIC	??_C@_0O@LIPBPEDL@glRasterPos4i@		; `string'
PUBLIC	??_C@_0P@MINGMGKA@glRasterPos4iv@		; `string'
PUBLIC	??_C@_0O@INMAOOA@glRasterPos4s@			; `string'
PUBLIC	??_C@_0P@NJGHOAAG@glRasterPos4sv@		; `string'
PUBLIC	??_C@_07GHILMIKG@glRectd@			; `string'
PUBLIC	??_C@_08EGLHFDGF@glRectdv@			; `string'
PUBLIC	??_C@_07FFLNKKCE@glRectf@			; `string'
PUBLIC	??_C@_08EFDDIHAL@glRectfv@			; `string'
PUBLIC	??_C@_07NCCFLGOL@glRecti@			; `string'
PUBLIC	??_C@_08EOGPMADG@glRectiv@			; `string'
PUBLIC	??_C@_07GCAIEMDA@glRects@			; `string'
PUBLIC	??_C@_08FPNOOGJA@glRectsv@			; `string'
PUBLIC	??_C@_0N@CKKBPCNP@glTexCoord1d@			; `string'
PUBLIC	??_C@_0O@GPCDLAMH@glTexCoord1dv@		; `string'
PUBLIC	??_C@_0N@BIJHJAFN@glTexCoord1f@			; `string'
PUBLIC	??_C@_0O@GMKHGEKJ@glTexCoord1fv@		; `string'
PUBLIC	??_C@_0N@JPAPIMJC@glTexCoord1i@			; `string'
PUBLIC	??_C@_0O@GHPLCDJE@glTexCoord1iv@		; `string'
PUBLIC	??_C@_0N@CPCCHGEJ@glTexCoord1s@			; `string'
PUBLIC	??_C@_0O@HGEKAFDC@glTexCoord1sv@		; `string'
PUBLIC	??_C@_0N@CIOHEMIG@glTexCoord2d@			; `string'
PUBLIC	??_C@_0O@HNJGBPCJ@glTexCoord2dv@		; `string'
PUBLIC	??_C@_0N@BKNBCOAE@glTexCoord2f@			; `string'
PUBLIC	??_C@_0O@HOBCMLEH@glTexCoord2fv@		; `string'
PUBLIC	??_C@_0N@JNEJDCML@glTexCoord2i@			; `string'
PUBLIC	??_C@_0O@HFEOIMHK@glTexCoord2iv@		; `string'
PUBLIC	??_C@_0N@CNGEMIBA@glTexCoord2s@			; `string'
PUBLIC	??_C@_0O@GEPPKKNM@glTexCoord2sv@		; `string'
PUBLIC	??_C@_0N@CJCFCGLB@glTexCoord3d@			; `string'
PUBLIC	??_C@_0O@MFCKHIEM@glTexCoord3dv@		; `string'
PUBLIC	??_C@_0N@BLBDEEDD@glTexCoord3f@			; `string'
PUBLIC	??_C@_0O@MGKOKMCC@glTexCoord3fv@		; `string'
PUBLIC	??_C@_0N@JMILFIPM@glTexCoord3i@			; `string'
PUBLIC	??_C@_0O@MNPCOLBP@glTexCoord3iv@		; `string'
PUBLIC	??_C@_0N@CMKGKCCH@glTexCoord3s@			; `string'
PUBLIC	??_C@_0O@NMEDMNLJ@glTexCoord3sv@		; `string'
PUBLIC	??_C@_0N@CMGKDADE@glTexCoord4d@			; `string'
PUBLIC	??_C@_0O@FIPNEAPF@glTexCoord4dv@		; `string'
PUBLIC	??_C@_0N@BOFMFCLG@glTexCoord4f@			; `string'
PUBLIC	??_C@_0O@FLHJJEJL@glTexCoord4fv@		; `string'
PUBLIC	??_C@_0N@JJMEEOHJ@glTexCoord4i@			; `string'
PUBLIC	??_C@_0O@FACFNDKG@glTexCoord4iv@		; `string'
PUBLIC	??_C@_0N@CJOJLEKC@glTexCoord4s@			; `string'
PUBLIC	??_C@_0O@EBJEPFAA@glTexCoord4sv@		; `string'
PUBLIC	??_C@_0L@INGMNOLD@glVertex2d@			; `string'
PUBLIC	??_C@_0M@CLIAFAJI@glVertex2dv@			; `string'
PUBLIC	??_C@_0L@LPFKLMDB@glVertex2f@			; `string'
PUBLIC	??_C@_0M@CIAEIEPG@glVertex2fv@			; `string'
PUBLIC	??_C@_0L@DIMCKAPO@glVertex2i@			; `string'
PUBLIC	??_C@_0M@CDFIMDML@glVertex2iv@			; `string'
PUBLIC	??_C@_0L@IIOPFKCF@glVertex2s@			; `string'
PUBLIC	??_C@_0M@DCOJOFGN@glVertex2sv@			; `string'
PUBLIC	??_C@_0L@IMKOLEIE@glVertex3d@			; `string'
PUBLIC	??_C@_0M@JDDMDHPN@glVertex3dv@			; `string'
PUBLIC	??_C@_0L@LOJINGAG@glVertex3f@			; `string'
PUBLIC	??_C@_0M@JALIODJD@glVertex3fv@			; `string'
PUBLIC	??_C@_0L@DJAAMKMJ@glVertex3i@			; `string'
PUBLIC	??_C@_0M@JLOEKEKO@glVertex3iv@			; `string'
PUBLIC	??_C@_0L@IJCNDABC@glVertex3s@			; `string'
PUBLIC	??_C@_0M@IKFFICAI@glVertex3sv@			; `string'
PUBLIC	??_C@_0L@IJOBKCAB@glVertex4d@			; `string'
PUBLIC	??_C@_0M@OOLAPEE@glVertex4dv@			; `string'
PUBLIC	??_C@_0L@LLNHMAID@glVertex4f@			; `string'
PUBLIC	??_C@_0M@NGPNLCK@glVertex4fv@			; `string'
PUBLIC	??_C@_0L@DMEPNMEM@glVertex4i@			; `string'
PUBLIC	??_C@_0M@GDDJMBH@glVertex4iv@			; `string'
PUBLIC	??_C@_0L@IMGCCGJH@glVertex4s@			; `string'
PUBLIC	??_C@_0M@BHICLKLB@glVertex4sv@			; `string'
PUBLIC	??_C@_0M@OHCNGGFF@glClipPlane@			; `string'
PUBLIC	??_C@_0BA@OOEHEGPC@glColorMaterial@		; `string'
PUBLIC	??_C@_06JJHNMGPD@glFogf@			; `string'
PUBLIC	??_C@_07FNEIAABA@glFogfv@			; `string'
PUBLIC	??_C@_06BOOFNKDM@glFogi@			; `string'
PUBLIC	??_C@_07FGBEEHCN@glFogiv@			; `string'
PUBLIC	??_C@_08LPDPILEL@glLightf@			; `string'
PUBLIC	??_C@_09JINEHJOD@glLightfv@			; `string'
PUBLIC	??_C@_08DIKHJHIE@glLighti@			; `string'
PUBLIC	??_C@_09JDIIDONO@glLightiv@			; `string'
PUBLIC	??_C@_0O@HPCJLAII@glLightModelf@		; `string'
PUBLIC	??_C@_0P@JKHJPMNC@glLightModelfv@		; `string'
PUBLIC	??_C@_0O@PILBKMEH@glLightModeli@		; `string'
PUBLIC	??_C@_0P@JBCFLLOP@glLightModeliv@		; `string'
PUBLIC	??_C@_0O@LDOINBOK@glLineStipple@		; `string'
PUBLIC	??_C@_0M@HANOIKMC@glMaterialf@			; `string'
PUBLIC	??_C@_0N@MHPKDGG@glMaterialfv@			; `string'
PUBLIC	??_C@_0M@PHEGJGAN@glMateriali@			; `string'
PUBLIC	??_C@_0N@HCDOEFL@glMaterialiv@			; `string'
PUBLIC	??_C@_0BB@GIADEJGP@glPolygonStipple@		; `string'
PUBLIC	??_C@_0N@NALMFHKN@glShadeModel@			; `string'
PUBLIC	??_C@_09FCLLGECI@glTexEnvf@			; `string'
PUBLIC	??_C@_0L@EMICMNOO@glTexEnvfv@			; `string'
PUBLIC	??_C@_09NFCDHIOH@glTexEnvi@			; `string'
PUBLIC	??_C@_0L@EHNOIKND@glTexEnviv@			; `string'
PUBLIC	??_C@_09NPHJCAAD@glTexGend@			; `string'
PUBLIC	??_C@_0L@OALDPGOK@glTexGendv@			; `string'
PUBLIC	??_C@_09ONEPECIB@glTexGenf@			; `string'
PUBLIC	??_C@_0L@ODDHCCIE@glTexGenfv@			; `string'
PUBLIC	??_C@_09GKNHFOEO@glTexGeni@			; `string'
PUBLIC	??_C@_0L@OIGLGFLJ@glTexGeniv@			; `string'
PUBLIC	??_C@_0BB@COFAIKCN@glFeedbackBuffer@		; `string'
PUBLIC	??_C@_0P@KACPMBCN@glSelectBuffer@		; `string'
PUBLIC	??_C@_0N@HCFJFDGP@glRenderMode@			; `string'
PUBLIC	??_C@_0M@LBOBLINN@glInitNames@			; `string'
PUBLIC	??_C@_0L@JFFJNAJA@glLoadName@			; `string'
PUBLIC	??_C@_0O@KCIMMNEH@glPassThrough@		; `string'
PUBLIC	??_C@_09IKDPIJOE@glPopName@			; `string'
PUBLIC	??_C@_0L@LFFFABIK@glPushName@			; `string'
PUBLIC	??_C@_0N@OKAMEJMG@glClearAccum@			; `string'
PUBLIC	??_C@_0N@EIILHCMH@glClearIndex@			; `string'
PUBLIC	??_C@_0M@ONDJOEOA@glIndexMask@			; `string'
PUBLIC	??_C@_07LNIJJMEN@glAccum@			; `string'
PUBLIC	??_C@_0M@LLNGAHMN@glPopAttrib@			; `string'
PUBLIC	??_C@_0N@KDMLHFJM@glPushAttrib@			; `string'
PUBLIC	??_C@_07FEHGGJHC@glMap1d@			; `string'
PUBLIC	??_C@_07GGEAALPA@glMap1f@			; `string'
PUBLIC	??_C@_07FGDANHCL@glMap2d@			; `string'
PUBLIC	??_C@_07GEAGLFKJ@glMap2f@			; `string'
PUBLIC	??_C@_0M@MNDKIDNO@glMapGrid1d@			; `string'
PUBLIC	??_C@_0M@PPAMOBFM@glMapGrid1f@			; `string'
PUBLIC	??_C@_0M@MPHMDNIH@glMapGrid2d@			; `string'
PUBLIC	??_C@_0M@PNEKFPAF@glMapGrid2f@			; `string'
PUBLIC	??_C@_0O@FJBIDDKI@glEvalCoord1d@		; `string'
PUBLIC	??_C@_0P@KBDBONJJ@glEvalCoord1dv@		; `string'
PUBLIC	??_C@_0O@GLCOFBCK@glEvalCoord1f@		; `string'
PUBLIC	??_C@_0P@KCLFDJPH@glEvalCoord1fv@		; `string'
PUBLIC	??_C@_0O@FLFOINPB@glEvalCoord2d@		; `string'
PUBLIC	??_C@_0P@LDIEECHH@glEvalCoord2dv@		; `string'
PUBLIC	??_C@_0O@GJGIOPHD@glEvalCoord2f@		; `string'
PUBLIC	??_C@_0P@LAAAJGBJ@glEvalCoord2fv@		; `string'
PUBLIC	??_C@_0M@DCFEDLDA@glEvalMesh1@			; `string'
PUBLIC	??_C@_0N@DOEOCCJJ@glEvalPoint1@			; `string'
PUBLIC	??_C@_0M@BJHJGIPD@glEvalMesh2@			; `string'
PUBLIC	??_C@_0N@BFGDHBFK@glEvalPoint2@			; `string'
PUBLIC	??_C@_0M@BJGLMKCC@glAlphaFunc@			; `string'
PUBLIC	??_C@_0M@JAMJIGNB@glPixelZoom@			; `string'
PUBLIC	??_C@_0BB@HFCIPEN@glPixelTransferf@		; `string'
PUBLIC	??_C@_0BB@IAMKJDIC@glPixelTransferi@		; `string'
PUBLIC	??_C@_0N@CNONNBNO@glPixelMapfv@			; `string'
PUBLIC	??_C@_0O@ENPFNAEO@glPixelMapuiv@		; `string'
PUBLIC	??_C@_0O@FMEEPGOI@glPixelMapusv@		; `string'
PUBLIC	??_C@_0N@OACCOOE@glCopyPixels@			; `string'
PUBLIC	??_C@_0N@FLFIHFDP@glDrawPixels@			; `string'
PUBLIC	??_C@_0P@MMMNLMC@glGetClipPlane@		; `string'
PUBLIC	??_C@_0N@MGGMJGKA@glGetLightfv@			; `string'
PUBLIC	??_C@_0N@MNDANBJN@glGetLightiv@			; `string'
PUBLIC	??_C@_0L@FGIDEHCA@glGetMapdv@			; `string'
PUBLIC	??_C@_0L@FFAHJDEO@glGetMapfv@			; `string'
PUBLIC	??_C@_0L@FOFLNEHD@glGetMapiv@			; `string'
PUBLIC	??_C@_0BA@GCPPEEDM@glGetMaterialfv@		; `string'
PUBLIC	??_C@_0BA@GJKDADAB@glGetMaterialiv@		; `string'
PUBLIC	??_C@_0BA@EDGNDGIE@glGetPixelMapfv@		; `string'
PUBLIC	??_C@_0BB@MGCFOIED@glGetPixelMapuiv@		; `string'
PUBLIC	??_C@_0BB@NHJEMOOF@glGetPixelMapusv@		; `string'
PUBLIC	??_C@_0BE@PBJHLEJI@glGetPolygonStipple@		; `string'
PUBLIC	??_C@_0O@KDAJGFCL@glGetTexEnvfv@		; `string'
PUBLIC	??_C@_0O@KIFFCCBG@glGetTexEnviv@		; `string'
PUBLIC	??_C@_0O@PDIFOCP@glGetTexGendv@			; `string'
PUBLIC	??_C@_0O@MLMIKEB@glGetTexGenfv@			; `string'
PUBLIC	??_C@_0O@HOAMNHM@glGetTexGeniv@			; `string'
PUBLIC	??_C@_08DMFMJKDH@glIsList@			; `string'
PUBLIC	??_C@_09ICLFHOKP@glFrustum@			; `string'
PUBLIC	??_C@_0P@EJAFHEPO@glLoadIdentity@		; `string'
PUBLIC	??_C@_0O@DJGBMGEI@glLoadMatrixf@		; `string'
PUBLIC	??_C@_0O@LFHKEMK@glLoadMatrixd@			; `string'
PUBLIC	??_C@_0N@KDLNHKEJ@glMatrixMode@			; `string'
PUBLIC	??_C@_0O@LHKDNPKJ@glMultMatrixf@		; `string'
PUBLIC	??_C@_0O@IFJFLNCL@glMultMatrixd@		; `string'
PUBLIC	??_C@_07DBAFHOII@glOrtho@			; `string'
PUBLIC	??_C@_0M@JPEAAEEK@glPopMatrix@			; `string'
PUBLIC	??_C@_0N@IHFNHGBL@glPushMatrix@			; `string'
PUBLIC	??_C@_09GANFLDAO@glRotated@			; `string'
PUBLIC	??_C@_09FCODNBIM@glRotatef@			; `string'
PUBLIC	??_C@_08KAMCINDI@glScaled@			; `string'
PUBLIC	??_C@_08JCPEOPLK@glScalef@			; `string'
PUBLIC	??_C@_0N@LHMFFDFG@glTranslated@			; `string'
PUBLIC	??_C@_0N@IFPDDBNE@glTranslatef@			; `string'
PUBLIC	??_C@_0N@CMNPPOHA@glDrawArrays@			; `string'
PUBLIC	??_C@_0P@MENFIFGE@glDrawElements@		; `string'
PUBLIC	??_C@_0O@LADEDGJO@glGetPointerv@		; `string'
PUBLIC	??_C@_0BA@FFBJGNC@glPolygonOffset@		; `string'
PUBLIC	??_C@_0BB@MEEDBHPL@glCopyTexImage1D@		; `string'
PUBLIC	??_C@_0BB@MGAFKJKC@glCopyTexImage2D@		; `string'
PUBLIC	??_C@_0BE@PKNCAIGI@glCopyTexSubImage1D@		; `string'
PUBLIC	??_C@_0BE@PIJELGDB@glCopyTexSubImage2D@		; `string'
PUBLIC	??_C@_0BA@NFOOCKJD@glTexSubImage1D@		; `string'
PUBLIC	??_C@_0BA@NHKIJEMK@glTexSubImage2D@		; `string'
PUBLIC	??_C@_0O@JKKCIBGC@glBindTexture@		; `string'
PUBLIC	??_C@_0BB@KMPLFJIC@glDeleteTextures@		; `string'
PUBLIC	??_C@_0O@LLMANLNK@glGenTextures@		; `string'
PUBLIC	??_C@_0M@NJHAEPDN@glIsTexture@			; `string'
PUBLIC	??_C@_0P@CKCIJELG@glArrayElement@		; `string'
PUBLIC	??_C@_0P@DPKEGLKI@glColorPointer@		; `string'
PUBLIC	??_C@_0BF@LJDHBNBP@glDisableClientState@	; `string'
PUBLIC	??_C@_0BC@LILGCNN@glEdgeFlagPointer@		; `string'
PUBLIC	??_C@_0BE@KECPKGNE@glEnableClientState@		; `string'
PUBLIC	??_C@_0P@KGJBLKPD@glIndexPointer@		; `string'
PUBLIC	??_C@_0BE@EDEDCKLI@glInterleavedArrays@		; `string'
PUBLIC	??_C@_0BA@DCLMCEOP@glNormalPointer@		; `string'
PUBLIC	??_C@_0BC@DAOMILMO@glTexCoordPointer@		; `string'
PUBLIC	??_C@_0BA@HAHECJNK@glVertexPointer@		; `string'
PUBLIC	??_C@_0BG@DHOKJLEP@glAreTexturesResident@	; `string'
PUBLIC	??_C@_0BF@FFCGNNIA@glPrioritizeTextures@	; `string'
PUBLIC	??_C@_09BBIPIKNC@glIndexub@			; `string'
PUBLIC	??_C@_0L@BBKJOCAC@glIndexubv@			; `string'
PUBLIC	??_C@_0BC@GOOJKIDH@glPopClientAttrib@		; `string'
PUBLIC	??_C@_0BD@JKGPLNEA@glPushClientAttrib@		; `string'
PUBLIC	??_C@_0BE@IHNAGJGJ@glDrawRangeElements@		; `string'
PUBLIC	??_C@_0N@JAEIBBBF@glTexImage3D@			; `string'
PUBLIC	??_C@_0BA@NGGKPOPN@glTexSubImage3D@		; `string'
PUBLIC	??_C@_0BE@PJFGNMAG@glCopyTexSubImage3D@		; `string'
PUBLIC	??_C@_0BA@KOBBIKOF@glActiveTexture@		; `string'
PUBLIC	??_C@_0BB@BJGIPMOA@glSampleCoverage@		; `string'
PUBLIC	??_C@_0BH@GGHNMAGP@glCompressedTexImage3D@	; `string'
PUBLIC	??_C@_0BH@GHLPKKFI@glCompressedTexImage2D@	; `string'
PUBLIC	??_C@_0BH@GFPJBEAB@glCompressedTexImage1D@	; `string'
PUBLIC	??_C@_0BK@EBJMCDPA@glCompressedTexSubImage3D@	; `string'
PUBLIC	??_C@_0BK@EAFOEJMH@glCompressedTexSubImage2D@	; `string'
PUBLIC	??_C@_0BK@ECBIPHJO@glCompressedTexSubImage1D@	; `string'
PUBLIC	??_C@_0BI@MPANLPPL@glGetCompressedTexImage@	; `string'
PUBLIC	??_C@_0BG@EGKOMLFO@glClientActiveTexture@	; `string'
PUBLIC	??_C@_0BC@IHHPPFPP@glMultiTexCoord1d@		; `string'
PUBLIC	??_C@_0BD@FEOAEOAI@glMultiTexCoord1dv@		; `string'
PUBLIC	??_C@_0BC@LFEJJHHN@glMultiTexCoord1f@		; `string'
PUBLIC	??_C@_0BD@FHGEJKGG@glMultiTexCoord1fv@		; `string'
PUBLIC	??_C@_0BC@DCNBILLC@glMultiTexCoord1i@		; `string'
PUBLIC	??_C@_0BD@FMDINNFL@glMultiTexCoord1iv@		; `string'
PUBLIC	??_C@_0BC@ICPMHBGJ@glMultiTexCoord1s@		; `string'
PUBLIC	??_C@_0BD@ENIJPLPN@glMultiTexCoord1sv@		; `string'
PUBLIC	??_C@_0BC@IFDJELKG@glMultiTexCoord2d@		; `string'
PUBLIC	??_C@_0BD@EGFFOBOG@glMultiTexCoord2dv@		; `string'
PUBLIC	??_C@_0BC@LHAPCJCE@glMultiTexCoord2f@		; `string'
PUBLIC	??_C@_0BD@EFNBDFII@glMultiTexCoord2fv@		; `string'
PUBLIC	??_C@_0BC@DAJHDFOL@glMultiTexCoord2i@		; `string'
PUBLIC	??_C@_0BD@EOINHCLF@glMultiTexCoord2iv@		; `string'
PUBLIC	??_C@_0BC@IALKMPDA@glMultiTexCoord2s@		; `string'
PUBLIC	??_C@_0BD@FPDMFEBD@glMultiTexCoord2sv@		; `string'
PUBLIC	??_C@_0BC@IEPLCBJB@glMultiTexCoord3d@		; `string'
PUBLIC	??_C@_0BD@POOJIGID@glMultiTexCoord3dv@		; `string'
PUBLIC	??_C@_0BC@LGMNEDBD@glMultiTexCoord3f@		; `string'
PUBLIC	??_C@_0BD@PNGNFCON@glMultiTexCoord3fv@		; `string'
PUBLIC	??_C@_0BC@DBFFFPNM@glMultiTexCoord3i@		; `string'
PUBLIC	??_C@_0BD@PGDBBFNA@glMultiTexCoord3iv@		; `string'
PUBLIC	??_C@_0BC@IBHIKFAH@glMultiTexCoord3s@		; `string'
PUBLIC	??_C@_0BD@OHIADDHG@glMultiTexCoord3sv@		; `string'
PUBLIC	??_C@_0BC@IBLEDHBE@glMultiTexCoord4d@		; `string'
PUBLIC	??_C@_0BD@GDDOLODK@glMultiTexCoord4dv@		; `string'
PUBLIC	??_C@_0BC@LDICFFJG@glMultiTexCoord4f@		; `string'
PUBLIC	??_C@_0BD@GALKGKFE@glMultiTexCoord4fv@		; `string'
PUBLIC	??_C@_0BC@DEBKEJFJ@glMultiTexCoord4i@		; `string'
PUBLIC	??_C@_0BD@GLOGCNGJ@glMultiTexCoord4iv@		; `string'
PUBLIC	??_C@_0BC@IEDHLDIC@glMultiTexCoord4s@		; `string'
PUBLIC	??_C@_0BD@HKFHALMP@glMultiTexCoord4sv@		; `string'
PUBLIC	??_C@_0BH@OJNLGHA@glLoadTransposeMatrixf@	; `string'
PUBLIC	??_C@_0BH@DMKLNEPC@glLoadTransposeMatrixd@	; `string'
PUBLIC	??_C@_0BH@DPBMPCNC@glMultTransposeMatrixf@	; `string'
PUBLIC	??_C@_0BH@NCKJAFA@glMultTransposeMatrixd@	; `string'
PUBLIC	??_C@_0BE@LLLCIIOO@glBlendFuncSeparate@		; `string'
PUBLIC	??_C@_0BC@IBABPJFA@glMultiDrawArrays@		; `string'
PUBLIC	??_C@_0BE@MPDFJJLL@glMultiDrawElements@		; `string'
PUBLIC	??_C@_0BC@FGOOEDO@glPointParameterf@		; `string'
PUBLIC	??_C@_0BD@LIABKNDP@glPointParameterfv@		; `string'
PUBLIC	??_C@_0BC@ICPGPIPB@glPointParameteri@		; `string'
PUBLIC	??_C@_0BD@LDFNOKAC@glPointParameteriv@		; `string'
PUBLIC	??_C@_0M@GCBCNNOF@glFogCoordf@			; `string'
PUBLIC	??_C@_0N@KJGHNKFK@glFogCoordfv@			; `string'
PUBLIC	??_C@_0M@FACELPGH@glFogCoordd@			; `string'
PUBLIC	??_C@_0N@KKODAODE@glFogCoorddv@			; `string'
PUBLIC	??_C@_0BC@GECGFLP@glFogCoordPointer@		; `string'
PUBLIC	??_C@_0BD@MCCHHBGK@glSecondaryColor3b@		; `string'
PUBLIC	??_C@_0BE@NEMAHBEH@glSecondaryColor3bv@		; `string'
PUBLIC	??_C@_0BD@JEHNNGOM@glSecondaryColor3d@		; `string'
PUBLIC	??_C@_0BE@NAENANPF@glSecondaryColor3dv@		; `string'
PUBLIC	??_C@_0BD@KGELLEGO@glSecondaryColor3f@		; `string'
PUBLIC	??_C@_0BE@NDMJNJJL@glSecondaryColor3fv@		; `string'
PUBLIC	??_C@_0BD@CBNDKIKB@glSecondaryColor3i@		; `string'
PUBLIC	??_C@_0BE@NIJFJOKG@glSecondaryColor3iv@		; `string'
PUBLIC	??_C@_0BD@JBPOFCHK@glSecondaryColor3s@		; `string'
PUBLIC	??_C@_0BE@MJCELIAA@glSecondaryColor3sv@		; `string'
PUBLIC	??_C@_0BE@ODAHBDOH@glSecondaryColor3ub@		; `string'
PUBLIC	??_C@_0BF@EHOIKOLI@glSecondaryColor3ubv@	; `string'
PUBLIC	??_C@_0BE@PDMKCM@glSecondaryColor3ui@		; `string'
PUBLIC	??_C@_0BF@ELLNEBFJ@glSecondaryColor3uiv@	; `string'
PUBLIC	??_C@_0BE@LANODAPH@glSecondaryColor3us@		; `string'
PUBLIC	??_C@_0BF@FKAMGHPP@glSecondaryColor3usv@	; `string'
PUBLIC	??_C@_0BI@EFMNDJOO@glSecondaryColorPointer@	; `string'
PUBLIC	??_C@_0O@JGNKBLNH@glWindowPos2d@		; `string'
PUBLIC	??_C@_0P@GBEEEDBM@glWindowPos2dv@		; `string'
PUBLIC	??_C@_0O@KEOMHJFF@glWindowPos2f@		; `string'
PUBLIC	??_C@_0P@GCMAJHHC@glWindowPos2fv@		; `string'
PUBLIC	??_C@_0O@CDHEGFJK@glWindowPos2i@		; `string'
PUBLIC	??_C@_0P@GJJMNAEP@glWindowPos2iv@		; `string'
PUBLIC	??_C@_0O@JDFJJPEB@glWindowPos2s@		; `string'
PUBLIC	??_C@_0P@HICNPGOJ@glWindowPos2sv@		; `string'
PUBLIC	??_C@_0O@JHBIHBOA@glWindowPos3d@		; `string'
PUBLIC	??_C@_0P@NJPICEHJ@glWindowPos3dv@		; `string'
PUBLIC	??_C@_0O@KFCOBDGC@glWindowPos3f@		; `string'
PUBLIC	??_C@_0P@NKHMPABH@glWindowPos3fv@		; `string'
PUBLIC	??_C@_0O@CCLGAPKN@glWindowPos3i@		; `string'
PUBLIC	??_C@_0P@NBCALHCK@glWindowPos3iv@		; `string'
PUBLIC	??_C@_0O@JCJLPFHG@glWindowPos3s@		; `string'
PUBLIC	??_C@_0P@MAJBJBIM@glWindowPos3sv@		; `string'
PUBLIC	??_C@_0N@PKBMFJDK@glBlendColor@			; `string'
PUBLIC	??_C@_0BA@PFHILPAN@glBlendEquation@		; `string'
PUBLIC	??_C@_0N@CJIGHHJ@glGenQueries@			; `string'
PUBLIC	??_C@_0BA@IOKEHMOH@glDeleteQueries@		; `string'
PUBLIC	??_C@_09CNNLCEBN@glIsQuery@			; `string'
PUBLIC	??_C@_0N@GIAGIGPA@glBeginQuery@			; `string'
PUBLIC	??_C@_0L@FLEBHIDM@glEndQuery@			; `string'
PUBLIC	??_C@_0N@BPACPFCI@glGetQueryiv@			; `string'
PUBLIC	??_C@_0BD@KMBBCJID@glGetQueryObjectiv@		; `string'
PUBLIC	??_C@_0BE@MNBBKJ@glGetQueryObjectuiv@		; `string'
PUBLIC	??_C@_0N@BONEPPLO@glBindBuffer@			; `string'
PUBLIC	??_C@_0BA@DMNLADIO@glDeleteBuffers@		; `string'
PUBLIC	??_C@_0N@LAOHBIBA@glGenBuffers@			; `string'
PUBLIC	??_C@_0L@KFPDMKNG@glIsBuffer@			; `string'
PUBLIC	??_C@_0N@JHHJMABP@glBufferData@			; `string'
PUBLIC	??_C@_0BA@GAJMDBBN@glBufferSubData@		; `string'
PUBLIC	??_C@_0BD@PNDAHMBO@glGetBufferSubData@		; `string'
PUBLIC	??_C@_0M@NNHDPACA@glMapBuffer@			; `string'
PUBLIC	??_C@_0O@OFGHBLEO@glUnmapBuffer@		; `string'
PUBLIC	??_C@_0BH@BMIEIFJP@glGetBufferParameteriv@	; `string'
PUBLIC	??_C@_0BE@KNJEIFMC@glGetBufferPointerv@		; `string'
PUBLIC	??_C@_0BI@JNHDNJAG@glBlendEquationSeparate@	; `string'
PUBLIC	??_C@_0O@COHJKDBH@glDrawBuffers@		; `string'
PUBLIC	??_C@_0BE@GAPLDNGF@glStencilOpSeparate@		; `string'
PUBLIC	??_C@_0BG@FCMNCEIA@glStencilFuncSeparate@	; `string'
PUBLIC	??_C@_0BG@MMKPIEJI@glStencilMaskSeparate@	; `string'
PUBLIC	??_C@_0P@LDMLEABL@glAttachShader@		; `string'
PUBLIC	??_C@_0BF@MHKEFIHM@glBindAttribLocation@	; `string'
PUBLIC	??_C@_0BA@DGIEGONF@glCompileShader@		; `string'
PUBLIC	??_C@_0BA@FLKLHNKP@glCreateProgram@		; `string'
PUBLIC	??_C@_0P@HGHBNC@glCreateShader@			; `string'
PUBLIC	??_C@_0BA@NKGCDOPO@glDeleteProgram@		; `string'
PUBLIC	??_C@_0P@HHCDONAG@glDeleteShader@		; `string'
PUBLIC	??_C@_0P@DJFJFCJL@glDetachShader@		; `string'
PUBLIC	??_C@_0BL@NKHLOFFF@glDisableVertexAttribArray@	; `string'
PUBLIC	??_C@_0BK@EHBAHNHE@glEnableVertexAttribArray@	; `string'
PUBLIC	??_C@_0BC@MBALAOHF@glGetActiveAttrib@		; `string'
PUBLIC	??_C@_0BD@NIMHLLKN@glGetActiveUniform@		; `string'
PUBLIC	??_C@_0BF@GHMDGFEM@glGetAttachedShaders@	; `string'
PUBLIC	??_C@_0BE@BEPGJDMM@glGetAttribLocation@		; `string'
PUBLIC	??_C@_0P@FMMDFLCO@glGetProgramiv@		; `string'
PUBLIC	??_C@_0BE@DHGHAJFL@glGetProgramInfoLog@		; `string'
PUBLIC	??_C@_0O@JBDFPDMG@glGetShaderiv@		; `string'
PUBLIC	??_C@_0BD@GIABBCMO@glGetShaderInfoLog@		; `string'
PUBLIC	??_C@_0BC@ELEIFJEL@glGetShaderSource@		; `string'
PUBLIC	??_C@_0BF@KIOPGICP@glGetUniformLocation@	; `string'
PUBLIC	??_C@_0P@DFCJIBG@glGetUniformfv@		; `string'
PUBLIC	??_C@_0P@IAONPCL@glGetUniformiv@		; `string'
PUBLIC	??_C@_0BE@HDPMJMIN@glGetVertexAttribdv@		; `string'
PUBLIC	??_C@_0BE@HAHIEIOD@glGetVertexAttribfv@		; `string'
PUBLIC	??_C@_0BE@HLCEAPNO@glGetVertexAttribiv@		; `string'
PUBLIC	??_C@_0BK@DOJMENLD@glGetVertexAttribPointerv@	; `string'
PUBLIC	??_C@_0M@INLOJDGO@glIsProgram@			; `string'
PUBLIC	??_C@_0L@MDDLFIHC@glIsShader@			; `string'
PUBLIC	??_C@_0O@PIOEEBPO@glLinkProgram@		; `string'
PUBLIC	??_C@_0P@DFHCPFMO@glShaderSource@		; `string'
PUBLIC	??_C@_0N@ICBDHBI@glUseProgram@			; `string'
PUBLIC	??_C@_0M@MLICAPOF@glUniform1f@			; `string'
PUBLIC	??_C@_0M@MJMELBLM@glUniform2f@			; `string'
PUBLIC	??_C@_0M@MIAGNLIL@glUniform3f@			; `string'
PUBLIC	??_C@_0M@MNEJMNAO@glUniform4f@			; `string'
PUBLIC	??_C@_0M@EMBKBDCK@glUniform1i@			; `string'
PUBLIC	??_C@_0M@EOFMKNHD@glUniform2i@			; `string'
PUBLIC	??_C@_0M@EPJOMHEE@glUniform3i@			; `string'
PUBLIC	??_C@_0M@EKNBNBMB@glUniform4i@			; `string'
PUBLIC	??_C@_0N@KJMOEKII@glUniform1fv@			; `string'
PUBLIC	??_C@_0N@LLHLOFGG@glUniform2fv@			; `string'
PUBLIC	??_C@_0N@DMHICAD@glUniform3fv@			; `string'
PUBLIC	??_C@_0N@JOBALKLK@glUniform4fv@			; `string'
PUBLIC	??_C@_0N@KCJCANLF@glUniform1iv@			; `string'
PUBLIC	??_C@_0N@LACHKCFL@glUniform2iv@			; `string'
PUBLIC	??_C@_0N@IJLMFDO@glUniform3iv@			; `string'
PUBLIC	??_C@_0N@JFEMPNIH@glUniform4iv@			; `string'
PUBLIC	??_C@_0BD@JIBJELHD@glUniformMatrix2fv@		; `string'
PUBLIC	??_C@_0BD@CAKFCMBG@glUniformMatrix3fv@		; `string'
PUBLIC	??_C@_0BD@LNHCBEKP@glUniformMatrix4fv@		; `string'
PUBLIC	??_C@_0BC@MAPGDLJK@glValidateProgram@		; `string'
PUBLIC	??_C@_0BB@PIOLPNPC@glVertexAttrib1d@		; `string'
PUBLIC	??_C@_0BC@CKCOKGLN@glVertexAttrib1dv@		; `string'
PUBLIC	??_C@_0BB@MKNNJPHA@glVertexAttrib1f@		; `string'
PUBLIC	??_C@_0BC@CJKKHCND@glVertexAttrib1fv@		; `string'
PUBLIC	??_C@_0BB@PNGIHJGE@glVertexAttrib1s@		; `string'
PUBLIC	??_C@_0BC@DDEHBDEI@glVertexAttrib1sv@		; `string'
PUBLIC	??_C@_0BB@PKKNEDKL@glVertexAttrib2d@		; `string'
PUBLIC	??_C@_0BC@DIJLAJFD@glVertexAttrib2dv@		; `string'
PUBLIC	??_C@_0BB@MIJLCBCJ@glVertexAttrib2f@		; `string'
PUBLIC	??_C@_0BC@DLBPNNDN@glVertexAttrib2fv@		; `string'
PUBLIC	??_C@_0BB@PPCOMHDN@glVertexAttrib2s@		; `string'
PUBLIC	??_C@_0BC@CBPCLMKG@glVertexAttrib2sv@		; `string'
PUBLIC	??_C@_0BB@PLGPCJJM@glVertexAttrib3d@		; `string'
PUBLIC	??_C@_0BC@IACHGODG@glVertexAttrib3dv@		; `string'
PUBLIC	??_C@_0BB@MJFJELBO@glVertexAttrib3f@		; `string'
PUBLIC	??_C@_0BC@IDKDLKFI@glVertexAttrib3fv@		; `string'
PUBLIC	??_C@_0BB@POOMKNAK@glVertexAttrib3s@		; `string'
PUBLIC	??_C@_0BC@JJEONLMD@glVertexAttrib3sv@		; `string'
PUBLIC	??_C@_0BD@NANPPEGB@glVertexAttrib4Nbv@		; `string'
PUBLIC	??_C@_0BD@NMIKBLIA@glVertexAttrib4Niv@		; `string'
PUBLIC	??_C@_0BD@MNDLDNCG@glVertexAttrib4Nsv@		; `string'
PUBLIC	??_C@_0BD@OHBIJGMB@glVertexAttrib4Nub@		; `string'
PUBLIC	??_C@_0BE@JFOBDEMA@glVertexAttrib4Nubv@		; `string'
PUBLIC	??_C@_0BE@JJLENLCB@glVertexAttrib4Nuiv@		; `string'
PUBLIC	??_C@_0BE@IIAFPNIH@glVertexAttrib4Nusv@		; `string'
PUBLIC	??_C@_0BC@BJHNCKDN@glVertexAttrib4bv@		; `string'
PUBLIC	??_C@_0BB@POCADPBJ@glVertexAttrib4d@		; `string'
PUBLIC	??_C@_0BC@BNPAFGIP@glVertexAttrib4dv@		; `string'
PUBLIC	??_C@_0BB@MMBGFNJL@glVertexAttrib4f@		; `string'
PUBLIC	??_C@_0BC@BOHEICOB@glVertexAttrib4fv@		; `string'
PUBLIC	??_C@_0BC@BFCIMFNM@glVertexAttrib4iv@		; `string'
PUBLIC	??_C@_0BB@PLKDLLIP@glVertexAttrib4s@		; `string'
PUBLIC	??_C@_0BC@EJJODHK@glVertexAttrib4sv@		; `string'
PUBLIC	??_C@_0BD@PHPFILMB@glVertexAttrib4ubv@		; `string'
PUBLIC	??_C@_0BD@PLKAGECA@glVertexAttrib4uiv@		; `string'
PUBLIC	??_C@_0BD@OKBBECIG@glVertexAttrib4usv@		; `string'
PUBLIC	??_C@_0BG@JPNNNPKG@glVertexAttribPointer@	; `string'
PUBLIC	??_C@_0BF@KDDJMCDK@glUniformMatrix2x3fv@	; `string'
PUBLIC	??_C@_0BF@NANJHGPK@glUniformMatrix3x2fv@	; `string'
PUBLIC	??_C@_0BF@DOOOPKID@glUniformMatrix2x4fv@	; `string'
PUBLIC	??_C@_0BF@MNNMEGEC@glUniformMatrix4x2fv@	; `string'
PUBLIC	??_C@_0BF@PFLCCJCG@glUniformMatrix3x4fv@	; `string'
PUBLIC	??_C@_0BF@HFGACBCH@glUniformMatrix4x3fv@	; `string'
PUBLIC	??_C@_0N@JHNNNJFG@glColorMaski@			; `string'
PUBLIC	??_C@_0BA@OAKNOBP@glGetBooleani_v@		; `string'
PUBLIC	??_C@_0BA@FKCNNMFO@glGetIntegeri_v@		; `string'
PUBLIC	??_C@_09IEGEGIEN@glEnablei@			; `string'
PUBLIC	??_C@_0L@BMJPGDDH@glDisablei@			; `string'
PUBLIC	??_C@_0N@IMGKGOKN@glIsEnabledi@			; `string'
PUBLIC	??_C@_0BJ@FHJKOECC@glBeginTransformFeedback@	; `string'
PUBLIC	??_C@_0BH@LCFLNNBH@glEndTransformFeedback@	; `string'
PUBLIC	??_C@_0BC@EEMMCHMB@glBindBufferRange@		; `string'
PUBLIC	??_C@_0BB@LDPKOCJI@glBindBufferBase@		; `string'
PUBLIC	??_C@_0BM@IJFAKBEF@glTransformFeedbackVaryings@	; `string'
PUBLIC	??_C@_0BO@ODFLPNG@glGetTransformFeedbackVarying@ ; `string'
PUBLIC	??_C@_0N@HLGAGIMI@glClampColor@			; `string'
PUBLIC	??_C@_0BJ@EHEPIEPF@glBeginConditionalRender@	; `string'
PUBLIC	??_C@_0BH@KCIOLNMA@glEndConditionalRender@	; `string'
PUBLIC	??_C@_0BH@NLOEHKCD@glVertexAttribIPointer@	; `string'
PUBLIC	??_C@_0BF@KPDNEONP@glGetVertexAttribIiv@	; `string'
PUBLIC	??_C@_0BG@GCBDCABB@glGetVertexAttribIuiv@	; `string'
PUBLIC	??_C@_0BC@CDIIMMAL@glVertexAttribI1i@		; `string'
PUBLIC	??_C@_0BC@CBMOHCFC@glVertexAttribI2i@		; `string'
PUBLIC	??_C@_0BC@CAAMBIGF@glVertexAttribI3i@		; `string'
PUBLIC	??_C@_0BC@CFEDAOOA@glVertexAttribI4i@		; `string'
PUBLIC	??_C@_0BD@DGPCNLLO@glVertexAttribI1ui@		; `string'
PUBLIC	??_C@_0BD@CEEHHEFA@glVertexAttribI2ui@		; `string'
PUBLIC	??_C@_0BD@JMPLBDDF@glVertexAttribI3ui@		; `string'
PUBLIC	??_C@_0BD@BCMCLIM@glVertexAttribI4ui@		; `string'
PUBLIC	??_C@_0BD@OOJEIPDE@glVertexAttribI1iv@		; `string'
PUBLIC	??_C@_0BD@PMCBCANK@glVertexAttribI2iv@		; `string'
PUBLIC	??_C@_0BD@EEJNEHLP@glVertexAttribI3iv@		; `string'
PUBLIC	??_C@_0BD@NJEKHPAG@glVertexAttribI4iv@		; `string'
PUBLIC	??_C@_0BE@FFIKLCCA@glVertexAttribI1uiv@		; `string'
PUBLIC	??_C@_0BE@BCCKMIPA@glVertexAttribI2uiv@		; `string'
PUBLIC	??_C@_0BE@CPEKOBEA@glVertexAttribI3uiv@		; `string'
PUBLIC	??_C@_0BE@JNGKDNFA@glVertexAttribI4uiv@		; `string'
PUBLIC	??_C@_0BD@NFBPJAOH@glVertexAttribI4bv@		; `string'
PUBLIC	??_C@_0BD@MIPLFJKA@glVertexAttribI4sv@		; `string'
PUBLIC	??_C@_0BE@JBDPNCLB@glVertexAttribI4ubv@		; `string'
PUBLIC	??_C@_0BE@IMNLBLPG@glVertexAttribI4usv@		; `string'
PUBLIC	??_C@_0BA@NIGECFIF@glGetUniformuiv@		; `string'
PUBLIC	??_C@_0BH@DLJLAGBA@glBindFragDataLocation@	; `string'
PUBLIC	??_C@_0BG@NDOIGAMC@glGetFragDataLocation@	; `string'
PUBLIC	??_C@_0N@HKPEFJDP@glUniform1ui@			; `string'
PUBLIC	??_C@_0N@GIEBPGNB@glUniform2ui@			; `string'
PUBLIC	??_C@_0N@NAPNJBLE@glUniform3ui@			; `string'
PUBLIC	??_C@_0N@ENCKKJAN@glUniform4ui@			; `string'
PUBLIC	??_C@_0O@MPHJAHBE@glUniform1uiv@		; `string'
PUBLIC	??_C@_0O@IINJHNME@glUniform2uiv@		; `string'
PUBLIC	??_C@_0O@LFLJFEHE@glUniform3uiv@		; `string'
PUBLIC	??_C@_0O@HJJIIGE@glUniform4uiv@			; `string'
PUBLIC	??_C@_0BC@MAFJKEHB@glTexParameterIiv@		; `string'
PUBLIC	??_C@_0BD@FDBCMKBE@glTexParameterIuiv@		; `string'
PUBLIC	??_C@_0BF@ODBJFHDD@glGetTexParameterIiv@	; `string'
PUBLIC	??_C@_0BG@MLODKKFL@glGetTexParameterIuiv@	; `string'
PUBLIC	??_C@_0BA@CGCJAEIN@glClearBufferiv@		; `string'
PUBLIC	??_C@_0BB@OHPPAEID@glClearBufferuiv@		; `string'
PUBLIC	??_C@_0BA@CNHFEDLA@glClearBufferfv@		; `string'
PUBLIC	??_C@_0BA@OACPENCO@glClearBufferfi@		; `string'
PUBLIC	??_C@_0N@PILJCBOD@glGetStringi@			; `string'
PUBLIC	??_C@_0BB@DGGHKKOH@glIsRenderbuffer@		; `string'
PUBLIC	??_C@_0BD@EPOPJGFA@glBindRenderbuffer@		; `string'
PUBLIC	??_C@_0BG@KKOKEJDE@glDeleteRenderbuffers@	; `string'
PUBLIC	??_C@_0BD@MIGEDNGJ@glGenRenderbuffers@		; `string'
PUBLIC	??_C@_0BG@EOIILGMJ@glRenderbufferStorage@	; `string'
PUBLIC	??_C@_0BN@FGKAECKO@glGetRenderbufferParameteriv@ ; `string'
PUBLIC	??_C@_0BA@FGBIJCNH@glIsFramebuffer@		; `string'
PUBLIC	??_C@_0BC@CJMIBNO@glBindFramebuffer@		; `string'
PUBLIC	??_C@_0BF@DJNJENP@glDeleteFramebuffers@		; `string'
PUBLIC	??_C@_0BC@FAPEBGID@glGenFramebuffers@		; `string'
PUBLIC	??_C@_0BJ@GIOLHEAD@glCheckFramebufferStatus@	; `string'
PUBLIC	??_C@_0BH@JAMDNNBM@glFramebufferTexture1D@	; `string'
PUBLIC	??_C@_0BH@JCIFGDEF@glFramebufferTexture2D@	; `string'
PUBLIC	??_C@_0BH@JDEHAJHC@glFramebufferTexture3D@	; `string'
PUBLIC	??_C@_0BK@OJDINAOA@glFramebufferRenderbuffer@	; `string'
PUBLIC	??_C@_0CG@KLDGJEON@glGetFramebufferAttachmentParam@ ; `string'
PUBLIC	??_C@_0BB@BHNIMGDM@glGenerateMipmap@		; `string'
PUBLIC	??_C@_0BC@OANBDDEP@glBlitFramebuffer@		; `string'
PUBLIC	??_C@_0CB@HNONLGJE@glRenderbufferStorageMultisampl@ ; `string'
PUBLIC	??_C@_0BK@NIHIDBBO@glFramebufferTextureLayer@	; `string'
PUBLIC	??_C@_0BB@EOHJGBIO@glMapBufferRange@		; `string'
PUBLIC	??_C@_0BJ@NCDMGHKF@glFlushMappedBufferRange@	; `string'
PUBLIC	??_C@_0BC@LHBAHFAN@glBindVertexArray@		; `string'
PUBLIC	??_C@_0BF@BMPCJLEF@glDeleteVertexArrays@	; `string'
PUBLIC	??_C@_0BC@EPJLBJBJ@glGenVertexArrays@		; `string'
PUBLIC	??_C@_0BA@ODJEGGAE@glIsVertexArray@		; `string'
PUBLIC	??_C@_0BG@HIOFINAN@glDrawArraysInstanced@	; `string'
PUBLIC	??_C@_0BI@CGJENFBH@glDrawElementsInstanced@	; `string'
PUBLIC	??_C@_0M@IIMBBALL@glTexBuffer@			; `string'
PUBLIC	??_C@_0BI@LJDLNGAF@glPrimitiveRestartIndex@	; `string'
PUBLIC	??_C@_0BE@EPKABDOG@glCopyBufferSubData@		; `string'
PUBLIC	??_C@_0BE@MDPMIDEE@glGetUniformIndices@		; `string'
PUBLIC	??_C@_0BG@JEHIMPCG@glGetActiveUniformsiv@	; `string'
PUBLIC	??_C@_0BH@EGGFHKJJ@glGetActiveUniformName@	; `string'
PUBLIC	??_C@_0BH@CBDIMHHE@glGetUniformBlockIndex@	; `string'
PUBLIC	??_C@_0BK@DMHOPJGL@glGetActiveUniformBlockiv@	; `string'
PUBLIC	??_C@_0BM@KEMCJPAJ@glGetActiveUniformBlockName@	; `string'
PUBLIC	??_C@_0BG@BOLEKKCP@glUniformBlockBinding@	; `string'
PUBLIC	??_C@_0BJ@LFMMIAHA@glDrawElementsBaseVertex@	; `string'
PUBLIC	??_C@_0BO@KBDDBILP@glDrawRangeElementsBaseVertex@ ; `string'
PUBLIC	??_C@_0CC@KLOIIKNA@glDrawElementsInstancedBaseVert@ ; `string'
PUBLIC	??_C@_0BO@NAPFJEEK@glMultiDrawElementsBaseVertex@ ; `string'
PUBLIC	??_C@_0BC@ECOAPEBI@glProvokingVertex@		; `string'
PUBLIC	??_C@_0M@EFGFPFLP@glFenceSync@			; `string'
PUBLIC	??_C@_08JPIIHJEO@glIsSync@			; `string'
PUBLIC	??_C@_0N@PIFDNDFG@glDeleteSync@			; `string'
PUBLIC	??_C@_0BB@KDMPGJAC@glClientWaitSync@		; `string'
PUBLIC	??_C@_0L@MHLOGHGO@glWaitSync@			; `string'
PUBLIC	??_C@_0BA@INMBOHGL@glGetInteger64v@		; `string'
PUBLIC	??_C@_0M@MPEEOPIN@glGetSynciv@			; `string'
PUBLIC	??_C@_0BC@KOJILIEC@glGetInteger64i_v@		; `string'
PUBLIC	??_C@_0BJ@KKBIDGPP@glGetBufferParameteri64v@	; `string'
PUBLIC	??_C@_0BF@ENLMLILA@glFramebufferTexture@	; `string'
PUBLIC	??_C@_0BI@FHDFLFA@glTexImage2DMultisample@	; `string'
PUBLIC	??_C@_0BI@JIHMLKCG@glTexImage3DMultisample@	; `string'
PUBLIC	??_C@_0BD@DHLIMGN@glGetMultisamplefv@		; `string'
PUBLIC	??_C@_0O@JNHBCHMB@glSampleMaski@		; `string'
PUBLIC	??_C@_0BO@POJBGCGG@glBindFragDataLocationIndexed@ ; `string'
PUBLIC	??_C@_0BD@COCJFEOH@glGetFragDataIndex@		; `string'
PUBLIC	??_C@_0O@EMMLGGLG@glGenSamplers@		; `string'
PUBLIC	??_C@_0BB@FLPAOEOO@glDeleteSamplers@		; `string'
PUBLIC	??_C@_0M@LAJKHOKJ@glIsSampler@			; `string'
PUBLIC	??_C@_0O@PDEILAPG@glBindSampler@		; `string'
PUBLIC	??_C@_0BE@KBCBMPJO@glSamplerParameteri@		; `string'
PUBLIC	??_C@_0BF@GOHDEBPM@glSamplerParameteriv@	; `string'
PUBLIC	??_C@_0BE@CGLJNDFB@glSamplerParameterf@		; `string'
PUBLIC	??_C@_0BF@GFCPAGMB@glSamplerParameterfv@	; `string'
PUBLIC	??_C@_0BG@HKEIFIHF@glSamplerParameterIiv@	; `string'
PUBLIC	??_C@_0BH@FEMFBPPB@glSamplerParameterIuiv@	; `string'
PUBLIC	??_C@_0BI@FECAOLJP@glGetSamplerParameteriv@	; `string'
PUBLIC	??_C@_0BJ@KOMJDLDN@glGetSamplerParameterIiv@	; `string'
PUBLIC	??_C@_0BI@FPHMKMKC@glGetSamplerParameterfv@	; `string'
PUBLIC	??_C@_0BK@CMBGFHDA@glGetSamplerParameterIuiv@	; `string'
PUBLIC	??_C@_0P@KALICDIM@glQueryCounter@		; `string'
PUBLIC	??_C@_0BF@JDAPDEPE@glGetQueryObjecti64v@	; `string'
PUBLIC	??_C@_0BG@NEGGOMJO@glGetQueryObjectui64v@	; `string'
PUBLIC	??_C@_0BG@NEBMAEHM@glVertexAttribDivisor@	; `string'
PUBLIC	??_C@_0BD@FLACCOEN@glVertexAttribP1ui@		; `string'
PUBLIC	??_C@_0BE@HBFDOBHD@glVertexAttribP1uiv@		; `string'
PUBLIC	??_C@_0BD@EJLHIBKD@glVertexAttribP2ui@		; `string'
PUBLIC	??_C@_0BE@DGPDJLKD@glVertexAttribP2uiv@		; `string'
PUBLIC	??_C@_0BD@PBALOGMG@glVertexAttribP3ui@		; `string'
PUBLIC	??_C@_0BE@LJDLCBD@glVertexAttribP3uiv@		; `string'
PUBLIC	??_C@_0BD@GMNMNOHP@glVertexAttribP4ui@		; `string'
PUBLIC	??_C@_0BE@LJLDGOAD@glVertexAttribP4uiv@		; `string'
PUBLIC	??_C@_0N@EFBCIBMC@glVertexP2ui@			; `string'
PUBLIC	??_C@_0O@MEKGPGN@glVertexP2uiv@			; `string'
PUBLIC	??_C@_0N@PNKOOGKH@glVertexP3ui@			; `string'
PUBLIC	??_C@_0O@DBCKEGNN@glVertexP3uiv@		; `string'
PUBLIC	??_C@_0N@GAHJNOBO@glVertexP4ui@			; `string'
PUBLIC	??_C@_0O@IDAKJKMN@glVertexP4uiv@		; `string'
PUBLIC	??_C@_0P@OLJHLLHJ@glTexCoordP1ui@		; `string'
PUBLIC	??_C@_0BA@FAFHIAFD@glTexCoordP1uiv@		; `string'
PUBLIC	??_C@_0P@PJCCBEJH@glTexCoordP2ui@		; `string'
PUBLIC	??_C@_0BA@BHPHPKID@glTexCoordP2uiv@		; `string'
PUBLIC	??_C@_0P@EBJOHDPC@glTexCoordP3ui@		; `string'
PUBLIC	??_C@_0BA@CKJHNDDD@glTexCoordP3uiv@		; `string'
PUBLIC	??_C@_0P@NMEJELEL@glTexCoordP4ui@		; `string'
PUBLIC	??_C@_0BA@JILHAPCD@glTexCoordP4uiv@		; `string'
PUBLIC	??_C@_0BE@OAHHKHKG@glMultiTexCoordP1ui@		; `string'
PUBLIC	??_C@_0BF@EGDAKPAK@glMultiTexCoordP1uiv@	; `string'
PUBLIC	??_C@_0BE@PCMCAIEI@glMultiTexCoordP2ui@		; `string'
PUBLIC	??_C@_0BF@BJANFNK@glMultiTexCoordP2uiv@		; `string'
PUBLIC	??_C@_0BE@EKHOGPCN@glMultiTexCoordP3ui@		; `string'
PUBLIC	??_C@_0BF@DMPAPMGK@glMultiTexCoordP3uiv@	; `string'
PUBLIC	??_C@_0BE@NHKJFHJE@glMultiTexCoordP4ui@		; `string'
PUBLIC	??_C@_0BF@IONACAHK@glMultiTexCoordP4uiv@	; `string'
PUBLIC	??_C@_0N@PBEFBNHO@glNormalP3ui@			; `string'
PUBLIC	??_C@_0O@MOCJMHFG@glNormalP3uiv@		; `string'
PUBLIC	??_C@_0M@PEKBINNN@glColorP3ui@			; `string'
PUBLIC	??_C@_0N@IBPDNBJE@glColorP3uiv@			; `string'
PUBLIC	??_C@_0M@GJHGLFGE@glColorP4ui@			; `string'
PUBLIC	??_C@_0N@DDNDANIE@glColorP4uiv@			; `string'
PUBLIC	??_C@_0BF@PDDGBPKP@glSecondaryColorP3ui@	; `string'
PUBLIC	??_C@_0BG@DPPPFGBG@glSecondaryColorP3uiv@	; `string'
PUBLIC	??_C@_0BD@EDGCEBP@glMinSampleShading@		; `string'
PUBLIC	??_C@_0BB@MKHLNEOM@glBlendEquationi@		; `string'
PUBLIC	??_C@_0BJ@FNMBAGAC@glBlendEquationSeparatei@	; `string'
PUBLIC	??_C@_0N@IKKELNNP@glBlendFunci@			; `string'
PUBLIC	??_C@_0BF@PDDGKNBJ@glBlendFuncSeparatei@	; `string'
PUBLIC	??_C@_0BF@BGDCPAEP@glDrawArraysIndirect@	; `string'
PUBLIC	??_C@_0BH@LJJDOEDH@glDrawElementsIndirect@	; `string'
PUBLIC	??_C@_0M@PJLEGNGH@glUniform1d@			; `string'
PUBLIC	??_C@_0M@PLPCNDDO@glUniform2d@			; `string'
PUBLIC	??_C@_0M@PKDALJAJ@glUniform3d@			; `string'
PUBLIC	??_C@_0M@PPHPKPIM@glUniform4d@			; `string'
PUBLIC	??_C@_0N@KKEKJOOG@glUniform1dv@			; `string'
PUBLIC	??_C@_0N@LIPPDBAI@glUniform2dv@			; `string'
PUBLIC	??_C@_0N@EDFGGN@glUniform3dv@			; `string'
PUBLIC	??_C@_0N@JNJEGONE@glUniform4dv@			; `string'
PUBLIC	??_C@_0BD@JLJNJPBN@glUniformMatrix2dv@		; `string'
PUBLIC	??_C@_0BD@CDCBPIHI@glUniformMatrix3dv@		; `string'
PUBLIC	??_C@_0BD@LOPGMAMB@glUniformMatrix4dv@		; `string'
PUBLIC	??_C@_0BF@KALNBGFE@glUniformMatrix2x3dv@	; `string'
PUBLIC	??_C@_0BF@DNGKCOON@glUniformMatrix2x4dv@	; `string'
PUBLIC	??_C@_0BF@NDFNKCJE@glUniformMatrix3x2dv@	; `string'
PUBLIC	??_C@_0BF@PGDGPNEI@glUniformMatrix3x4dv@	; `string'
PUBLIC	??_C@_0BF@MOFIJCCM@glUniformMatrix4x2dv@	; `string'
PUBLIC	??_C@_0BF@HGOEPFEJ@glUniformMatrix4x3dv@	; `string'
PUBLIC	??_C@_0P@NGEMHI@glGetUniformdv@			; `string'
PUBLIC	??_C@_0BP@IBIPLDOA@glGetSubroutineUniformLocation@ ; `string'
PUBLIC	??_C@_0BF@ONDIGCJG@glGetSubroutineIndex@	; `string'
PUBLIC	??_C@_0BP@FAPFAJFP@glGetActiveSubroutineUniformiv@ ; `string'
PUBLIC	??_C@_0CB@KCFFPCGJ@glGetActiveSubroutineUniformNam@ ; `string'
PUBLIC	??_C@_0BK@JPHEACLL@glGetActiveSubroutineName@	; `string'
PUBLIC	??_C@_0BI@CDPOBBHI@glUniformSubroutinesuiv@	; `string'
PUBLIC	??_C@_0BK@BLMOFAGJ@glGetUniformSubroutineuiv@	; `string'
PUBLIC	??_C@_0BE@LOKJCDFH@glGetProgramStageiv@		; `string'
PUBLIC	??_C@_0BC@PAPDGMLA@glPatchParameteri@		; `string'
PUBLIC	??_C@_0BD@LJKINJKN@glPatchParameterfv@		; `string'
PUBLIC	??_C@_0BI@BPJKLMIG@glBindTransformFeedback@	; `string'
PUBLIC	??_C@_0BL@DIGEBFBK@glDeleteTransformFeedbacks@	; `string'
PUBLIC	??_C@_0BI@KANKBGAE@glGenTransformFeedbacks@	; `string'
PUBLIC	??_C@_0BG@BGFLKHBM@glIsTransformFeedback@	; `string'
PUBLIC	??_C@_0BJ@FFNLKBCB@glPauseTransformFeedback@	; `string'
PUBLIC	??_C@_0BK@JMHONFHF@glResumeTransformFeedback@	; `string'
PUBLIC	??_C@_0BI@LEOILCPN@glDrawTransformFeedback@	; `string'
PUBLIC	??_C@_0BO@IGLFNCDG@glDrawTransformFeedbackStream@ ; `string'
PUBLIC	??_C@_0BE@BDKPJDEE@glBeginQueryIndexed@		; `string'
PUBLIC	??_C@_0BC@DPMHMNME@glEndQueryIndexed@		; `string'
PUBLIC	??_C@_0BE@CCFJPMFI@glGetQueryIndexediv@		; `string'
PUBLIC	??_C@_0BI@HGKABJPJ@glReleaseShaderCompiler@	; `string'
PUBLIC	??_C@_0P@IMINELFB@glShaderBinary@		; `string'
PUBLIC	??_C@_0BL@MLAOOHPD@glGetShaderPrecisionFormat@	; `string'
PUBLIC	??_C@_0O@JDFJDNND@glDepthRangef@		; `string'
PUBLIC	??_C@_0O@FMBMCDIL@glClearDepthf@		; `string'
PUBLIC	??_C@_0BD@JBCEHKON@glGetProgramBinary@		; `string'
PUBLIC	??_C@_0BA@MIIDHOO@glProgramBinary@		; `string'
PUBLIC	??_C@_0BE@EELDBEME@glProgramParameteri@		; `string'
PUBLIC	??_C@_0BD@CADKHDMH@glUseProgramStages@		; `string'
PUBLIC	??_C@_0BG@IAIOGMEB@glActiveShaderProgram@	; `string'
PUBLIC	??_C@_0BH@BOJGDFJN@glCreateShaderProgramv@	; `string'
PUBLIC	??_C@_0BG@GLPOKNCG@glBindProgramPipeline@	; `string'
PUBLIC	??_C@_0BJ@CHBGABHE@glDeleteProgramPipelines@	; `string'
PUBLIC	??_C@_0BG@CCBKOCA@glGenProgramPipelines@	; `string'
PUBLIC	??_C@_0BE@DLHPDHCH@glIsProgramPipeline@		; `string'
PUBLIC	??_C@_0BH@DNOPNJMO@glGetProgramPipelineiv@	; `string'
PUBLIC	??_C@_0BD@COCLMGIM@glProgramUniform1i@		; `string'
PUBLIC	??_C@_0BE@JNEFDKLN@glProgramUniform1iv@		; `string'
PUBLIC	??_C@_0BD@KJLDNKED@glProgramUniform1f@		; `string'
PUBLIC	??_C@_0BE@JGBJHNIA@glProgramUniform1fv@		; `string'
PUBLIC	??_C@_0BD@JLIFLIMB@glProgramUniform1d@		; `string'
PUBLIC	??_C@_0BE@JFJNKJOO@glProgramUniform1dv@		; `string'
PUBLIC	??_C@_0BE@EFCDGODH@glProgramUniform1ui@		; `string'
PUBLIC	??_C@_0BF@MBJNFIBB@glProgramUniform1uiv@	; `string'
PUBLIC	??_C@_0BD@CMGNHINF@glProgramUniform2i@		; `string'
PUBLIC	??_C@_0BE@IPPAJFFD@glProgramUniform2iv@		; `string'
PUBLIC	??_C@_0BD@KLPFGEBK@glProgramUniform2f@		; `string'
PUBLIC	??_C@_0BE@IEKMNCGO@glProgramUniform2fv@		; `string'
PUBLIC	??_C@_0BD@JJMDAGJI@glProgramUniform2d@		; `string'
PUBLIC	??_C@_0BE@IHCIAGAA@glProgramUniform2dv@		; `string'
PUBLIC	??_C@_0BE@FHJGMBNJ@glProgramUniform2ui@		; `string'
PUBLIC	??_C@_0BF@IGDNCCMB@glProgramUniform2uiv@	; `string'
PUBLIC	??_C@_0BD@CNKPBCOC@glProgramUniform3i@		; `string'
PUBLIC	??_C@_0BE@DHEMPCDG@glProgramUniform3iv@		; `string'
PUBLIC	??_C@_0BD@KKDHAOCN@glProgramUniform3f@		; `string'
PUBLIC	??_C@_0BE@DMBALFAL@glProgramUniform3fv@		; `string'
PUBLIC	??_C@_0BD@JIABGMKP@glProgramUniform3d@		; `string'
PUBLIC	??_C@_0BE@DPJEGBGF@glProgramUniform3dv@		; `string'
PUBLIC	??_C@_0BE@OPCKKGLM@glProgramUniform3ui@		; `string'
PUBLIC	??_C@_0BF@LLFNALHB@glProgramUniform3uiv@	; `string'
PUBLIC	??_C@_0BD@CIOAAEGH@glProgramUniform4i@		; `string'
PUBLIC	??_C@_0BE@KKJLMKIP@glProgramUniform4iv@		; `string'
PUBLIC	??_C@_0BD@KPHIBIKI@glProgramUniform4f@		; `string'
PUBLIC	??_C@_0BE@KBMHINLC@glProgramUniform4fv@		; `string'
PUBLIC	??_C@_0BD@JNEOHKCK@glProgramUniform4d@		; `string'
PUBLIC	??_C@_0BE@KCEDFJNM@glProgramUniform4dv@		; `string'
PUBLIC	??_C@_0BE@HCPNJOAF@glProgramUniform4ui@		; `string'
PUBLIC	??_C@_0BF@JHNNHGB@glProgramUniform4uiv@		; `string'
PUBLIC	??_C@_0BK@PDPPIOAF@glProgramUniformMatrix2fv@	; `string'
PUBLIC	??_C@_0BK@ELEDOJGA@glProgramUniformMatrix3fv@	; `string'
PUBLIC	??_C@_0BK@NGJENBNJ@glProgramUniformMatrix4fv@	; `string'
PUBLIC	??_C@_0BK@PAHLFKGL@glProgramUniformMatrix2dv@	; `string'
PUBLIC	??_C@_0BK@EIMHDNAO@glProgramUniformMatrix3dv@	; `string'
PUBLIC	??_C@_0BK@NFBAAFLH@glProgramUniformMatrix4dv@	; `string'
PUBLIC	??_C@_0BM@DBFCEBJD@glProgramUniformMatrix2x3fv@	; `string'
PUBLIC	??_C@_0BM@ECLCPFFD@glProgramUniformMatrix3x2fv@	; `string'
PUBLIC	??_C@_0BM@KMIFHJCK@glProgramUniformMatrix2x4fv@	; `string'
PUBLIC	??_C@_0BM@FPLHMFOL@glProgramUniformMatrix4x2fv@	; `string'
PUBLIC	??_C@_0BM@GHNJKKIP@glProgramUniformMatrix3x4fv@	; `string'
PUBLIC	??_C@_0BM@OHALKCIO@glProgramUniformMatrix4x3fv@	; `string'
PUBLIC	??_C@_0BM@DCNGJFPN@glProgramUniformMatrix2x3dv@	; `string'
PUBLIC	??_C@_0BM@EBDGCBDN@glProgramUniformMatrix3x2dv@	; `string'
PUBLIC	??_C@_0BM@KPABKNEE@glProgramUniformMatrix2x4dv@	; `string'
PUBLIC	??_C@_0BM@FMDDBBIF@glProgramUniformMatrix4x2dv@	; `string'
PUBLIC	??_C@_0BM@GEFNHOOB@glProgramUniformMatrix3x4dv@	; `string'
PUBLIC	??_C@_0BM@OEIPHGOA@glProgramUniformMatrix4x3dv@	; `string'
PUBLIC	??_C@_0BK@HHHCKEGH@glValidateProgramPipeline@	; `string'
PUBLIC	??_C@_0BM@BFFCFFFG@glGetProgramPipelineInfoLog@	; `string'
PUBLIC	??_C@_0BC@KBPIECHE@glVertexAttribL1d@		; `string'
PUBLIC	??_C@_0BC@KDLOPMCN@glVertexAttribL2d@		; `string'
PUBLIC	??_C@_0BC@KCHMJGBK@glVertexAttribL3d@		; `string'
PUBLIC	??_C@_0BC@KHDDIAJP@glVertexAttribL4d@		; `string'
PUBLIC	??_C@_0BD@COKMJDBH@glVertexAttribL1dv@		; `string'
PUBLIC	??_C@_0BD@DMBJDMPJ@glVertexAttribL2dv@		; `string'
PUBLIC	??_C@_0BD@IEKFFLJM@glVertexAttribL3dv@		; `string'
PUBLIC	??_C@_0BD@BJHCGDCF@glVertexAttribL4dv@		; `string'
PUBLIC	??_C@_0BH@JBHDDPGM@glVertexAttribLPointer@	; `string'
PUBLIC	??_C@_0BF@JADLCNLO@glGetVertexAttribLdv@	; `string'
PUBLIC	??_C@_0BB@JIDIDPIB@glViewportArrayv@		; `string'
PUBLIC	??_C@_0BD@JIBIAPIN@glViewportIndexedf@		; `string'
PUBLIC	??_C@_0BE@OKPEDJOC@glViewportIndexedfv@		; `string'
PUBLIC	??_C@_0BA@BMNFINIA@glScissorArrayv@		; `string'
PUBLIC	??_C@_0BB@BJHNCIAL@glScissorIndexed@		; `string'
PUBLIC	??_C@_0BC@OOKOHKNA@glScissorIndexedv@		; `string'
PUBLIC	??_C@_0BD@JLCIOMKN@glDepthRangeArrayv@		; `string'
PUBLIC	??_C@_0BE@FMCFIJBP@glDepthRangeIndexed@		; `string'
PUBLIC	??_C@_0O@JKEOHGC@glGetFloati_v@			; `string'
PUBLIC	??_C@_0P@PDJCBGIA@glGetDoublei_v@		; `string'
PUBLIC	??_C@_0CC@FBJBJHCN@glDrawArraysInstancedBaseInstan@ ; `string'
PUBLIC	??_C@_0CE@NGNINKJD@glDrawElementsInstancedBaseInst@ ; `string'
PUBLIC	??_C@_0CO@GCMNEAOA@glDrawElementsInstancedBaseVert@ ; `string'
PUBLIC	??_C@_0BG@BAOCDJPF@glGetInternalformativ@	; `string'
PUBLIC	??_C@_0CB@CEHFMJFN@glGetActiveAtomicCounterBufferi@ ; `string'
PUBLIC	??_C@_0BD@GAKEPNGD@glBindImageTexture@		; `string'
PUBLIC	??_C@_0BA@HIHPNLBJ@glMemoryBarrier@		; `string'
PUBLIC	??_C@_0P@LCLGPEBO@glTexStorage1D@		; `string'
PUBLIC	??_C@_0P@LAPAEKEH@glTexStorage2D@		; `string'
PUBLIC	??_C@_0P@LBDCCAHA@glTexStorage3D@		; `string'
PUBLIC	??_C@_0CB@NDMLCEF@glDrawTransformFeedbackInstance@ ; `string'
PUBLIC	??_C@_0CH@OMPFKBLK@glDrawTransformFeedbackStreamIn@ ; `string'
PUBLIC	??_C@_0BC@FCMBBKMP@glClearBufferData@		; `string'
PUBLIC	??_C@_0BF@FDHIBCMD@glClearBufferSubData@	; `string'
PUBLIC	??_C@_0BC@DKKFFIGC@glDispatchCompute@		; `string'
PUBLIC	??_C@_0BK@EJMOGMMI@glDispatchComputeIndirect@	; `string'
PUBLIC	??_C@_0BD@BNCHOBBL@glCopyImageSubData@		; `string'
PUBLIC	??_C@_0BI@MLACHGDK@glFramebufferParameteri@	; `string'
PUBLIC	??_C@_0BM@BFEEFCMK@glGetFramebufferParameteriv@	; `string'
PUBLIC	??_C@_0BI@PHNNEGBD@glGetInternalformati64v@	; `string'
PUBLIC	??_C@_0BI@FJDKFLGL@glInvalidateTexSubImage@	; `string'
PUBLIC	??_C@_0BF@KHIECPKG@glInvalidateTexImage@	; `string'
PUBLIC	??_C@_0BK@HOHOHNAC@glInvalidateBufferSubData@	; `string'
PUBLIC	??_C@_0BH@OGIFIBHA@glInvalidateBufferData@	; `string'
PUBLIC	??_C@_0BI@OAJPOHIP@glInvalidateFramebuffer@	; `string'
PUBLIC	??_C@_0BL@IHGLAPPE@glInvalidateSubFramebuffer@	; `string'
PUBLIC	??_C@_0BK@IKGAIKOP@glMultiDrawArraysIndirect@	; `string'
PUBLIC	??_C@_0BM@KHEEFMKO@glMultiDrawElementsIndirect@	; `string'
PUBLIC	??_C@_0BI@ICGPDPK@glGetProgramInterfaceiv@	; `string'
PUBLIC	??_C@_0BK@DBDCONKB@glGetProgramResourceIndex@	; `string'
PUBLIC	??_C@_0BJ@OHCPEAGJ@glGetProgramResourceName@	; `string'
PUBLIC	??_C@_0BH@LEDFEPHI@glGetProgramResourceiv@	; `string'
PUBLIC	??_C@_0BN@BIJNENLC@glGetProgramResourceLocation@ ; `string'
PUBLIC	??_C@_0CC@GHECGAIH@glGetProgramResourceLocationInd@ ; `string'
PUBLIC	??_C@_0BM@GDDCNIBO@glShaderStorageBlockBinding@	; `string'
PUBLIC	??_C@_0BB@DPMGLFNI@glTexBufferRange@		; `string'
PUBLIC	??_C@_0BK@PDJAKDKP@glTexStorage2DMultisample@	; `string'
PUBLIC	??_C@_0BK@GOJPECNJ@glTexStorage3DMultisample@	; `string'
PUBLIC	??_C@_0O@BNFDGIMP@glTextureView@		; `string'
PUBLIC	??_C@_0BD@FCGJAOHG@glBindVertexBuffer@		; `string'
PUBLIC	??_C@_0BF@JEIPPBFE@glVertexAttribFormat@	; `string'
PUBLIC	??_C@_0BG@KJAHAHDI@glVertexAttribIFormat@	; `string'
PUBLIC	??_C@_0BG@OBOHAJFM@glVertexAttribLFormat@	; `string'
PUBLIC	??_C@_0BG@MLFHCGE@glVertexAttribBinding@	; `string'
PUBLIC	??_C@_0BH@GNGCLGOI@glVertexBindingDivisor@	; `string'
PUBLIC	??_C@_0BG@MNBDCEEP@glDebugMessageControl@	; `string'
PUBLIC	??_C@_0BF@DGOJNFDO@glDebugMessageInsert@	; `string'
PUBLIC	??_C@_0BH@IGFENJCI@glDebugMessageCallback@	; `string'
PUBLIC	??_C@_0BF@FGBMJKND@glGetDebugMessageLog@	; `string'
PUBLIC	??_C@_0BB@DEFFBEGJ@glPushDebugGroup@		; `string'
PUBLIC	??_C@_0BA@PMJBDENK@glPopDebugGroup@		; `string'
PUBLIC	??_C@_0O@EFJDECDM@glObjectLabel@		; `string'
PUBLIC	??_C@_0BB@MOEDHKDB@glGetObjectLabel@		; `string'
PUBLIC	??_C@_0BB@FBABGDIL@glObjectPtrLabel@		; `string'
PUBLIC	??_C@_0BE@MIJFJOHM@glGetObjectPtrLabel@		; `string'
PUBLIC	??_C@_0BA@COBILMHM@glBufferStorage@		; `string'
PUBLIC	??_C@_0BA@FNPOIBAF@glClearTexImage@		; `string'
PUBLIC	??_C@_0BD@CFALBON@glClearTexSubImage@		; `string'
PUBLIC	??_C@_0BC@ENBBLPHM@glBindBuffersBase@		; `string'
PUBLIC	??_C@_0BD@ODFFOKPN@glBindBuffersRange@		; `string'
PUBLIC	??_C@_0P@KHDEIIMA@glBindTextures@		; `string'
PUBLIC	??_C@_0P@FADPDFKM@glBindSamplers@		; `string'
PUBLIC	??_C@_0BE@NAMJLOCK@glBindImageTextures@		; `string'
PUBLIC	??_C@_0BE@LNCGJHDC@glBindVertexBuffers@		; `string'
PUBLIC	??_C@_0O@DMMKFMGC@glClipControl@		; `string'
PUBLIC	??_C@_0BL@HPCMJLAK@glCreateTransformFeedbacks@	; `string'
PUBLIC	??_C@_0BO@EGLKNJFA@glTransformFeedbackBufferBase@ ; `string'
PUBLIC	??_C@_0BP@NBIGCNHI@glTransformFeedbackBufferRange@ ; `string'
PUBLIC	??_C@_0BJ@OFMLPMDO@glGetTransformFeedbackiv@	; `string'
PUBLIC	??_C@_0BK@IPHNHFEI@glGetTransformFeedbacki_v@	; `string'
PUBLIC	??_C@_0BM@KDHFPNLE@glGetTransformFeedbacki64_v@	; `string'
PUBLIC	??_C@_0BA@LNBCEANP@glCreateBuffers@		; `string'
PUBLIC	??_C@_0BF@INMFIINC@glNamedBufferStorage@	; `string'
PUBLIC	??_C@_0BC@LHEABGCG@glNamedBufferData@		; `string'
PUBLIC	??_C@_0BF@MDEBAFLD@glNamedBufferSubData@	; `string'
PUBLIC	??_C@_0BJ@MJPDCHND@glCopyNamedBufferSubData@	; `string'
PUBLIC	??_C@_0BH@KJMLMCB@glClearNamedBufferData@	; `string'
PUBLIC	??_C@_0BK@BNIDNJBH@glClearNamedBufferSubData@	; `string'
PUBLIC	??_C@_0BB@JLMCGIDB@glMapNamedBuffer@		; `string'
PUBLIC	??_C@_0BG@JLCGKFD@glMapNamedBufferRange@	; `string'
PUBLIC	??_C@_0BD@LAAONAHD@glUnmapNamedBuffer@		; `string'
PUBLIC	??_C@_0BO@DBGNKBKH@glFlushMappedNamedBufferRange@ ; `string'
PUBLIC	??_C@_0BM@KFAGBFPK@glGetNamedBufferParameteriv@	; `string'
PUBLIC	??_C@_0BO@ECJNIDNL@glGetNamedBufferParameteri64v@ ; `string'
PUBLIC	??_C@_0BJ@NBEMEIKG@glGetNamedBufferPointerv@	; `string'
PUBLIC	??_C@_0BI@PJBCKPNA@glGetNamedBufferSubData@	; `string'
PUBLIC	??_C@_0BF@DDKJIBLC@glCreateFramebuffers@	; `string'
PUBLIC	??_C@_0BP@MGCPNBGC@glNamedFramebufferRenderbuffer@ ; `string'
PUBLIC	??_C@_0BN@LBMOOIHC@glNamedFramebufferParameteri@ ; `string'
PUBLIC	??_C@_0BK@PNJJLPPI@glNamedFramebufferTexture@	; `string'
PUBLIC	??_C@_0BP@PHGPDAJM@glNamedFramebufferTextureLayer@ ; `string'
PUBLIC	??_C@_0BN@MOAIHNEF@glNamedFramebufferDrawBuffer@ ; `string'
PUBLIC	??_C@_0BO@CGKJHFH@glNamedFramebufferDrawBuffers@ ; `string'
PUBLIC	??_C@_0BN@LPANNPJE@glNamedFramebufferReadBuffer@ ; `string'
PUBLIC	??_C@_0CB@OGGNKJIL@glInvalidateNamedFramebufferDat@ ; `string'
PUBLIC	??_C@_0CE@DEGDCFND@glInvalidateNamedFramebufferSub@ ; `string'
PUBLIC	??_C@_0BK@NPOLJJAK@glClearNamedFramebufferiv@	; `string'
PUBLIC	??_C@_0BL@JENKNAJN@glClearNamedFramebufferuiv@	; `string'
PUBLIC	??_C@_0BK@NELHNODH@glClearNamedFramebufferfv@	; `string'
PUBLIC	??_C@_0BK@BJONNAKJ@glClearNamedFramebufferfi@	; `string'
PUBLIC	??_C@_0BH@FNFDNHAI@glBlitNamedFramebuffer@	; `string'
PUBLIC	??_C@_0BO@LMABFPGK@glCheckNamedFramebufferStatus@ ; `string'
PUBLIC	??_C@_0CB@COGAJBEM@glGetNamedFramebufferParameteri@ ; `string'
PUBLIC	??_C@_0CL@BGDPEPCC@glGetNamedFramebufferAttachment@ ; `string'
PUBLIC	??_C@_0BG@JJNJGAME@glCreateRenderbuffers@	; `string'
PUBLIC	??_C@_0BL@DGDPFKGM@glNamedRenderbufferStorage@	; `string'
PUBLIC	??_C@_0CG@IDKJGKBA@glNamedRenderbufferStorageMulti@ ; `string'
PUBLIC	??_C@_0CC@FCEAEAHI@glGetNamedRenderbufferParameter@ ; `string'
PUBLIC	??_C@_0BB@LABGPBKD@glCreateTextures@		; `string'
PUBLIC	??_C@_0BA@BEJOBNBA@glTextureBuffer@		; `string'
PUBLIC	??_C@_0BF@HAEPGPBJ@glTextureBufferRange@	; `string'
PUBLIC	??_C@_0BD@CJOBHECL@glTextureStorage1D@		; `string'
PUBLIC	??_C@_0BD@CLKHMKHC@glTextureStorage2D@		; `string'
PUBLIC	??_C@_0BD@CKGFKAEF@glTextureStorage3D@		; `string'
PUBLIC	??_C@_0BO@CIHBMJOI@glTextureStorage2DMultisample@ ; `string'
PUBLIC	??_C@_0BO@LFHOCIJO@glTextureStorage3DMultisample@ ; `string'
PUBLIC	??_C@_0BE@IDMGLJDA@glTextureSubImage1D@		; `string'
PUBLIC	??_C@_0BE@IBIAAHGJ@glTextureSubImage2D@		; `string'
PUBLIC	??_C@_0BE@IAECGNFO@glTextureSubImage3D@		; `string'
PUBLIC	??_C@_0BO@NIHAIHFC@glCompressedTextureSubImage1D@ ; `string'
PUBLIC	??_C@_0BO@NKDGDJAL@glCompressedTextureSubImage2D@ ; `string'
PUBLIC	??_C@_0BO@NLPEFDDM@glCompressedTextureSubImage3D@ ; `string'
PUBLIC	??_C@_0BI@DBEKPOLO@glCopyTextureSubImage1D@	; `string'
PUBLIC	??_C@_0BI@DDAMEAOH@glCopyTextureSubImage2D@	; `string'
PUBLIC	??_C@_0BI@DCMOCKNA@glCopyTextureSubImage3D@	; `string'
PUBLIC	??_C@_0BE@NLINBPMM@glTextureParameterf@		; `string'
PUBLIC	??_C@_0BF@OLGMNNPE@glTextureParameterfv@	; `string'
PUBLIC	??_C@_0BE@FMBFADAD@glTextureParameteri@		; `string'
PUBLIC	??_C@_0BG@CMHFNPIN@glTextureParameterIiv@	; `string'
PUBLIC	??_C@_0BH@OHPFFIFI@glTextureParameterIuiv@	; `string'
PUBLIC	??_C@_0BF@OADAJKMJ@glTextureParameteriv@	; `string'
PUBLIC	??_C@_0BI@JJPLGFEG@glGenerateTextureMipmap@	; `string'
PUBLIC	??_C@_0BC@NKGMGGNI@glBindTextureUnit@		; `string'
PUBLIC	??_C@_0BC@PJDCJNIH@glGetTextureImage@		; `string'
PUBLIC	??_C@_0BM@JOKODHH@glGetCompressedTextureImage@	; `string'
PUBLIC	??_C@_0BN@HMEFKCC@glGetTextureLevelParameterfv@	; `string'
PUBLIC	??_C@_0BN@MJIBNBP@glGetTextureLevelParameteriv@	; `string'
PUBLIC	??_C@_0BI@NBDPHHJH@glGetTextureParameterfv@	; `string'
PUBLIC	??_C@_0BJ@PIPELMMF@glGetTextureParameterIiv@	; `string'
PUBLIC	??_C@_0BK@JPCGBAJJ@glGetTextureParameterIuiv@	; `string'
PUBLIC	??_C@_0BI@NKGDDAKK@glGetTextureParameteriv@	; `string'
PUBLIC	??_C@_0BF@CMMGIOCI@glCreateVertexArrays@	; `string'
PUBLIC	??_C@_0BL@FEKBMKFD@glDisableVertexArrayAttrib@	; `string'
PUBLIC	??_C@_0BK@MJMKFCHC@glEnableVertexArrayAttrib@	; `string'
PUBLIC	??_C@_0BL@GGCAPDMO@glVertexArrayElementBuffer@	; `string'
PUBLIC	??_C@_0BK@BIEMNHGJ@glVertexArrayVertexBuffer@	; `string'
PUBLIC	??_C@_0BL@DAGELPBO@glVertexArrayVertexBuffers@	; `string'
PUBLIC	??_C@_0BL@DJHJAEGB@glVertexArrayAttribBinding@	; `string'
PUBLIC	??_C@_0BK@ONFBAOHM@glVertexArrayAttribFormat@	; `string'
PUBLIC	??_C@_0BL@JMMLHBDN@glVertexArrayAttribIFormat@	; `string'
PUBLIC	??_C@_0BL@NECLHPFJ@glVertexArrayAttribLFormat@	; `string'
PUBLIC	??_C@_0BM@BNDNIOBB@glVertexArrayBindingDivisor@	; `string'
PUBLIC	??_C@_0BD@CPJNCJFG@glGetVertexArrayiv@		; `string'
PUBLIC	??_C@_0BK@FIIPMDBK@glGetVertexArrayIndexediv@	; `string'
PUBLIC	??_C@_0BM@HHNNHCN@glGetVertexArrayIndexed64iv@	; `string'
PUBLIC	??_C@_0BB@EHBNEMMP@glCreateSamplers@		; `string'
PUBLIC	??_C@_0BJ@GJEEIMGK@glCreateProgramPipelines@	; `string'
PUBLIC	??_C@_0BA@PGNDPLG@glCreateQueries@		; `string'
PUBLIC	??_C@_0BL@KFECDHBF@glGetQueryBufferObjecti64v@	; `string'
PUBLIC	??_C@_0BJ@OBIFNHGB@glGetQueryBufferObjectiv@	; `string'
PUBLIC	??_C@_0BM@DFNHDHD@glGetQueryBufferObjectui64v@	; `string'
PUBLIC	??_C@_0BK@EOIEAGAD@glGetQueryBufferObjectuiv@	; `string'
PUBLIC	??_C@_0BI@IDCHHHAI@glMemoryBarrierByRegion@	; `string'
PUBLIC	??_C@_0BF@JEEEKNGB@glGetTextureSubImage@	; `string'
PUBLIC	??_C@_0BP@BIDENANP@glGetCompressedTextureSubImage@ ; `string'
PUBLIC	??_C@_0BJ@ILPAOCDN@glGetGraphicsResetStatus@	; `string'
PUBLIC	??_C@_0BJ@HLNIHAOG@glGetnCompressedTexImage@	; `string'
PUBLIC	??_C@_0P@FBKOCLCM@glGetnTexImage@		; `string'
PUBLIC	??_C@_0BA@KLGIFHJB@glGetnUniformdv@		; `string'
PUBLIC	??_C@_0BA@KIOMIDPP@glGetnUniformfv@		; `string'
PUBLIC	??_C@_0BA@KDLAMEMC@glGetnUniformiv@		; `string'
PUBLIC	??_C@_0BB@BBJMBEC@glGetnUniformuiv@		; `string'
PUBLIC	??_C@_0O@NELODAJJ@glReadnPixels@		; `string'
PUBLIC	??_C@_0M@FBDPJCFH@glGetnMapdv@			; `string'
PUBLIC	??_C@_0M@FCLLEGDJ@glGetnMapfv@			; `string'
PUBLIC	??_C@_0M@FJOHABAE@glGetnMapiv@			; `string'
PUBLIC	??_C@_0BB@JKBANCED@glGetnPixelMapfv@		; `string'
PUBLIC	??_C@_0BC@MDPMMCLE@glGetnPixelMapuiv@		; `string'
PUBLIC	??_C@_0BC@NCENOEBC@glGetnPixelMapusv@		; `string'
PUBLIC	??_C@_0BF@NBHIHHJA@glGetnPolygonStipple@	; `string'
PUBLIC	??_C@_0BB@EFKGOAOL@glGetnColorTable@		; `string'
PUBLIC	??_C@_0BI@GBFNHONB@glGetnConvolutionFilter@	; `string'
PUBLIC	??_C@_0BG@LBKKJBFC@glGetnSeparableFilter@	; `string'
PUBLIC	??_C@_0BA@POEMGEO@glGetnHistogram@		; `string'
PUBLIC	??_C@_0N@EFFKFJMK@glGetnMinmax@			; `string'
PUBLIC	??_C@_0BB@MNKDFGFC@glTextureBarrier@		; `string'
PUBLIC	??_C@_0BD@LNCLLNDI@glSpecializeShader@		; `string'
PUBLIC	??_C@_0BP@GGIOCPJI@glMultiDrawArraysIndirectCount@ ; `string'
PUBLIC	??_C@_0CB@BPEMAMPH@glMultiDrawElementsIndirectCoun@ ; `string'
PUBLIC	??_C@_0BF@ECLDHBOO@glPolygonOffsetClamp@	; `string'
PUBLIC	??_C@_0O@ENGHJHNB@OpenGL?5ES?9CM?5@		; `string'
PUBLIC	??_C@_0O@EMKFPNOG@OpenGL?5ES?9CL?5@		; `string'
PUBLIC	??_C@_0L@JLFHOCGA@OpenGL?5ES?5@			; `string'
PUBLIC	??_C@_05KBEOJPB@?$CFd?4?$CFd@			; `string'
PUBLIC	GLAD_GL_VERSION_4_6
PUBLIC	GLAD_GL_VERSION_1_5
PUBLIC	glad_glUniform1i
PUBLIC	GLAD_GL_VERSION_4_3
PUBLIC	GLAD_GL_VERSION_3_3
PUBLIC	GLAD_GL_VERSION_1_1
PUBLIC	GLAD_GL_VERSION_3_2
PUBLIC	GLAD_GL_VERSION_4_4
PUBLIC	GLAD_GL_VERSION_2_1
PUBLIC	GLAD_GL_VERSION_4_0
PUBLIC	GLAD_GL_VERSION_3_1
PUBLIC	GLAD_GL_VERSION_1_4
PUBLIC	GLAD_GL_VERSION_2_0
PUBLIC	glad_glClear
PUBLIC	GLAD_GL_VERSION_1_0
PUBLIC	GLAD_GL_VERSION_4_5
PUBLIC	GLAD_GL_VERSION_1_3
PUBLIC	glad_glDrawElements
PUBLIC	glad_glUniformMatrix4fv
PUBLIC	GLAD_GL_VERSION_4_2
PUBLIC	glad_glBlendFunc
PUBLIC	GLVersion
PUBLIC	GLAD_GL_VERSION_4_1
PUBLIC	glad_glActiveTexture
PUBLIC	glad_glCullFace
PUBLIC	glad_glGetStringi
PUBLIC	GLAD_GL_VERSION_1_2
PUBLIC	glad_glGetString
PUBLIC	glad_glUniform1f
PUBLIC	GLAD_GL_VERSION_3_0
PUBLIC	glad_glPolygonMode
PUBLIC	glad_glGetUniformLocation
PUBLIC	glad_glGetActiveUniform
PUBLIC	glad_glGetProgramInfoLog
PUBLIC	glad_glCompileShader
PUBLIC	glad_glGetProgramiv
PUBLIC	glad_glShaderSource
PUBLIC	glad_glCreateShader
PUBLIC	glad_glGetShaderInfoLog
PUBLIC	glad_glGetShaderiv
PUBLIC	glad_glCreateProgram
PUBLIC	glad_glUseProgram
PUBLIC	glad_glAttachShader
PUBLIC	glad_glLinkProgram
PUBLIC	glad_glGetIntegerv
PUBLIC	glad_glEnable
PUBLIC	glad_glTexParameteri
PUBLIC	glad_glGetError
PUBLIC	glad_glTexSubImage2D
PUBLIC	glad_glGenerateMipmap
PUBLIC	glad_glDisable
PUBLIC	glad_glGenTextures
PUBLIC	glad_glPixelStorei
PUBLIC	glad_glTexImage2D
PUBLIC	glad_glBindTexture
PUBLIC	glad_glTexStorage2D
PUBLIC	glad_glClearBufferfv
PUBLIC	glad_glClearBufferfi
PUBLIC	glad_glStencilMask
PUBLIC	glad_glCheckFramebufferStatus
PUBLIC	glad_glBindFramebuffer
PUBLIC	glad_glDeleteTextures
PUBLIC	glad_glDrawBuffers
PUBLIC	glad_glViewport
PUBLIC	glad_glGenFramebuffers
PUBLIC	glad_glDeleteFramebuffers
PUBLIC	glad_glFramebufferTexture
PUBLIC	glad_glDrawBuffer
PUBLIC	glad_glTexParameterfv
PUBLIC	glad_glReadBuffer
PUBLIC	glad_glUniform4f
EXTRN	__imp_malloc:PROC
EXTRN	__imp___stdio_common_vsscanf:PROC
EXTRN	__imp_strstr:PROC
EXTRN	__imp_FreeLibrary:PROC
EXTRN	__imp_free:PROC
EXTRN	__imp_GetProcAddress:PROC
EXTRN	__imp_LoadLibraryW:PROC
EXTRN	__imp_strncmp:PROC
	ALIGN	8

glad_glVertexAttribPointer DQ 01H DUP (?)
glad_glGetAttribLocation DQ 01H DUP (?)
glad_glGenVertexArrays DQ 01H DUP (?)
glad_glBufferData DQ 01H DUP (?)
glad_glBindVertexArray DQ 01H DUP (?)
glad_glEnableVertexAttribArray DQ 01H DUP (?)
glad_glDisableVertexAttribArray DQ 01H DUP (?)
glad_glGenBuffers DQ 01H DUP (?)
glad_glBindBuffer DQ 01H DUP (?)
glad_glBufferSubData DQ 01H DUP (?)
GLAD_GL_VERSION_4_6 DD 01H DUP (?)
GLAD_GL_VERSION_1_5 DD 01H DUP (?)
glad_glUniform1i DQ 01H DUP (?)
GLAD_GL_VERSION_4_3 DD 01H DUP (?)
GLAD_GL_VERSION_3_3 DD 01H DUP (?)
GLAD_GL_VERSION_1_1 DD 01H DUP (?)
GLAD_GL_VERSION_3_2 DD 01H DUP (?)
GLAD_GL_VERSION_4_4 DD 01H DUP (?)
GLAD_GL_VERSION_2_1 DD 01H DUP (?)
GLAD_GL_VERSION_4_0 DD 01H DUP (?)
GLAD_GL_VERSION_3_1 DD 01H DUP (?)
GLAD_GL_VERSION_1_4 DD 01H DUP (?)
GLAD_GL_VERSION_2_0 DD 01H DUP (?)
glad_glClear DQ	01H DUP (?)
GLAD_GL_VERSION_1_0 DD 01H DUP (?)
GLAD_GL_VERSION_4_5 DD 01H DUP (?)
GLAD_GL_VERSION_1_3 DD 01H DUP (?)
	ALIGN	8

glad_glDrawElements DQ 01H DUP (?)
glad_glUniformMatrix4fv DQ 01H DUP (?)
GLAD_GL_VERSION_4_2 DD 01H DUP (?)
	ALIGN	8

glad_glBlendFunc DQ 01H DUP (?)
GLVersion DQ	01H DUP (?)
GLAD_GL_VERSION_4_1 DD 01H DUP (?)
	ALIGN	8

glad_glActiveTexture DQ 01H DUP (?)
glad_glCullFace DQ 01H DUP (?)
glad_glGetStringi DQ 01H DUP (?)
GLAD_GL_VERSION_1_2 DD 01H DUP (?)
	ALIGN	8

glad_glGetString DQ 01H DUP (?)
glad_glUniform1f DQ 01H DUP (?)
GLAD_GL_VERSION_3_0 DD 01H DUP (?)
	ALIGN	8

glad_glPolygonMode DQ 01H DUP (?)
glad_glGetUniformLocation DQ 01H DUP (?)
glad_glGetActiveUniform DQ 01H DUP (?)
glad_glGetProgramInfoLog DQ 01H DUP (?)
glad_glCompileShader DQ 01H DUP (?)
glad_glGetProgramiv DQ 01H DUP (?)
glad_glShaderSource DQ 01H DUP (?)
glad_glCreateShader DQ 01H DUP (?)
glad_glGetShaderInfoLog DQ 01H DUP (?)
glad_glGetShaderiv DQ 01H DUP (?)
glad_glCreateProgram DQ 01H DUP (?)
glad_glUseProgram DQ 01H DUP (?)
glad_glAttachShader DQ 01H DUP (?)
glad_glLinkProgram DQ 01H DUP (?)
glad_glGetIntegerv DQ 01H DUP (?)
glad_glEnable DQ 01H DUP (?)
glad_glTexParameteri DQ 01H DUP (?)
glad_glGetError DQ 01H DUP (?)
glad_glTexSubImage2D DQ 01H DUP (?)
glad_glGenerateMipmap DQ 01H DUP (?)
glad_glDisable DQ 01H DUP (?)
glad_glGenTextures DQ 01H DUP (?)
glad_glPixelStorei DQ 01H DUP (?)
glad_glTexImage2D DQ 01H DUP (?)
glad_glBindTexture DQ 01H DUP (?)
glad_glTexStorage2D DQ 01H DUP (?)
glad_glClearBufferfv DQ 01H DUP (?)
glad_glClearBufferfi DQ 01H DUP (?)
glad_glStencilMask DQ 01H DUP (?)
glad_glCheckFramebufferStatus DQ 01H DUP (?)
glad_glBindFramebuffer DQ 01H DUP (?)
glad_glDeleteTextures DQ 01H DUP (?)
glad_glDrawBuffers DQ 01H DUP (?)
glad_glViewport DQ 01H DUP (?)
glad_glGenFramebuffers DQ 01H DUP (?)
glad_glDeleteFramebuffers DQ 01H DUP (?)
glad_glFramebufferTexture DQ 01H DUP (?)
glad_glDrawBuffer DQ 01H DUP (?)
glad_glTexParameterfv DQ 01H DUP (?)
glad_glReadBuffer DQ 01H DUP (?)
glad_glUniform4f DQ 01H DUP (?)
_BSS	ENDS
;	COMDAT ??_C@_05KBEOJPB@?$CFd?4?$CFd@
CONST	SEGMENT
??_C@_05KBEOJPB@?$CFd?4?$CFd@ DB '%d.%d', 00H		; `string'
CONST	ENDS
;	COMDAT ??_C@_0L@JLFHOCGA@OpenGL?5ES?5@
CONST	SEGMENT
??_C@_0L@JLFHOCGA@OpenGL?5ES?5@ DB 'OpenGL ES ', 00H	; `string'
CONST	ENDS
;	COMDAT ??_C@_0O@EMKFPNOG@OpenGL?5ES?9CL?5@
CONST	SEGMENT
??_C@_0O@EMKFPNOG@OpenGL?5ES?9CL?5@ DB 'OpenGL ES-CL ', 00H ; `string'
CONST	ENDS
;	COMDAT ??_C@_0O@ENGHJHNB@OpenGL?5ES?9CM?5@
CONST	SEGMENT
??_C@_0O@ENGHJHNB@OpenGL?5ES?9CM?5@ DB 'OpenGL ES-CM ', 00H ; `string'
CONST	ENDS
;	COMDAT ??_C@_0BF@ECLDHBOO@glPolygonOffsetClamp@
CONST	SEGMENT
??_C@_0BF@ECLDHBOO@glPolygonOffsetClamp@ DB 'glPolygonOffsetClamp', 00H ; `string'
CONST	ENDS
;	COMDAT ??_C@_0CB@BPEMAMPH@glMultiDrawElementsIndirectCoun@
CONST	SEGMENT
??_C@_0CB@BPEMAMPH@glMultiDrawElementsIndirectCoun@ DB 'glMultiDrawElemen'
	DB	'tsIndirectCount', 00H			; `string'
CONST	ENDS
;	COMDAT ??_C@_0BP@GGIOCPJI@glMultiDrawArraysIndirectCount@
CONST	SEGMENT
??_C@_0BP@GGIOCPJI@glMultiDrawArraysIndirectCount@ DB 'glMultiDrawArraysI'
	DB	'ndirectCount', 00H				; `string'
CONST	ENDS
;	COMDAT ??_C@_0BD@LNCLLNDI@glSpecializeShader@
CONST	SEGMENT
??_C@_0BD@LNCLLNDI@glSpecializeShader@ DB 'glSpecializeShader', 00H ; `string'
CONST	ENDS
;	COMDAT ??_C@_0BB@MNKDFGFC@glTextureBarrier@
CONST	SEGMENT
??_C@_0BB@MNKDFGFC@glTextureBarrier@ DB 'glTextureBarrier', 00H ; `string'
CONST	ENDS
;	COMDAT ??_C@_0N@EFFKFJMK@glGetnMinmax@
CONST	SEGMENT
??_C@_0N@EFFKFJMK@glGetnMinmax@ DB 'glGetnMinmax', 00H	; `string'
CONST	ENDS
;	COMDAT ??_C@_0BA@POEMGEO@glGetnHistogram@
CONST	SEGMENT
??_C@_0BA@POEMGEO@glGetnHistogram@ DB 'glGetnHistogram', 00H ; `string'
CONST	ENDS
;	COMDAT ??_C@_0BG@LBKKJBFC@glGetnSeparableFilter@
CONST	SEGMENT
??_C@_0BG@LBKKJBFC@glGetnSeparableFilter@ DB 'glGetnSeparableFilter', 00H ; `string'
CONST	ENDS
;	COMDAT ??_C@_0BI@GBFNHONB@glGetnConvolutionFilter@
CONST	SEGMENT
??_C@_0BI@GBFNHONB@glGetnConvolutionFilter@ DB 'glGetnConvolutionFilter', 00H ; `string'
CONST	ENDS
;	COMDAT ??_C@_0BB@EFKGOAOL@glGetnColorTable@
CONST	SEGMENT
??_C@_0BB@EFKGOAOL@glGetnColorTable@ DB 'glGetnColorTable', 00H ; `string'
CONST	ENDS
;	COMDAT ??_C@_0BF@NBHIHHJA@glGetnPolygonStipple@
CONST	SEGMENT
??_C@_0BF@NBHIHHJA@glGetnPolygonStipple@ DB 'glGetnPolygonStipple', 00H ; `string'
CONST	ENDS
;	COMDAT ??_C@_0BC@NCENOEBC@glGetnPixelMapusv@
CONST	SEGMENT
??_C@_0BC@NCENOEBC@glGetnPixelMapusv@ DB 'glGetnPixelMapusv', 00H ; `string'
CONST	ENDS
;	COMDAT ??_C@_0BC@MDPMMCLE@glGetnPixelMapuiv@
CONST	SEGMENT
??_C@_0BC@MDPMMCLE@glGetnPixelMapuiv@ DB 'glGetnPixelMapuiv', 00H ; `string'
CONST	ENDS
;	COMDAT ??_C@_0BB@JKBANCED@glGetnPixelMapfv@
CONST	SEGMENT
??_C@_0BB@JKBANCED@glGetnPixelMapfv@ DB 'glGetnPixelMapfv', 00H ; `string'
CONST	ENDS
;	COMDAT ??_C@_0M@FJOHABAE@glGetnMapiv@
CONST	SEGMENT
??_C@_0M@FJOHABAE@glGetnMapiv@ DB 'glGetnMapiv', 00H	; `string'
CONST	ENDS
;	COMDAT ??_C@_0M@FCLLEGDJ@glGetnMapfv@
CONST	SEGMENT
??_C@_0M@FCLLEGDJ@glGetnMapfv@ DB 'glGetnMapfv', 00H	; `string'
CONST	ENDS
;	COMDAT ??_C@_0M@FBDPJCFH@glGetnMapdv@
CONST	SEGMENT
??_C@_0M@FBDPJCFH@glGetnMapdv@ DB 'glGetnMapdv', 00H	; `string'
CONST	ENDS
;	COMDAT ??_C@_0O@NELODAJJ@glReadnPixels@
CONST	SEGMENT
??_C@_0O@NELODAJJ@glReadnPixels@ DB 'glReadnPixels', 00H ; `string'
CONST	ENDS
;	COMDAT ??_C@_0BB@BBJMBEC@glGetnUniformuiv@
CONST	SEGMENT
??_C@_0BB@BBJMBEC@glGetnUniformuiv@ DB 'glGetnUniformuiv', 00H ; `string'
CONST	ENDS
;	COMDAT ??_C@_0BA@KDLAMEMC@glGetnUniformiv@
CONST	SEGMENT
??_C@_0BA@KDLAMEMC@glGetnUniformiv@ DB 'glGetnUniformiv', 00H ; `string'
CONST	ENDS
;	COMDAT ??_C@_0BA@KIOMIDPP@glGetnUniformfv@
CONST	SEGMENT
??_C@_0BA@KIOMIDPP@glGetnUniformfv@ DB 'glGetnUniformfv', 00H ; `string'
CONST	ENDS
;	COMDAT ??_C@_0BA@KLGIFHJB@glGetnUniformdv@
CONST	SEGMENT
??_C@_0BA@KLGIFHJB@glGetnUniformdv@ DB 'glGetnUniformdv', 00H ; `string'
CONST	ENDS
;	COMDAT ??_C@_0P@FBKOCLCM@glGetnTexImage@
CONST	SEGMENT
??_C@_0P@FBKOCLCM@glGetnTexImage@ DB 'glGetnTexImage', 00H ; `string'
CONST	ENDS
;	COMDAT ??_C@_0BJ@HLNIHAOG@glGetnCompressedTexImage@
CONST	SEGMENT
??_C@_0BJ@HLNIHAOG@glGetnCompressedTexImage@ DB 'glGetnCompressedTexImage'
	DB	00H						; `string'
CONST	ENDS
;	COMDAT ??_C@_0BJ@ILPAOCDN@glGetGraphicsResetStatus@
CONST	SEGMENT
??_C@_0BJ@ILPAOCDN@glGetGraphicsResetStatus@ DB 'glGetGraphicsResetStatus'
	DB	00H						; `string'
CONST	ENDS
;	COMDAT ??_C@_0BP@BIDENANP@glGetCompressedTextureSubImage@
CONST	SEGMENT
??_C@_0BP@BIDENANP@glGetCompressedTextureSubImage@ DB 'glGetCompressedTex'
	DB	'tureSubImage', 00H				; `string'
CONST	ENDS
;	COMDAT ??_C@_0BF@JEEEKNGB@glGetTextureSubImage@
CONST	SEGMENT
??_C@_0BF@JEEEKNGB@glGetTextureSubImage@ DB 'glGetTextureSubImage', 00H ; `string'
CONST	ENDS
;	COMDAT ??_C@_0BI@IDCHHHAI@glMemoryBarrierByRegion@
CONST	SEGMENT
??_C@_0BI@IDCHHHAI@glMemoryBarrierByRegion@ DB 'glMemoryBarrierByRegion', 00H ; `string'
CONST	ENDS
;	COMDAT ??_C@_0BK@EOIEAGAD@glGetQueryBufferObjectuiv@
CONST	SEGMENT
??_C@_0BK@EOIEAGAD@glGetQueryBufferObjectuiv@ DB 'glGetQueryBufferObjectu'
	DB	'iv', 00H					; `string'
CONST	ENDS
;	COMDAT ??_C@_0BM@DFNHDHD@glGetQueryBufferObjectui64v@
CONST	SEGMENT
??_C@_0BM@DFNHDHD@glGetQueryBufferObjectui64v@ DB 'glGetQueryBufferObject'
	DB	'ui64v', 00H					; `string'
CONST	ENDS
;	COMDAT ??_C@_0BJ@OBIFNHGB@glGetQueryBufferObjectiv@
CONST	SEGMENT
??_C@_0BJ@OBIFNHGB@glGetQueryBufferObjectiv@ DB 'glGetQueryBufferObjectiv'
	DB	00H						; `string'
CONST	ENDS
;	COMDAT ??_C@_0BL@KFECDHBF@glGetQueryBufferObjecti64v@
CONST	SEGMENT
??_C@_0BL@KFECDHBF@glGetQueryBufferObjecti64v@ DB 'glGetQueryBufferObject'
	DB	'i64v', 00H					; `string'
CONST	ENDS
;	COMDAT ??_C@_0BA@PGNDPLG@glCreateQueries@
CONST	SEGMENT
??_C@_0BA@PGNDPLG@glCreateQueries@ DB 'glCreateQueries', 00H ; `string'
CONST	ENDS
;	COMDAT ??_C@_0BJ@GJEEIMGK@glCreateProgramPipelines@
CONST	SEGMENT
??_C@_0BJ@GJEEIMGK@glCreateProgramPipelines@ DB 'glCreateProgramPipelines'
	DB	00H						; `string'
CONST	ENDS
;	COMDAT ??_C@_0BB@EHBNEMMP@glCreateSamplers@
CONST	SEGMENT
??_C@_0BB@EHBNEMMP@glCreateSamplers@ DB 'glCreateSamplers', 00H ; `string'
CONST	ENDS
;	COMDAT ??_C@_0BM@HHNNHCN@glGetVertexArrayIndexed64iv@
CONST	SEGMENT
??_C@_0BM@HHNNHCN@glGetVertexArrayIndexed64iv@ DB 'glGetVertexArrayIndexe'
	DB	'd64iv', 00H					; `string'
CONST	ENDS
;	COMDAT ??_C@_0BK@FIIPMDBK@glGetVertexArrayIndexediv@
CONST	SEGMENT
??_C@_0BK@FIIPMDBK@glGetVertexArrayIndexediv@ DB 'glGetVertexArrayIndexed'
	DB	'iv', 00H					; `string'
CONST	ENDS
;	COMDAT ??_C@_0BD@CPJNCJFG@glGetVertexArrayiv@
CONST	SEGMENT
??_C@_0BD@CPJNCJFG@glGetVertexArrayiv@ DB 'glGetVertexArrayiv', 00H ; `string'
CONST	ENDS
;	COMDAT ??_C@_0BM@BNDNIOBB@glVertexArrayBindingDivisor@
CONST	SEGMENT
??_C@_0BM@BNDNIOBB@glVertexArrayBindingDivisor@ DB 'glVertexArrayBindingD'
	DB	'ivisor', 00H				; `string'
CONST	ENDS
;	COMDAT ??_C@_0BL@NECLHPFJ@glVertexArrayAttribLFormat@
CONST	SEGMENT
??_C@_0BL@NECLHPFJ@glVertexArrayAttribLFormat@ DB 'glVertexArrayAttribLFo'
	DB	'rmat', 00H					; `string'
CONST	ENDS
;	COMDAT ??_C@_0BL@JMMLHBDN@glVertexArrayAttribIFormat@
CONST	SEGMENT
??_C@_0BL@JMMLHBDN@glVertexArrayAttribIFormat@ DB 'glVertexArrayAttribIFo'
	DB	'rmat', 00H					; `string'
CONST	ENDS
;	COMDAT ??_C@_0BK@ONFBAOHM@glVertexArrayAttribFormat@
CONST	SEGMENT
??_C@_0BK@ONFBAOHM@glVertexArrayAttribFormat@ DB 'glVertexArrayAttribForm'
	DB	'at', 00H					; `string'
CONST	ENDS
;	COMDAT ??_C@_0BL@DJHJAEGB@glVertexArrayAttribBinding@
CONST	SEGMENT
??_C@_0BL@DJHJAEGB@glVertexArrayAttribBinding@ DB 'glVertexArrayAttribBin'
	DB	'ding', 00H					; `string'
CONST	ENDS
;	COMDAT ??_C@_0BL@DAGELPBO@glVertexArrayVertexBuffers@
CONST	SEGMENT
??_C@_0BL@DAGELPBO@glVertexArrayVertexBuffers@ DB 'glVertexArrayVertexBuf'
	DB	'fers', 00H					; `string'
CONST	ENDS
;	COMDAT ??_C@_0BK@BIEMNHGJ@glVertexArrayVertexBuffer@
CONST	SEGMENT
??_C@_0BK@BIEMNHGJ@glVertexArrayVertexBuffer@ DB 'glVertexArrayVertexBuff'
	DB	'er', 00H					; `string'
CONST	ENDS
;	COMDAT ??_C@_0BL@GGCAPDMO@glVertexArrayElementBuffer@
CONST	SEGMENT
??_C@_0BL@GGCAPDMO@glVertexArrayElementBuffer@ DB 'glVertexArrayElementBu'
	DB	'ffer', 00H					; `string'
CONST	ENDS
;	COMDAT ??_C@_0BK@MJMKFCHC@glEnableVertexArrayAttrib@
CONST	SEGMENT
??_C@_0BK@MJMKFCHC@glEnableVertexArrayAttrib@ DB 'glEnableVertexArrayAttr'
	DB	'ib', 00H					; `string'
CONST	ENDS
;	COMDAT ??_C@_0BL@FEKBMKFD@glDisableVertexArrayAttrib@
CONST	SEGMENT
??_C@_0BL@FEKBMKFD@glDisableVertexArrayAttrib@ DB 'glDisableVertexArrayAt'
	DB	'trib', 00H					; `string'
CONST	ENDS
;	COMDAT ??_C@_0BF@CMMGIOCI@glCreateVertexArrays@
CONST	SEGMENT
??_C@_0BF@CMMGIOCI@glCreateVertexArrays@ DB 'glCreateVertexArrays', 00H ; `string'
CONST	ENDS
;	COMDAT ??_C@_0BI@NKGDDAKK@glGetTextureParameteriv@
CONST	SEGMENT
??_C@_0BI@NKGDDAKK@glGetTextureParameteriv@ DB 'glGetTextureParameteriv', 00H ; `string'
CONST	ENDS
;	COMDAT ??_C@_0BK@JPCGBAJJ@glGetTextureParameterIuiv@
CONST	SEGMENT
??_C@_0BK@JPCGBAJJ@glGetTextureParameterIuiv@ DB 'glGetTextureParameterIu'
	DB	'iv', 00H					; `string'
CONST	ENDS
;	COMDAT ??_C@_0BJ@PIPELMMF@glGetTextureParameterIiv@
CONST	SEGMENT
??_C@_0BJ@PIPELMMF@glGetTextureParameterIiv@ DB 'glGetTextureParameterIiv'
	DB	00H						; `string'
CONST	ENDS
;	COMDAT ??_C@_0BI@NBDPHHJH@glGetTextureParameterfv@
CONST	SEGMENT
??_C@_0BI@NBDPHHJH@glGetTextureParameterfv@ DB 'glGetTextureParameterfv', 00H ; `string'
CONST	ENDS
;	COMDAT ??_C@_0BN@MJIBNBP@glGetTextureLevelParameteriv@
CONST	SEGMENT
??_C@_0BN@MJIBNBP@glGetTextureLevelParameteriv@ DB 'glGetTextureLevelPara'
	DB	'meteriv', 00H				; `string'
CONST	ENDS
;	COMDAT ??_C@_0BN@HMEFKCC@glGetTextureLevelParameterfv@
CONST	SEGMENT
??_C@_0BN@HMEFKCC@glGetTextureLevelParameterfv@ DB 'glGetTextureLevelPara'
	DB	'meterfv', 00H				; `string'
CONST	ENDS
;	COMDAT ??_C@_0BM@JOKODHH@glGetCompressedTextureImage@
CONST	SEGMENT
??_C@_0BM@JOKODHH@glGetCompressedTextureImage@ DB 'glGetCompressedTexture'
	DB	'Image', 00H					; `string'
CONST	ENDS
;	COMDAT ??_C@_0BC@PJDCJNIH@glGetTextureImage@
CONST	SEGMENT
??_C@_0BC@PJDCJNIH@glGetTextureImage@ DB 'glGetTextureImage', 00H ; `string'
CONST	ENDS
;	COMDAT ??_C@_0BC@NKGMGGNI@glBindTextureUnit@
CONST	SEGMENT
??_C@_0BC@NKGMGGNI@glBindTextureUnit@ DB 'glBindTextureUnit', 00H ; `string'
CONST	ENDS
;	COMDAT ??_C@_0BI@JJPLGFEG@glGenerateTextureMipmap@
CONST	SEGMENT
??_C@_0BI@JJPLGFEG@glGenerateTextureMipmap@ DB 'glGenerateTextureMipmap', 00H ; `string'
CONST	ENDS
;	COMDAT ??_C@_0BF@OADAJKMJ@glTextureParameteriv@
CONST	SEGMENT
??_C@_0BF@OADAJKMJ@glTextureParameteriv@ DB 'glTextureParameteriv', 00H ; `string'
CONST	ENDS
;	COMDAT ??_C@_0BH@OHPFFIFI@glTextureParameterIuiv@
CONST	SEGMENT
??_C@_0BH@OHPFFIFI@glTextureParameterIuiv@ DB 'glTextureParameterIuiv', 00H ; `string'
CONST	ENDS
;	COMDAT ??_C@_0BG@CMHFNPIN@glTextureParameterIiv@
CONST	SEGMENT
??_C@_0BG@CMHFNPIN@glTextureParameterIiv@ DB 'glTextureParameterIiv', 00H ; `string'
CONST	ENDS
;	COMDAT ??_C@_0BE@FMBFADAD@glTextureParameteri@
CONST	SEGMENT
??_C@_0BE@FMBFADAD@glTextureParameteri@ DB 'glTextureParameteri', 00H ; `string'
CONST	ENDS
;	COMDAT ??_C@_0BF@OLGMNNPE@glTextureParameterfv@
CONST	SEGMENT
??_C@_0BF@OLGMNNPE@glTextureParameterfv@ DB 'glTextureParameterfv', 00H ; `string'
CONST	ENDS
;	COMDAT ??_C@_0BE@NLINBPMM@glTextureParameterf@
CONST	SEGMENT
??_C@_0BE@NLINBPMM@glTextureParameterf@ DB 'glTextureParameterf', 00H ; `string'
CONST	ENDS
;	COMDAT ??_C@_0BI@DCMOCKNA@glCopyTextureSubImage3D@
CONST	SEGMENT
??_C@_0BI@DCMOCKNA@glCopyTextureSubImage3D@ DB 'glCopyTextureSubImage3D', 00H ; `string'
CONST	ENDS
;	COMDAT ??_C@_0BI@DDAMEAOH@glCopyTextureSubImage2D@
CONST	SEGMENT
??_C@_0BI@DDAMEAOH@glCopyTextureSubImage2D@ DB 'glCopyTextureSubImage2D', 00H ; `string'
CONST	ENDS
;	COMDAT ??_C@_0BI@DBEKPOLO@glCopyTextureSubImage1D@
CONST	SEGMENT
??_C@_0BI@DBEKPOLO@glCopyTextureSubImage1D@ DB 'glCopyTextureSubImage1D', 00H ; `string'
CONST	ENDS
;	COMDAT ??_C@_0BO@NLPEFDDM@glCompressedTextureSubImage3D@
CONST	SEGMENT
??_C@_0BO@NLPEFDDM@glCompressedTextureSubImage3D@ DB 'glCompressedTexture'
	DB	'SubImage3D', 00H				; `string'
CONST	ENDS
;	COMDAT ??_C@_0BO@NKDGDJAL@glCompressedTextureSubImage2D@
CONST	SEGMENT
??_C@_0BO@NKDGDJAL@glCompressedTextureSubImage2D@ DB 'glCompressedTexture'
	DB	'SubImage2D', 00H				; `string'
CONST	ENDS
;	COMDAT ??_C@_0BO@NIHAIHFC@glCompressedTextureSubImage1D@
CONST	SEGMENT
??_C@_0BO@NIHAIHFC@glCompressedTextureSubImage1D@ DB 'glCompressedTexture'
	DB	'SubImage1D', 00H				; `string'
CONST	ENDS
;	COMDAT ??_C@_0BE@IAECGNFO@glTextureSubImage3D@
CONST	SEGMENT
??_C@_0BE@IAECGNFO@glTextureSubImage3D@ DB 'glTextureSubImage3D', 00H ; `string'
CONST	ENDS
;	COMDAT ??_C@_0BE@IBIAAHGJ@glTextureSubImage2D@
CONST	SEGMENT
??_C@_0BE@IBIAAHGJ@glTextureSubImage2D@ DB 'glTextureSubImage2D', 00H ; `string'
CONST	ENDS
;	COMDAT ??_C@_0BE@IDMGLJDA@glTextureSubImage1D@
CONST	SEGMENT
??_C@_0BE@IDMGLJDA@glTextureSubImage1D@ DB 'glTextureSubImage1D', 00H ; `string'
CONST	ENDS
;	COMDAT ??_C@_0BO@LFHOCIJO@glTextureStorage3DMultisample@
CONST	SEGMENT
??_C@_0BO@LFHOCIJO@glTextureStorage3DMultisample@ DB 'glTextureStorage3DM'
	DB	'ultisample', 00H				; `string'
CONST	ENDS
;	COMDAT ??_C@_0BO@CIHBMJOI@glTextureStorage2DMultisample@
CONST	SEGMENT
??_C@_0BO@CIHBMJOI@glTextureStorage2DMultisample@ DB 'glTextureStorage2DM'
	DB	'ultisample', 00H				; `string'
CONST	ENDS
;	COMDAT ??_C@_0BD@CKGFKAEF@glTextureStorage3D@
CONST	SEGMENT
??_C@_0BD@CKGFKAEF@glTextureStorage3D@ DB 'glTextureStorage3D', 00H ; `string'
CONST	ENDS
;	COMDAT ??_C@_0BD@CLKHMKHC@glTextureStorage2D@
CONST	SEGMENT
??_C@_0BD@CLKHMKHC@glTextureStorage2D@ DB 'glTextureStorage2D', 00H ; `string'
CONST	ENDS
;	COMDAT ??_C@_0BD@CJOBHECL@glTextureStorage1D@
CONST	SEGMENT
??_C@_0BD@CJOBHECL@glTextureStorage1D@ DB 'glTextureStorage1D', 00H ; `string'
CONST	ENDS
;	COMDAT ??_C@_0BF@HAEPGPBJ@glTextureBufferRange@
CONST	SEGMENT
??_C@_0BF@HAEPGPBJ@glTextureBufferRange@ DB 'glTextureBufferRange', 00H ; `string'
CONST	ENDS
;	COMDAT ??_C@_0BA@BEJOBNBA@glTextureBuffer@
CONST	SEGMENT
??_C@_0BA@BEJOBNBA@glTextureBuffer@ DB 'glTextureBuffer', 00H ; `string'
CONST	ENDS
;	COMDAT ??_C@_0BB@LABGPBKD@glCreateTextures@
CONST	SEGMENT
??_C@_0BB@LABGPBKD@glCreateTextures@ DB 'glCreateTextures', 00H ; `string'
CONST	ENDS
;	COMDAT ??_C@_0CC@FCEAEAHI@glGetNamedRenderbufferParameter@
CONST	SEGMENT
??_C@_0CC@FCEAEAHI@glGetNamedRenderbufferParameter@ DB 'glGetNamedRenderb'
	DB	'ufferParameteriv', 00H			; `string'
CONST	ENDS
;	COMDAT ??_C@_0CG@IDKJGKBA@glNamedRenderbufferStorageMulti@
CONST	SEGMENT
??_C@_0CG@IDKJGKBA@glNamedRenderbufferStorageMulti@ DB 'glNamedRenderbuff'
	DB	'erStorageMultisample', 00H			; `string'
CONST	ENDS
;	COMDAT ??_C@_0BL@DGDPFKGM@glNamedRenderbufferStorage@
CONST	SEGMENT
??_C@_0BL@DGDPFKGM@glNamedRenderbufferStorage@ DB 'glNamedRenderbufferSto'
	DB	'rage', 00H					; `string'
CONST	ENDS
;	COMDAT ??_C@_0BG@JJNJGAME@glCreateRenderbuffers@
CONST	SEGMENT
??_C@_0BG@JJNJGAME@glCreateRenderbuffers@ DB 'glCreateRenderbuffers', 00H ; `string'
CONST	ENDS
;	COMDAT ??_C@_0CL@BGDPEPCC@glGetNamedFramebufferAttachment@
CONST	SEGMENT
??_C@_0CL@BGDPEPCC@glGetNamedFramebufferAttachment@ DB 'glGetNamedFramebu'
	DB	'fferAttachmentParameteriv', 00H		; `string'
CONST	ENDS
;	COMDAT ??_C@_0CB@COGAJBEM@glGetNamedFramebufferParameteri@
CONST	SEGMENT
??_C@_0CB@COGAJBEM@glGetNamedFramebufferParameteri@ DB 'glGetNamedFramebu'
	DB	'fferParameteriv', 00H			; `string'
CONST	ENDS
;	COMDAT ??_C@_0BO@LMABFPGK@glCheckNamedFramebufferStatus@
CONST	SEGMENT
??_C@_0BO@LMABFPGK@glCheckNamedFramebufferStatus@ DB 'glCheckNamedFramebu'
	DB	'fferStatus', 00H				; `string'
CONST	ENDS
;	COMDAT ??_C@_0BH@FNFDNHAI@glBlitNamedFramebuffer@
CONST	SEGMENT
??_C@_0BH@FNFDNHAI@glBlitNamedFramebuffer@ DB 'glBlitNamedFramebuffer', 00H ; `string'
CONST	ENDS
;	COMDAT ??_C@_0BK@BJONNAKJ@glClearNamedFramebufferfi@
CONST	SEGMENT
??_C@_0BK@BJONNAKJ@glClearNamedFramebufferfi@ DB 'glClearNamedFramebuffer'
	DB	'fi', 00H					; `string'
CONST	ENDS
;	COMDAT ??_C@_0BK@NELHNODH@glClearNamedFramebufferfv@
CONST	SEGMENT
??_C@_0BK@NELHNODH@glClearNamedFramebufferfv@ DB 'glClearNamedFramebuffer'
	DB	'fv', 00H					; `string'
CONST	ENDS
;	COMDAT ??_C@_0BL@JENKNAJN@glClearNamedFramebufferuiv@
CONST	SEGMENT
??_C@_0BL@JENKNAJN@glClearNamedFramebufferuiv@ DB 'glClearNamedFramebuffe'
	DB	'ruiv', 00H					; `string'
CONST	ENDS
;	COMDAT ??_C@_0BK@NPOLJJAK@glClearNamedFramebufferiv@
CONST	SEGMENT
??_C@_0BK@NPOLJJAK@glClearNamedFramebufferiv@ DB 'glClearNamedFramebuffer'
	DB	'iv', 00H					; `string'
CONST	ENDS
;	COMDAT ??_C@_0CE@DEGDCFND@glInvalidateNamedFramebufferSub@
CONST	SEGMENT
??_C@_0CE@DEGDCFND@glInvalidateNamedFramebufferSub@ DB 'glInvalidateNamed'
	DB	'FramebufferSubData', 00H			; `string'
CONST	ENDS
;	COMDAT ??_C@_0CB@OGGNKJIL@glInvalidateNamedFramebufferDat@
CONST	SEGMENT
??_C@_0CB@OGGNKJIL@glInvalidateNamedFramebufferDat@ DB 'glInvalidateNamed'
	DB	'FramebufferData', 00H			; `string'
CONST	ENDS
;	COMDAT ??_C@_0BN@LPANNPJE@glNamedFramebufferReadBuffer@
CONST	SEGMENT
??_C@_0BN@LPANNPJE@glNamedFramebufferReadBuffer@ DB 'glNamedFramebufferRe'
	DB	'adBuffer', 00H				; `string'
CONST	ENDS
;	COMDAT ??_C@_0BO@CGKJHFH@glNamedFramebufferDrawBuffers@
CONST	SEGMENT
??_C@_0BO@CGKJHFH@glNamedFramebufferDrawBuffers@ DB 'glNamedFramebufferDr'
	DB	'awBuffers', 00H				; `string'
CONST	ENDS
;	COMDAT ??_C@_0BN@MOAIHNEF@glNamedFramebufferDrawBuffer@
CONST	SEGMENT
??_C@_0BN@MOAIHNEF@glNamedFramebufferDrawBuffer@ DB 'glNamedFramebufferDr'
	DB	'awBuffer', 00H				; `string'
CONST	ENDS
;	COMDAT ??_C@_0BP@PHGPDAJM@glNamedFramebufferTextureLayer@
CONST	SEGMENT
??_C@_0BP@PHGPDAJM@glNamedFramebufferTextureLayer@ DB 'glNamedFramebuffer'
	DB	'TextureLayer', 00H				; `string'
CONST	ENDS
;	COMDAT ??_C@_0BK@PNJJLPPI@glNamedFramebufferTexture@
CONST	SEGMENT
??_C@_0BK@PNJJLPPI@glNamedFramebufferTexture@ DB 'glNamedFramebufferTextu'
	DB	're', 00H					; `string'
CONST	ENDS
;	COMDAT ??_C@_0BN@LBMOOIHC@glNamedFramebufferParameteri@
CONST	SEGMENT
??_C@_0BN@LBMOOIHC@glNamedFramebufferParameteri@ DB 'glNamedFramebufferPa'
	DB	'rameteri', 00H				; `string'
CONST	ENDS
;	COMDAT ??_C@_0BP@MGCPNBGC@glNamedFramebufferRenderbuffer@
CONST	SEGMENT
??_C@_0BP@MGCPNBGC@glNamedFramebufferRenderbuffer@ DB 'glNamedFramebuffer'
	DB	'Renderbuffer', 00H				; `string'
CONST	ENDS
;	COMDAT ??_C@_0BF@DDKJIBLC@glCreateFramebuffers@
CONST	SEGMENT
??_C@_0BF@DDKJIBLC@glCreateFramebuffers@ DB 'glCreateFramebuffers', 00H ; `string'
CONST	ENDS
;	COMDAT ??_C@_0BI@PJBCKPNA@glGetNamedBufferSubData@
CONST	SEGMENT
??_C@_0BI@PJBCKPNA@glGetNamedBufferSubData@ DB 'glGetNamedBufferSubData', 00H ; `string'
CONST	ENDS
;	COMDAT ??_C@_0BJ@NBEMEIKG@glGetNamedBufferPointerv@
CONST	SEGMENT
??_C@_0BJ@NBEMEIKG@glGetNamedBufferPointerv@ DB 'glGetNamedBufferPointerv'
	DB	00H						; `string'
CONST	ENDS
;	COMDAT ??_C@_0BO@ECJNIDNL@glGetNamedBufferParameteri64v@
CONST	SEGMENT
??_C@_0BO@ECJNIDNL@glGetNamedBufferParameteri64v@ DB 'glGetNamedBufferPar'
	DB	'ameteri64v', 00H				; `string'
CONST	ENDS
;	COMDAT ??_C@_0BM@KFAGBFPK@glGetNamedBufferParameteriv@
CONST	SEGMENT
??_C@_0BM@KFAGBFPK@glGetNamedBufferParameteriv@ DB 'glGetNamedBufferParam'
	DB	'eteriv', 00H				; `string'
CONST	ENDS
;	COMDAT ??_C@_0BO@DBGNKBKH@glFlushMappedNamedBufferRange@
CONST	SEGMENT
??_C@_0BO@DBGNKBKH@glFlushMappedNamedBufferRange@ DB 'glFlushMappedNamedB'
	DB	'ufferRange', 00H				; `string'
CONST	ENDS
;	COMDAT ??_C@_0BD@LAAONAHD@glUnmapNamedBuffer@
CONST	SEGMENT
??_C@_0BD@LAAONAHD@glUnmapNamedBuffer@ DB 'glUnmapNamedBuffer', 00H ; `string'
CONST	ENDS
;	COMDAT ??_C@_0BG@JLCGKFD@glMapNamedBufferRange@
CONST	SEGMENT
??_C@_0BG@JLCGKFD@glMapNamedBufferRange@ DB 'glMapNamedBufferRange', 00H ; `string'
CONST	ENDS
;	COMDAT ??_C@_0BB@JLMCGIDB@glMapNamedBuffer@
CONST	SEGMENT
??_C@_0BB@JLMCGIDB@glMapNamedBuffer@ DB 'glMapNamedBuffer', 00H ; `string'
CONST	ENDS
;	COMDAT ??_C@_0BK@BNIDNJBH@glClearNamedBufferSubData@
CONST	SEGMENT
??_C@_0BK@BNIDNJBH@glClearNamedBufferSubData@ DB 'glClearNamedBufferSubDa'
	DB	'ta', 00H					; `string'
CONST	ENDS
;	COMDAT ??_C@_0BH@KJMLMCB@glClearNamedBufferData@
CONST	SEGMENT
??_C@_0BH@KJMLMCB@glClearNamedBufferData@ DB 'glClearNamedBufferData', 00H ; `string'
CONST	ENDS
;	COMDAT ??_C@_0BJ@MJPDCHND@glCopyNamedBufferSubData@
CONST	SEGMENT
??_C@_0BJ@MJPDCHND@glCopyNamedBufferSubData@ DB 'glCopyNamedBufferSubData'
	DB	00H						; `string'
CONST	ENDS
;	COMDAT ??_C@_0BF@MDEBAFLD@glNamedBufferSubData@
CONST	SEGMENT
??_C@_0BF@MDEBAFLD@glNamedBufferSubData@ DB 'glNamedBufferSubData', 00H ; `string'
CONST	ENDS
;	COMDAT ??_C@_0BC@LHEABGCG@glNamedBufferData@
CONST	SEGMENT
??_C@_0BC@LHEABGCG@glNamedBufferData@ DB 'glNamedBufferData', 00H ; `string'
CONST	ENDS
;	COMDAT ??_C@_0BF@INMFIINC@glNamedBufferStorage@
CONST	SEGMENT
??_C@_0BF@INMFIINC@glNamedBufferStorage@ DB 'glNamedBufferStorage', 00H ; `string'
CONST	ENDS
;	COMDAT ??_C@_0BA@LNBCEANP@glCreateBuffers@
CONST	SEGMENT
??_C@_0BA@LNBCEANP@glCreateBuffers@ DB 'glCreateBuffers', 00H ; `string'
CONST	ENDS
;	COMDAT ??_C@_0BM@KDHFPNLE@glGetTransformFeedbacki64_v@
CONST	SEGMENT
??_C@_0BM@KDHFPNLE@glGetTransformFeedbacki64_v@ DB 'glGetTransformFeedbac'
	DB	'ki64_v', 00H				; `string'
CONST	ENDS
;	COMDAT ??_C@_0BK@IPHNHFEI@glGetTransformFeedbacki_v@
CONST	SEGMENT
??_C@_0BK@IPHNHFEI@glGetTransformFeedbacki_v@ DB 'glGetTransformFeedbacki'
	DB	'_v', 00H					; `string'
CONST	ENDS
;	COMDAT ??_C@_0BJ@OFMLPMDO@glGetTransformFeedbackiv@
CONST	SEGMENT
??_C@_0BJ@OFMLPMDO@glGetTransformFeedbackiv@ DB 'glGetTransformFeedbackiv'
	DB	00H						; `string'
CONST	ENDS
;	COMDAT ??_C@_0BP@NBIGCNHI@glTransformFeedbackBufferRange@
CONST	SEGMENT
??_C@_0BP@NBIGCNHI@glTransformFeedbackBufferRange@ DB 'glTransformFeedbac'
	DB	'kBufferRange', 00H				; `string'
CONST	ENDS
;	COMDAT ??_C@_0BO@EGLKNJFA@glTransformFeedbackBufferBase@
CONST	SEGMENT
??_C@_0BO@EGLKNJFA@glTransformFeedbackBufferBase@ DB 'glTransformFeedback'
	DB	'BufferBase', 00H				; `string'
CONST	ENDS
;	COMDAT ??_C@_0BL@HPCMJLAK@glCreateTransformFeedbacks@
CONST	SEGMENT
??_C@_0BL@HPCMJLAK@glCreateTransformFeedbacks@ DB 'glCreateTransformFeedb'
	DB	'acks', 00H					; `string'
CONST	ENDS
;	COMDAT ??_C@_0O@DMMKFMGC@glClipControl@
CONST	SEGMENT
??_C@_0O@DMMKFMGC@glClipControl@ DB 'glClipControl', 00H ; `string'
CONST	ENDS
;	COMDAT ??_C@_0BE@LNCGJHDC@glBindVertexBuffers@
CONST	SEGMENT
??_C@_0BE@LNCGJHDC@glBindVertexBuffers@ DB 'glBindVertexBuffers', 00H ; `string'
CONST	ENDS
;	COMDAT ??_C@_0BE@NAMJLOCK@glBindImageTextures@
CONST	SEGMENT
??_C@_0BE@NAMJLOCK@glBindImageTextures@ DB 'glBindImageTextures', 00H ; `string'
CONST	ENDS
;	COMDAT ??_C@_0P@FADPDFKM@glBindSamplers@
CONST	SEGMENT
??_C@_0P@FADPDFKM@glBindSamplers@ DB 'glBindSamplers', 00H ; `string'
CONST	ENDS
;	COMDAT ??_C@_0P@KHDEIIMA@glBindTextures@
CONST	SEGMENT
??_C@_0P@KHDEIIMA@glBindTextures@ DB 'glBindTextures', 00H ; `string'
CONST	ENDS
;	COMDAT ??_C@_0BD@ODFFOKPN@glBindBuffersRange@
CONST	SEGMENT
??_C@_0BD@ODFFOKPN@glBindBuffersRange@ DB 'glBindBuffersRange', 00H ; `string'
CONST	ENDS
;	COMDAT ??_C@_0BC@ENBBLPHM@glBindBuffersBase@
CONST	SEGMENT
??_C@_0BC@ENBBLPHM@glBindBuffersBase@ DB 'glBindBuffersBase', 00H ; `string'
CONST	ENDS
;	COMDAT ??_C@_0BD@CFALBON@glClearTexSubImage@
CONST	SEGMENT
??_C@_0BD@CFALBON@glClearTexSubImage@ DB 'glClearTexSubImage', 00H ; `string'
CONST	ENDS
;	COMDAT ??_C@_0BA@FNPOIBAF@glClearTexImage@
CONST	SEGMENT
??_C@_0BA@FNPOIBAF@glClearTexImage@ DB 'glClearTexImage', 00H ; `string'
CONST	ENDS
;	COMDAT ??_C@_0BA@COBILMHM@glBufferStorage@
CONST	SEGMENT
??_C@_0BA@COBILMHM@glBufferStorage@ DB 'glBufferStorage', 00H ; `string'
CONST	ENDS
;	COMDAT ??_C@_0BE@MIJFJOHM@glGetObjectPtrLabel@
CONST	SEGMENT
??_C@_0BE@MIJFJOHM@glGetObjectPtrLabel@ DB 'glGetObjectPtrLabel', 00H ; `string'
CONST	ENDS
;	COMDAT ??_C@_0BB@FBABGDIL@glObjectPtrLabel@
CONST	SEGMENT
??_C@_0BB@FBABGDIL@glObjectPtrLabel@ DB 'glObjectPtrLabel', 00H ; `string'
CONST	ENDS
;	COMDAT ??_C@_0BB@MOEDHKDB@glGetObjectLabel@
CONST	SEGMENT
??_C@_0BB@MOEDHKDB@glGetObjectLabel@ DB 'glGetObjectLabel', 00H ; `string'
CONST	ENDS
;	COMDAT ??_C@_0O@EFJDECDM@glObjectLabel@
CONST	SEGMENT
??_C@_0O@EFJDECDM@glObjectLabel@ DB 'glObjectLabel', 00H ; `string'
CONST	ENDS
;	COMDAT ??_C@_0BA@PMJBDENK@glPopDebugGroup@
CONST	SEGMENT
??_C@_0BA@PMJBDENK@glPopDebugGroup@ DB 'glPopDebugGroup', 00H ; `string'
CONST	ENDS
;	COMDAT ??_C@_0BB@DEFFBEGJ@glPushDebugGroup@
CONST	SEGMENT
??_C@_0BB@DEFFBEGJ@glPushDebugGroup@ DB 'glPushDebugGroup', 00H ; `string'
CONST	ENDS
;	COMDAT ??_C@_0BF@FGBMJKND@glGetDebugMessageLog@
CONST	SEGMENT
??_C@_0BF@FGBMJKND@glGetDebugMessageLog@ DB 'glGetDebugMessageLog', 00H ; `string'
CONST	ENDS
;	COMDAT ??_C@_0BH@IGFENJCI@glDebugMessageCallback@
CONST	SEGMENT
??_C@_0BH@IGFENJCI@glDebugMessageCallback@ DB 'glDebugMessageCallback', 00H ; `string'
CONST	ENDS
;	COMDAT ??_C@_0BF@DGOJNFDO@glDebugMessageInsert@
CONST	SEGMENT
??_C@_0BF@DGOJNFDO@glDebugMessageInsert@ DB 'glDebugMessageInsert', 00H ; `string'
CONST	ENDS
;	COMDAT ??_C@_0BG@MNBDCEEP@glDebugMessageControl@
CONST	SEGMENT
??_C@_0BG@MNBDCEEP@glDebugMessageControl@ DB 'glDebugMessageControl', 00H ; `string'
CONST	ENDS
;	COMDAT ??_C@_0BH@GNGCLGOI@glVertexBindingDivisor@
CONST	SEGMENT
??_C@_0BH@GNGCLGOI@glVertexBindingDivisor@ DB 'glVertexBindingDivisor', 00H ; `string'
CONST	ENDS
;	COMDAT ??_C@_0BG@MLFHCGE@glVertexAttribBinding@
CONST	SEGMENT
??_C@_0BG@MLFHCGE@glVertexAttribBinding@ DB 'glVertexAttribBinding', 00H ; `string'
CONST	ENDS
;	COMDAT ??_C@_0BG@OBOHAJFM@glVertexAttribLFormat@
CONST	SEGMENT
??_C@_0BG@OBOHAJFM@glVertexAttribLFormat@ DB 'glVertexAttribLFormat', 00H ; `string'
CONST	ENDS
;	COMDAT ??_C@_0BG@KJAHAHDI@glVertexAttribIFormat@
CONST	SEGMENT
??_C@_0BG@KJAHAHDI@glVertexAttribIFormat@ DB 'glVertexAttribIFormat', 00H ; `string'
CONST	ENDS
;	COMDAT ??_C@_0BF@JEIPPBFE@glVertexAttribFormat@
CONST	SEGMENT
??_C@_0BF@JEIPPBFE@glVertexAttribFormat@ DB 'glVertexAttribFormat', 00H ; `string'
CONST	ENDS
;	COMDAT ??_C@_0BD@FCGJAOHG@glBindVertexBuffer@
CONST	SEGMENT
??_C@_0BD@FCGJAOHG@glBindVertexBuffer@ DB 'glBindVertexBuffer', 00H ; `string'
CONST	ENDS
;	COMDAT ??_C@_0O@BNFDGIMP@glTextureView@
CONST	SEGMENT
??_C@_0O@BNFDGIMP@glTextureView@ DB 'glTextureView', 00H ; `string'
CONST	ENDS
;	COMDAT ??_C@_0BK@GOJPECNJ@glTexStorage3DMultisample@
CONST	SEGMENT
??_C@_0BK@GOJPECNJ@glTexStorage3DMultisample@ DB 'glTexStorage3DMultisamp'
	DB	'le', 00H					; `string'
CONST	ENDS
;	COMDAT ??_C@_0BK@PDJAKDKP@glTexStorage2DMultisample@
CONST	SEGMENT
??_C@_0BK@PDJAKDKP@glTexStorage2DMultisample@ DB 'glTexStorage2DMultisamp'
	DB	'le', 00H					; `string'
CONST	ENDS
;	COMDAT ??_C@_0BB@DPMGLFNI@glTexBufferRange@
CONST	SEGMENT
??_C@_0BB@DPMGLFNI@glTexBufferRange@ DB 'glTexBufferRange', 00H ; `string'
CONST	ENDS
;	COMDAT ??_C@_0BM@GDDCNIBO@glShaderStorageBlockBinding@
CONST	SEGMENT
??_C@_0BM@GDDCNIBO@glShaderStorageBlockBinding@ DB 'glShaderStorageBlockB'
	DB	'inding', 00H				; `string'
CONST	ENDS
;	COMDAT ??_C@_0CC@GHECGAIH@glGetProgramResourceLocationInd@
CONST	SEGMENT
??_C@_0CC@GHECGAIH@glGetProgramResourceLocationInd@ DB 'glGetProgramResou'
	DB	'rceLocationIndex', 00H			; `string'
CONST	ENDS
;	COMDAT ??_C@_0BN@BIJNENLC@glGetProgramResourceLocation@
CONST	SEGMENT
??_C@_0BN@BIJNENLC@glGetProgramResourceLocation@ DB 'glGetProgramResource'
	DB	'Location', 00H				; `string'
CONST	ENDS
;	COMDAT ??_C@_0BH@LEDFEPHI@glGetProgramResourceiv@
CONST	SEGMENT
??_C@_0BH@LEDFEPHI@glGetProgramResourceiv@ DB 'glGetProgramResourceiv', 00H ; `string'
CONST	ENDS
;	COMDAT ??_C@_0BJ@OHCPEAGJ@glGetProgramResourceName@
CONST	SEGMENT
??_C@_0BJ@OHCPEAGJ@glGetProgramResourceName@ DB 'glGetProgramResourceName'
	DB	00H						; `string'
CONST	ENDS
;	COMDAT ??_C@_0BK@DBDCONKB@glGetProgramResourceIndex@
CONST	SEGMENT
??_C@_0BK@DBDCONKB@glGetProgramResourceIndex@ DB 'glGetProgramResourceInd'
	DB	'ex', 00H					; `string'
CONST	ENDS
;	COMDAT ??_C@_0BI@ICGPDPK@glGetProgramInterfaceiv@
CONST	SEGMENT
??_C@_0BI@ICGPDPK@glGetProgramInterfaceiv@ DB 'glGetProgramInterfaceiv', 00H ; `string'
CONST	ENDS
;	COMDAT ??_C@_0BM@KHEEFMKO@glMultiDrawElementsIndirect@
CONST	SEGMENT
??_C@_0BM@KHEEFMKO@glMultiDrawElementsIndirect@ DB 'glMultiDrawElementsIn'
	DB	'direct', 00H				; `string'
CONST	ENDS
;	COMDAT ??_C@_0BK@IKGAIKOP@glMultiDrawArraysIndirect@
CONST	SEGMENT
??_C@_0BK@IKGAIKOP@glMultiDrawArraysIndirect@ DB 'glMultiDrawArraysIndire'
	DB	'ct', 00H					; `string'
CONST	ENDS
;	COMDAT ??_C@_0BL@IHGLAPPE@glInvalidateSubFramebuffer@
CONST	SEGMENT
??_C@_0BL@IHGLAPPE@glInvalidateSubFramebuffer@ DB 'glInvalidateSubFramebu'
	DB	'ffer', 00H					; `string'
CONST	ENDS
;	COMDAT ??_C@_0BI@OAJPOHIP@glInvalidateFramebuffer@
CONST	SEGMENT
??_C@_0BI@OAJPOHIP@glInvalidateFramebuffer@ DB 'glInvalidateFramebuffer', 00H ; `string'
CONST	ENDS
;	COMDAT ??_C@_0BH@OGIFIBHA@glInvalidateBufferData@
CONST	SEGMENT
??_C@_0BH@OGIFIBHA@glInvalidateBufferData@ DB 'glInvalidateBufferData', 00H ; `string'
CONST	ENDS
;	COMDAT ??_C@_0BK@HOHOHNAC@glInvalidateBufferSubData@
CONST	SEGMENT
??_C@_0BK@HOHOHNAC@glInvalidateBufferSubData@ DB 'glInvalidateBufferSubDa'
	DB	'ta', 00H					; `string'
CONST	ENDS
;	COMDAT ??_C@_0BF@KHIECPKG@glInvalidateTexImage@
CONST	SEGMENT
??_C@_0BF@KHIECPKG@glInvalidateTexImage@ DB 'glInvalidateTexImage', 00H ; `string'
CONST	ENDS
;	COMDAT ??_C@_0BI@FJDKFLGL@glInvalidateTexSubImage@
CONST	SEGMENT
??_C@_0BI@FJDKFLGL@glInvalidateTexSubImage@ DB 'glInvalidateTexSubImage', 00H ; `string'
CONST	ENDS
;	COMDAT ??_C@_0BI@PHNNEGBD@glGetInternalformati64v@
CONST	SEGMENT
??_C@_0BI@PHNNEGBD@glGetInternalformati64v@ DB 'glGetInternalformati64v', 00H ; `string'
CONST	ENDS
;	COMDAT ??_C@_0BM@BFEEFCMK@glGetFramebufferParameteriv@
CONST	SEGMENT
??_C@_0BM@BFEEFCMK@glGetFramebufferParameteriv@ DB 'glGetFramebufferParam'
	DB	'eteriv', 00H				; `string'
CONST	ENDS
;	COMDAT ??_C@_0BI@MLACHGDK@glFramebufferParameteri@
CONST	SEGMENT
??_C@_0BI@MLACHGDK@glFramebufferParameteri@ DB 'glFramebufferParameteri', 00H ; `string'
CONST	ENDS
;	COMDAT ??_C@_0BD@BNCHOBBL@glCopyImageSubData@
CONST	SEGMENT
??_C@_0BD@BNCHOBBL@glCopyImageSubData@ DB 'glCopyImageSubData', 00H ; `string'
CONST	ENDS
;	COMDAT ??_C@_0BK@EJMOGMMI@glDispatchComputeIndirect@
CONST	SEGMENT
??_C@_0BK@EJMOGMMI@glDispatchComputeIndirect@ DB 'glDispatchComputeIndire'
	DB	'ct', 00H					; `string'
CONST	ENDS
;	COMDAT ??_C@_0BC@DKKFFIGC@glDispatchCompute@
CONST	SEGMENT
??_C@_0BC@DKKFFIGC@glDispatchCompute@ DB 'glDispatchCompute', 00H ; `string'
CONST	ENDS
;	COMDAT ??_C@_0BF@FDHIBCMD@glClearBufferSubData@
CONST	SEGMENT
??_C@_0BF@FDHIBCMD@glClearBufferSubData@ DB 'glClearBufferSubData', 00H ; `string'
CONST	ENDS
;	COMDAT ??_C@_0BC@FCMBBKMP@glClearBufferData@
CONST	SEGMENT
??_C@_0BC@FCMBBKMP@glClearBufferData@ DB 'glClearBufferData', 00H ; `string'
CONST	ENDS
;	COMDAT ??_C@_0CH@OMPFKBLK@glDrawTransformFeedbackStreamIn@
CONST	SEGMENT
??_C@_0CH@OMPFKBLK@glDrawTransformFeedbackStreamIn@ DB 'glDrawTransformFe'
	DB	'edbackStreamInstanced', 00H			; `string'
CONST	ENDS
;	COMDAT ??_C@_0CB@NDMLCEF@glDrawTransformFeedbackInstance@
CONST	SEGMENT
??_C@_0CB@NDMLCEF@glDrawTransformFeedbackInstance@ DB 'glDrawTransformFee'
	DB	'dbackInstanced', 00H			; `string'
CONST	ENDS
;	COMDAT ??_C@_0P@LBDCCAHA@glTexStorage3D@
CONST	SEGMENT
??_C@_0P@LBDCCAHA@glTexStorage3D@ DB 'glTexStorage3D', 00H ; `string'
CONST	ENDS
;	COMDAT ??_C@_0P@LAPAEKEH@glTexStorage2D@
CONST	SEGMENT
??_C@_0P@LAPAEKEH@glTexStorage2D@ DB 'glTexStorage2D', 00H ; `string'
CONST	ENDS
;	COMDAT ??_C@_0P@LCLGPEBO@glTexStorage1D@
CONST	SEGMENT
??_C@_0P@LCLGPEBO@glTexStorage1D@ DB 'glTexStorage1D', 00H ; `string'
CONST	ENDS
;	COMDAT ??_C@_0BA@HIHPNLBJ@glMemoryBarrier@
CONST	SEGMENT
??_C@_0BA@HIHPNLBJ@glMemoryBarrier@ DB 'glMemoryBarrier', 00H ; `string'
CONST	ENDS
;	COMDAT ??_C@_0BD@GAKEPNGD@glBindImageTexture@
CONST	SEGMENT
??_C@_0BD@GAKEPNGD@glBindImageTexture@ DB 'glBindImageTexture', 00H ; `string'
CONST	ENDS
;	COMDAT ??_C@_0CB@CEHFMJFN@glGetActiveAtomicCounterBufferi@
CONST	SEGMENT
??_C@_0CB@CEHFMJFN@glGetActiveAtomicCounterBufferi@ DB 'glGetActiveAtomic'
	DB	'CounterBufferiv', 00H			; `string'
CONST	ENDS
;	COMDAT ??_C@_0BG@BAOCDJPF@glGetInternalformativ@
CONST	SEGMENT
??_C@_0BG@BAOCDJPF@glGetInternalformativ@ DB 'glGetInternalformativ', 00H ; `string'
CONST	ENDS
;	COMDAT ??_C@_0CO@GCMNEAOA@glDrawElementsInstancedBaseVert@
CONST	SEGMENT
??_C@_0CO@GCMNEAOA@glDrawElementsInstancedBaseVert@ DB 'glDrawElementsIns'
	DB	'tancedBaseVertexBaseInstance', 00H		; `string'
CONST	ENDS
;	COMDAT ??_C@_0CE@NGNINKJD@glDrawElementsInstancedBaseInst@
CONST	SEGMENT
??_C@_0CE@NGNINKJD@glDrawElementsInstancedBaseInst@ DB 'glDrawElementsIns'
	DB	'tancedBaseInstance', 00H			; `string'
CONST	ENDS
;	COMDAT ??_C@_0CC@FBJBJHCN@glDrawArraysInstancedBaseInstan@
CONST	SEGMENT
??_C@_0CC@FBJBJHCN@glDrawArraysInstancedBaseInstan@ DB 'glDrawArraysInsta'
	DB	'ncedBaseInstance', 00H			; `string'
CONST	ENDS
;	COMDAT ??_C@_0P@PDJCBGIA@glGetDoublei_v@
CONST	SEGMENT
??_C@_0P@PDJCBGIA@glGetDoublei_v@ DB 'glGetDoublei_v', 00H ; `string'
CONST	ENDS
;	COMDAT ??_C@_0O@JKEOHGC@glGetFloati_v@
CONST	SEGMENT
??_C@_0O@JKEOHGC@glGetFloati_v@ DB 'glGetFloati_v', 00H	; `string'
CONST	ENDS
;	COMDAT ??_C@_0BE@FMCFIJBP@glDepthRangeIndexed@
CONST	SEGMENT
??_C@_0BE@FMCFIJBP@glDepthRangeIndexed@ DB 'glDepthRangeIndexed', 00H ; `string'
CONST	ENDS
;	COMDAT ??_C@_0BD@JLCIOMKN@glDepthRangeArrayv@
CONST	SEGMENT
??_C@_0BD@JLCIOMKN@glDepthRangeArrayv@ DB 'glDepthRangeArrayv', 00H ; `string'
CONST	ENDS
;	COMDAT ??_C@_0BC@OOKOHKNA@glScissorIndexedv@
CONST	SEGMENT
??_C@_0BC@OOKOHKNA@glScissorIndexedv@ DB 'glScissorIndexedv', 00H ; `string'
CONST	ENDS
;	COMDAT ??_C@_0BB@BJHNCIAL@glScissorIndexed@
CONST	SEGMENT
??_C@_0BB@BJHNCIAL@glScissorIndexed@ DB 'glScissorIndexed', 00H ; `string'
CONST	ENDS
;	COMDAT ??_C@_0BA@BMNFINIA@glScissorArrayv@
CONST	SEGMENT
??_C@_0BA@BMNFINIA@glScissorArrayv@ DB 'glScissorArrayv', 00H ; `string'
CONST	ENDS
;	COMDAT ??_C@_0BE@OKPEDJOC@glViewportIndexedfv@
CONST	SEGMENT
??_C@_0BE@OKPEDJOC@glViewportIndexedfv@ DB 'glViewportIndexedfv', 00H ; `string'
CONST	ENDS
;	COMDAT ??_C@_0BD@JIBIAPIN@glViewportIndexedf@
CONST	SEGMENT
??_C@_0BD@JIBIAPIN@glViewportIndexedf@ DB 'glViewportIndexedf', 00H ; `string'
CONST	ENDS
;	COMDAT ??_C@_0BB@JIDIDPIB@glViewportArrayv@
CONST	SEGMENT
??_C@_0BB@JIDIDPIB@glViewportArrayv@ DB 'glViewportArrayv', 00H ; `string'
CONST	ENDS
;	COMDAT ??_C@_0BF@JADLCNLO@glGetVertexAttribLdv@
CONST	SEGMENT
??_C@_0BF@JADLCNLO@glGetVertexAttribLdv@ DB 'glGetVertexAttribLdv', 00H ; `string'
CONST	ENDS
;	COMDAT ??_C@_0BH@JBHDDPGM@glVertexAttribLPointer@
CONST	SEGMENT
??_C@_0BH@JBHDDPGM@glVertexAttribLPointer@ DB 'glVertexAttribLPointer', 00H ; `string'
CONST	ENDS
;	COMDAT ??_C@_0BD@BJHCGDCF@glVertexAttribL4dv@
CONST	SEGMENT
??_C@_0BD@BJHCGDCF@glVertexAttribL4dv@ DB 'glVertexAttribL4dv', 00H ; `string'
CONST	ENDS
;	COMDAT ??_C@_0BD@IEKFFLJM@glVertexAttribL3dv@
CONST	SEGMENT
??_C@_0BD@IEKFFLJM@glVertexAttribL3dv@ DB 'glVertexAttribL3dv', 00H ; `string'
CONST	ENDS
;	COMDAT ??_C@_0BD@DMBJDMPJ@glVertexAttribL2dv@
CONST	SEGMENT
??_C@_0BD@DMBJDMPJ@glVertexAttribL2dv@ DB 'glVertexAttribL2dv', 00H ; `string'
CONST	ENDS
;	COMDAT ??_C@_0BD@COKMJDBH@glVertexAttribL1dv@
CONST	SEGMENT
??_C@_0BD@COKMJDBH@glVertexAttribL1dv@ DB 'glVertexAttribL1dv', 00H ; `string'
CONST	ENDS
;	COMDAT ??_C@_0BC@KHDDIAJP@glVertexAttribL4d@
CONST	SEGMENT
??_C@_0BC@KHDDIAJP@glVertexAttribL4d@ DB 'glVertexAttribL4d', 00H ; `string'
CONST	ENDS
;	COMDAT ??_C@_0BC@KCHMJGBK@glVertexAttribL3d@
CONST	SEGMENT
??_C@_0BC@KCHMJGBK@glVertexAttribL3d@ DB 'glVertexAttribL3d', 00H ; `string'
CONST	ENDS
;	COMDAT ??_C@_0BC@KDLOPMCN@glVertexAttribL2d@
CONST	SEGMENT
??_C@_0BC@KDLOPMCN@glVertexAttribL2d@ DB 'glVertexAttribL2d', 00H ; `string'
CONST	ENDS
;	COMDAT ??_C@_0BC@KBPIECHE@glVertexAttribL1d@
CONST	SEGMENT
??_C@_0BC@KBPIECHE@glVertexAttribL1d@ DB 'glVertexAttribL1d', 00H ; `string'
CONST	ENDS
;	COMDAT ??_C@_0BM@BFFCFFFG@glGetProgramPipelineInfoLog@
CONST	SEGMENT
??_C@_0BM@BFFCFFFG@glGetProgramPipelineInfoLog@ DB 'glGetProgramPipelineI'
	DB	'nfoLog', 00H				; `string'
CONST	ENDS
;	COMDAT ??_C@_0BK@HHHCKEGH@glValidateProgramPipeline@
CONST	SEGMENT
??_C@_0BK@HHHCKEGH@glValidateProgramPipeline@ DB 'glValidateProgramPipeli'
	DB	'ne', 00H					; `string'
CONST	ENDS
;	COMDAT ??_C@_0BM@OEIPHGOA@glProgramUniformMatrix4x3dv@
CONST	SEGMENT
??_C@_0BM@OEIPHGOA@glProgramUniformMatrix4x3dv@ DB 'glProgramUniformMatri'
	DB	'x4x3dv', 00H				; `string'
CONST	ENDS
;	COMDAT ??_C@_0BM@GEFNHOOB@glProgramUniformMatrix3x4dv@
CONST	SEGMENT
??_C@_0BM@GEFNHOOB@glProgramUniformMatrix3x4dv@ DB 'glProgramUniformMatri'
	DB	'x3x4dv', 00H				; `string'
CONST	ENDS
;	COMDAT ??_C@_0BM@FMDDBBIF@glProgramUniformMatrix4x2dv@
CONST	SEGMENT
??_C@_0BM@FMDDBBIF@glProgramUniformMatrix4x2dv@ DB 'glProgramUniformMatri'
	DB	'x4x2dv', 00H				; `string'
CONST	ENDS
;	COMDAT ??_C@_0BM@KPABKNEE@glProgramUniformMatrix2x4dv@
CONST	SEGMENT
??_C@_0BM@KPABKNEE@glProgramUniformMatrix2x4dv@ DB 'glProgramUniformMatri'
	DB	'x2x4dv', 00H				; `string'
CONST	ENDS
;	COMDAT ??_C@_0BM@EBDGCBDN@glProgramUniformMatrix3x2dv@
CONST	SEGMENT
??_C@_0BM@EBDGCBDN@glProgramUniformMatrix3x2dv@ DB 'glProgramUniformMatri'
	DB	'x3x2dv', 00H				; `string'
CONST	ENDS
;	COMDAT ??_C@_0BM@DCNGJFPN@glProgramUniformMatrix2x3dv@
CONST	SEGMENT
??_C@_0BM@DCNGJFPN@glProgramUniformMatrix2x3dv@ DB 'glProgramUniformMatri'
	DB	'x2x3dv', 00H				; `string'
CONST	ENDS
;	COMDAT ??_C@_0BM@OHALKCIO@glProgramUniformMatrix4x3fv@
CONST	SEGMENT
??_C@_0BM@OHALKCIO@glProgramUniformMatrix4x3fv@ DB 'glProgramUniformMatri'
	DB	'x4x3fv', 00H				; `string'
CONST	ENDS
;	COMDAT ??_C@_0BM@GHNJKKIP@glProgramUniformMatrix3x4fv@
CONST	SEGMENT
??_C@_0BM@GHNJKKIP@glProgramUniformMatrix3x4fv@ DB 'glProgramUniformMatri'
	DB	'x3x4fv', 00H				; `string'
CONST	ENDS
;	COMDAT ??_C@_0BM@FPLHMFOL@glProgramUniformMatrix4x2fv@
CONST	SEGMENT
??_C@_0BM@FPLHMFOL@glProgramUniformMatrix4x2fv@ DB 'glProgramUniformMatri'
	DB	'x4x2fv', 00H				; `string'
CONST	ENDS
;	COMDAT ??_C@_0BM@KMIFHJCK@glProgramUniformMatrix2x4fv@
CONST	SEGMENT
??_C@_0BM@KMIFHJCK@glProgramUniformMatrix2x4fv@ DB 'glProgramUniformMatri'
	DB	'x2x4fv', 00H				; `string'
CONST	ENDS
;	COMDAT ??_C@_0BM@ECLCPFFD@glProgramUniformMatrix3x2fv@
CONST	SEGMENT
??_C@_0BM@ECLCPFFD@glProgramUniformMatrix3x2fv@ DB 'glProgramUniformMatri'
	DB	'x3x2fv', 00H				; `string'
CONST	ENDS
;	COMDAT ??_C@_0BM@DBFCEBJD@glProgramUniformMatrix2x3fv@
CONST	SEGMENT
??_C@_0BM@DBFCEBJD@glProgramUniformMatrix2x3fv@ DB 'glProgramUniformMatri'
	DB	'x2x3fv', 00H				; `string'
CONST	ENDS
;	COMDAT ??_C@_0BK@NFBAAFLH@glProgramUniformMatrix4dv@
CONST	SEGMENT
??_C@_0BK@NFBAAFLH@glProgramUniformMatrix4dv@ DB 'glProgramUniformMatrix4'
	DB	'dv', 00H					; `string'
CONST	ENDS
;	COMDAT ??_C@_0BK@EIMHDNAO@glProgramUniformMatrix3dv@
CONST	SEGMENT
??_C@_0BK@EIMHDNAO@glProgramUniformMatrix3dv@ DB 'glProgramUniformMatrix3'
	DB	'dv', 00H					; `string'
CONST	ENDS
;	COMDAT ??_C@_0BK@PAHLFKGL@glProgramUniformMatrix2dv@
CONST	SEGMENT
??_C@_0BK@PAHLFKGL@glProgramUniformMatrix2dv@ DB 'glProgramUniformMatrix2'
	DB	'dv', 00H					; `string'
CONST	ENDS
;	COMDAT ??_C@_0BK@NGJENBNJ@glProgramUniformMatrix4fv@
CONST	SEGMENT
??_C@_0BK@NGJENBNJ@glProgramUniformMatrix4fv@ DB 'glProgramUniformMatrix4'
	DB	'fv', 00H					; `string'
CONST	ENDS
;	COMDAT ??_C@_0BK@ELEDOJGA@glProgramUniformMatrix3fv@
CONST	SEGMENT
??_C@_0BK@ELEDOJGA@glProgramUniformMatrix3fv@ DB 'glProgramUniformMatrix3'
	DB	'fv', 00H					; `string'
CONST	ENDS
;	COMDAT ??_C@_0BK@PDPPIOAF@glProgramUniformMatrix2fv@
CONST	SEGMENT
??_C@_0BK@PDPPIOAF@glProgramUniformMatrix2fv@ DB 'glProgramUniformMatrix2'
	DB	'fv', 00H					; `string'
CONST	ENDS
;	COMDAT ??_C@_0BF@JHNNHGB@glProgramUniform4uiv@
CONST	SEGMENT
??_C@_0BF@JHNNHGB@glProgramUniform4uiv@ DB 'glProgramUniform4uiv', 00H ; `string'
CONST	ENDS
;	COMDAT ??_C@_0BE@HCPNJOAF@glProgramUniform4ui@
CONST	SEGMENT
??_C@_0BE@HCPNJOAF@glProgramUniform4ui@ DB 'glProgramUniform4ui', 00H ; `string'
CONST	ENDS
;	COMDAT ??_C@_0BE@KCEDFJNM@glProgramUniform4dv@
CONST	SEGMENT
??_C@_0BE@KCEDFJNM@glProgramUniform4dv@ DB 'glProgramUniform4dv', 00H ; `string'
CONST	ENDS
;	COMDAT ??_C@_0BD@JNEOHKCK@glProgramUniform4d@
CONST	SEGMENT
??_C@_0BD@JNEOHKCK@glProgramUniform4d@ DB 'glProgramUniform4d', 00H ; `string'
CONST	ENDS
;	COMDAT ??_C@_0BE@KBMHINLC@glProgramUniform4fv@
CONST	SEGMENT
??_C@_0BE@KBMHINLC@glProgramUniform4fv@ DB 'glProgramUniform4fv', 00H ; `string'
CONST	ENDS
;	COMDAT ??_C@_0BD@KPHIBIKI@glProgramUniform4f@
CONST	SEGMENT
??_C@_0BD@KPHIBIKI@glProgramUniform4f@ DB 'glProgramUniform4f', 00H ; `string'
CONST	ENDS
;	COMDAT ??_C@_0BE@KKJLMKIP@glProgramUniform4iv@
CONST	SEGMENT
??_C@_0BE@KKJLMKIP@glProgramUniform4iv@ DB 'glProgramUniform4iv', 00H ; `string'
CONST	ENDS
;	COMDAT ??_C@_0BD@CIOAAEGH@glProgramUniform4i@
CONST	SEGMENT
??_C@_0BD@CIOAAEGH@glProgramUniform4i@ DB 'glProgramUniform4i', 00H ; `string'
CONST	ENDS
;	COMDAT ??_C@_0BF@LLFNALHB@glProgramUniform3uiv@
CONST	SEGMENT
??_C@_0BF@LLFNALHB@glProgramUniform3uiv@ DB 'glProgramUniform3uiv', 00H ; `string'
CONST	ENDS
;	COMDAT ??_C@_0BE@OPCKKGLM@glProgramUniform3ui@
CONST	SEGMENT
??_C@_0BE@OPCKKGLM@glProgramUniform3ui@ DB 'glProgramUniform3ui', 00H ; `string'
CONST	ENDS
;	COMDAT ??_C@_0BE@DPJEGBGF@glProgramUniform3dv@
CONST	SEGMENT
??_C@_0BE@DPJEGBGF@glProgramUniform3dv@ DB 'glProgramUniform3dv', 00H ; `string'
CONST	ENDS
;	COMDAT ??_C@_0BD@JIABGMKP@glProgramUniform3d@
CONST	SEGMENT
??_C@_0BD@JIABGMKP@glProgramUniform3d@ DB 'glProgramUniform3d', 00H ; `string'
CONST	ENDS
;	COMDAT ??_C@_0BE@DMBALFAL@glProgramUniform3fv@
CONST	SEGMENT
??_C@_0BE@DMBALFAL@glProgramUniform3fv@ DB 'glProgramUniform3fv', 00H ; `string'
CONST	ENDS
;	COMDAT ??_C@_0BD@KKDHAOCN@glProgramUniform3f@
CONST	SEGMENT
??_C@_0BD@KKDHAOCN@glProgramUniform3f@ DB 'glProgramUniform3f', 00H ; `string'
CONST	ENDS
;	COMDAT ??_C@_0BE@DHEMPCDG@glProgramUniform3iv@
CONST	SEGMENT
??_C@_0BE@DHEMPCDG@glProgramUniform3iv@ DB 'glProgramUniform3iv', 00H ; `string'
CONST	ENDS
;	COMDAT ??_C@_0BD@CNKPBCOC@glProgramUniform3i@
CONST	SEGMENT
??_C@_0BD@CNKPBCOC@glProgramUniform3i@ DB 'glProgramUniform3i', 00H ; `string'
CONST	ENDS
;	COMDAT ??_C@_0BF@IGDNCCMB@glProgramUniform2uiv@
CONST	SEGMENT
??_C@_0BF@IGDNCCMB@glProgramUniform2uiv@ DB 'glProgramUniform2uiv', 00H ; `string'
CONST	ENDS
;	COMDAT ??_C@_0BE@FHJGMBNJ@glProgramUniform2ui@
CONST	SEGMENT
??_C@_0BE@FHJGMBNJ@glProgramUniform2ui@ DB 'glProgramUniform2ui', 00H ; `string'
CONST	ENDS
;	COMDAT ??_C@_0BE@IHCIAGAA@glProgramUniform2dv@
CONST	SEGMENT
??_C@_0BE@IHCIAGAA@glProgramUniform2dv@ DB 'glProgramUniform2dv', 00H ; `string'
CONST	ENDS
;	COMDAT ??_C@_0BD@JJMDAGJI@glProgramUniform2d@
CONST	SEGMENT
??_C@_0BD@JJMDAGJI@glProgramUniform2d@ DB 'glProgramUniform2d', 00H ; `string'
CONST	ENDS
;	COMDAT ??_C@_0BE@IEKMNCGO@glProgramUniform2fv@
CONST	SEGMENT
??_C@_0BE@IEKMNCGO@glProgramUniform2fv@ DB 'glProgramUniform2fv', 00H ; `string'
CONST	ENDS
;	COMDAT ??_C@_0BD@KLPFGEBK@glProgramUniform2f@
CONST	SEGMENT
??_C@_0BD@KLPFGEBK@glProgramUniform2f@ DB 'glProgramUniform2f', 00H ; `string'
CONST	ENDS
;	COMDAT ??_C@_0BE@IPPAJFFD@glProgramUniform2iv@
CONST	SEGMENT
??_C@_0BE@IPPAJFFD@glProgramUniform2iv@ DB 'glProgramUniform2iv', 00H ; `string'
CONST	ENDS
;	COMDAT ??_C@_0BD@CMGNHINF@glProgramUniform2i@
CONST	SEGMENT
??_C@_0BD@CMGNHINF@glProgramUniform2i@ DB 'glProgramUniform2i', 00H ; `string'
CONST	ENDS
;	COMDAT ??_C@_0BF@MBJNFIBB@glProgramUniform1uiv@
CONST	SEGMENT
??_C@_0BF@MBJNFIBB@glProgramUniform1uiv@ DB 'glProgramUniform1uiv', 00H ; `string'
CONST	ENDS
;	COMDAT ??_C@_0BE@EFCDGODH@glProgramUniform1ui@
CONST	SEGMENT
??_C@_0BE@EFCDGODH@glProgramUniform1ui@ DB 'glProgramUniform1ui', 00H ; `string'
CONST	ENDS
;	COMDAT ??_C@_0BE@JFJNKJOO@glProgramUniform1dv@
CONST	SEGMENT
??_C@_0BE@JFJNKJOO@glProgramUniform1dv@ DB 'glProgramUniform1dv', 00H ; `string'
CONST	ENDS
;	COMDAT ??_C@_0BD@JLIFLIMB@glProgramUniform1d@
CONST	SEGMENT
??_C@_0BD@JLIFLIMB@glProgramUniform1d@ DB 'glProgramUniform1d', 00H ; `string'
CONST	ENDS
;	COMDAT ??_C@_0BE@JGBJHNIA@glProgramUniform1fv@
CONST	SEGMENT
??_C@_0BE@JGBJHNIA@glProgramUniform1fv@ DB 'glProgramUniform1fv', 00H ; `string'
CONST	ENDS
;	COMDAT ??_C@_0BD@KJLDNKED@glProgramUniform1f@
CONST	SEGMENT
??_C@_0BD@KJLDNKED@glProgramUniform1f@ DB 'glProgramUniform1f', 00H ; `string'
CONST	ENDS
;	COMDAT ??_C@_0BE@JNEFDKLN@glProgramUniform1iv@
CONST	SEGMENT
??_C@_0BE@JNEFDKLN@glProgramUniform1iv@ DB 'glProgramUniform1iv', 00H ; `string'
CONST	ENDS
;	COMDAT ??_C@_0BD@COCLMGIM@glProgramUniform1i@
CONST	SEGMENT
??_C@_0BD@COCLMGIM@glProgramUniform1i@ DB 'glProgramUniform1i', 00H ; `string'
CONST	ENDS
;	COMDAT ??_C@_0BH@DNOPNJMO@glGetProgramPipelineiv@
CONST	SEGMENT
??_C@_0BH@DNOPNJMO@glGetProgramPipelineiv@ DB 'glGetProgramPipelineiv', 00H ; `string'
CONST	ENDS
;	COMDAT ??_C@_0BE@DLHPDHCH@glIsProgramPipeline@
CONST	SEGMENT
??_C@_0BE@DLHPDHCH@glIsProgramPipeline@ DB 'glIsProgramPipeline', 00H ; `string'
CONST	ENDS
;	COMDAT ??_C@_0BG@CCBKOCA@glGenProgramPipelines@
CONST	SEGMENT
??_C@_0BG@CCBKOCA@glGenProgramPipelines@ DB 'glGenProgramPipelines', 00H ; `string'
CONST	ENDS
;	COMDAT ??_C@_0BJ@CHBGABHE@glDeleteProgramPipelines@
CONST	SEGMENT
??_C@_0BJ@CHBGABHE@glDeleteProgramPipelines@ DB 'glDeleteProgramPipelines'
	DB	00H						; `string'
CONST	ENDS
;	COMDAT ??_C@_0BG@GLPOKNCG@glBindProgramPipeline@
CONST	SEGMENT
??_C@_0BG@GLPOKNCG@glBindProgramPipeline@ DB 'glBindProgramPipeline', 00H ; `string'
CONST	ENDS
;	COMDAT ??_C@_0BH@BOJGDFJN@glCreateShaderProgramv@
CONST	SEGMENT
??_C@_0BH@BOJGDFJN@glCreateShaderProgramv@ DB 'glCreateShaderProgramv', 00H ; `string'
CONST	ENDS
;	COMDAT ??_C@_0BG@IAIOGMEB@glActiveShaderProgram@
CONST	SEGMENT
??_C@_0BG@IAIOGMEB@glActiveShaderProgram@ DB 'glActiveShaderProgram', 00H ; `string'
CONST	ENDS
;	COMDAT ??_C@_0BD@CADKHDMH@glUseProgramStages@
CONST	SEGMENT
??_C@_0BD@CADKHDMH@glUseProgramStages@ DB 'glUseProgramStages', 00H ; `string'
CONST	ENDS
;	COMDAT ??_C@_0BE@EELDBEME@glProgramParameteri@
CONST	SEGMENT
??_C@_0BE@EELDBEME@glProgramParameteri@ DB 'glProgramParameteri', 00H ; `string'
CONST	ENDS
;	COMDAT ??_C@_0BA@MIIDHOO@glProgramBinary@
CONST	SEGMENT
??_C@_0BA@MIIDHOO@glProgramBinary@ DB 'glProgramBinary', 00H ; `string'
CONST	ENDS
;	COMDAT ??_C@_0BD@JBCEHKON@glGetProgramBinary@
CONST	SEGMENT
??_C@_0BD@JBCEHKON@glGetProgramBinary@ DB 'glGetProgramBinary', 00H ; `string'
CONST	ENDS
;	COMDAT ??_C@_0O@FMBMCDIL@glClearDepthf@
CONST	SEGMENT
??_C@_0O@FMBMCDIL@glClearDepthf@ DB 'glClearDepthf', 00H ; `string'
CONST	ENDS
;	COMDAT ??_C@_0O@JDFJDNND@glDepthRangef@
CONST	SEGMENT
??_C@_0O@JDFJDNND@glDepthRangef@ DB 'glDepthRangef', 00H ; `string'
CONST	ENDS
;	COMDAT ??_C@_0BL@MLAOOHPD@glGetShaderPrecisionFormat@
CONST	SEGMENT
??_C@_0BL@MLAOOHPD@glGetShaderPrecisionFormat@ DB 'glGetShaderPrecisionFo'
	DB	'rmat', 00H					; `string'
CONST	ENDS
;	COMDAT ??_C@_0P@IMINELFB@glShaderBinary@
CONST	SEGMENT
??_C@_0P@IMINELFB@glShaderBinary@ DB 'glShaderBinary', 00H ; `string'
CONST	ENDS
;	COMDAT ??_C@_0BI@HGKABJPJ@glReleaseShaderCompiler@
CONST	SEGMENT
??_C@_0BI@HGKABJPJ@glReleaseShaderCompiler@ DB 'glReleaseShaderCompiler', 00H ; `string'
CONST	ENDS
;	COMDAT ??_C@_0BE@CCFJPMFI@glGetQueryIndexediv@
CONST	SEGMENT
??_C@_0BE@CCFJPMFI@glGetQueryIndexediv@ DB 'glGetQueryIndexediv', 00H ; `string'
CONST	ENDS
;	COMDAT ??_C@_0BC@DPMHMNME@glEndQueryIndexed@
CONST	SEGMENT
??_C@_0BC@DPMHMNME@glEndQueryIndexed@ DB 'glEndQueryIndexed', 00H ; `string'
CONST	ENDS
;	COMDAT ??_C@_0BE@BDKPJDEE@glBeginQueryIndexed@
CONST	SEGMENT
??_C@_0BE@BDKPJDEE@glBeginQueryIndexed@ DB 'glBeginQueryIndexed', 00H ; `string'
CONST	ENDS
;	COMDAT ??_C@_0BO@IGLFNCDG@glDrawTransformFeedbackStream@
CONST	SEGMENT
??_C@_0BO@IGLFNCDG@glDrawTransformFeedbackStream@ DB 'glDrawTransformFeed'
	DB	'backStream', 00H				; `string'
CONST	ENDS
;	COMDAT ??_C@_0BI@LEOILCPN@glDrawTransformFeedback@
CONST	SEGMENT
??_C@_0BI@LEOILCPN@glDrawTransformFeedback@ DB 'glDrawTransformFeedback', 00H ; `string'
CONST	ENDS
;	COMDAT ??_C@_0BK@JMHONFHF@glResumeTransformFeedback@
CONST	SEGMENT
??_C@_0BK@JMHONFHF@glResumeTransformFeedback@ DB 'glResumeTransformFeedba'
	DB	'ck', 00H					; `string'
CONST	ENDS
;	COMDAT ??_C@_0BJ@FFNLKBCB@glPauseTransformFeedback@
CONST	SEGMENT
??_C@_0BJ@FFNLKBCB@glPauseTransformFeedback@ DB 'glPauseTransformFeedback'
	DB	00H						; `string'
CONST	ENDS
;	COMDAT ??_C@_0BG@BGFLKHBM@glIsTransformFeedback@
CONST	SEGMENT
??_C@_0BG@BGFLKHBM@glIsTransformFeedback@ DB 'glIsTransformFeedback', 00H ; `string'
CONST	ENDS
;	COMDAT ??_C@_0BI@KANKBGAE@glGenTransformFeedbacks@
CONST	SEGMENT
??_C@_0BI@KANKBGAE@glGenTransformFeedbacks@ DB 'glGenTransformFeedbacks', 00H ; `string'
CONST	ENDS
;	COMDAT ??_C@_0BL@DIGEBFBK@glDeleteTransformFeedbacks@
CONST	SEGMENT
??_C@_0BL@DIGEBFBK@glDeleteTransformFeedbacks@ DB 'glDeleteTransformFeedb'
	DB	'acks', 00H					; `string'
CONST	ENDS
;	COMDAT ??_C@_0BI@BPJKLMIG@glBindTransformFeedback@
CONST	SEGMENT
??_C@_0BI@BPJKLMIG@glBindTransformFeedback@ DB 'glBindTransformFeedback', 00H ; `string'
CONST	ENDS
;	COMDAT ??_C@_0BD@LJKINJKN@glPatchParameterfv@
CONST	SEGMENT
??_C@_0BD@LJKINJKN@glPatchParameterfv@ DB 'glPatchParameterfv', 00H ; `string'
CONST	ENDS
;	COMDAT ??_C@_0BC@PAPDGMLA@glPatchParameteri@
CONST	SEGMENT
??_C@_0BC@PAPDGMLA@glPatchParameteri@ DB 'glPatchParameteri', 00H ; `string'
CONST	ENDS
;	COMDAT ??_C@_0BE@LOKJCDFH@glGetProgramStageiv@
CONST	SEGMENT
??_C@_0BE@LOKJCDFH@glGetProgramStageiv@ DB 'glGetProgramStageiv', 00H ; `string'
CONST	ENDS
;	COMDAT ??_C@_0BK@BLMOFAGJ@glGetUniformSubroutineuiv@
CONST	SEGMENT
??_C@_0BK@BLMOFAGJ@glGetUniformSubroutineuiv@ DB 'glGetUniformSubroutineu'
	DB	'iv', 00H					; `string'
CONST	ENDS
;	COMDAT ??_C@_0BI@CDPOBBHI@glUniformSubroutinesuiv@
CONST	SEGMENT
??_C@_0BI@CDPOBBHI@glUniformSubroutinesuiv@ DB 'glUniformSubroutinesuiv', 00H ; `string'
CONST	ENDS
;	COMDAT ??_C@_0BK@JPHEACLL@glGetActiveSubroutineName@
CONST	SEGMENT
??_C@_0BK@JPHEACLL@glGetActiveSubroutineName@ DB 'glGetActiveSubroutineNa'
	DB	'me', 00H					; `string'
CONST	ENDS
;	COMDAT ??_C@_0CB@KCFFPCGJ@glGetActiveSubroutineUniformNam@
CONST	SEGMENT
??_C@_0CB@KCFFPCGJ@glGetActiveSubroutineUniformNam@ DB 'glGetActiveSubrou'
	DB	'tineUniformName', 00H			; `string'
CONST	ENDS
;	COMDAT ??_C@_0BP@FAPFAJFP@glGetActiveSubroutineUniformiv@
CONST	SEGMENT
??_C@_0BP@FAPFAJFP@glGetActiveSubroutineUniformiv@ DB 'glGetActiveSubrout'
	DB	'ineUniformiv', 00H				; `string'
CONST	ENDS
;	COMDAT ??_C@_0BF@ONDIGCJG@glGetSubroutineIndex@
CONST	SEGMENT
??_C@_0BF@ONDIGCJG@glGetSubroutineIndex@ DB 'glGetSubroutineIndex', 00H ; `string'
CONST	ENDS
;	COMDAT ??_C@_0BP@IBIPLDOA@glGetSubroutineUniformLocation@
CONST	SEGMENT
??_C@_0BP@IBIPLDOA@glGetSubroutineUniformLocation@ DB 'glGetSubroutineUni'
	DB	'formLocation', 00H				; `string'
CONST	ENDS
;	COMDAT ??_C@_0P@NGEMHI@glGetUniformdv@
CONST	SEGMENT
??_C@_0P@NGEMHI@glGetUniformdv@ DB 'glGetUniformdv', 00H ; `string'
CONST	ENDS
;	COMDAT ??_C@_0BF@HGOEPFEJ@glUniformMatrix4x3dv@
CONST	SEGMENT
??_C@_0BF@HGOEPFEJ@glUniformMatrix4x3dv@ DB 'glUniformMatrix4x3dv', 00H ; `string'
CONST	ENDS
;	COMDAT ??_C@_0BF@MOFIJCCM@glUniformMatrix4x2dv@
CONST	SEGMENT
??_C@_0BF@MOFIJCCM@glUniformMatrix4x2dv@ DB 'glUniformMatrix4x2dv', 00H ; `string'
CONST	ENDS
;	COMDAT ??_C@_0BF@PGDGPNEI@glUniformMatrix3x4dv@
CONST	SEGMENT
??_C@_0BF@PGDGPNEI@glUniformMatrix3x4dv@ DB 'glUniformMatrix3x4dv', 00H ; `string'
CONST	ENDS
;	COMDAT ??_C@_0BF@NDFNKCJE@glUniformMatrix3x2dv@
CONST	SEGMENT
??_C@_0BF@NDFNKCJE@glUniformMatrix3x2dv@ DB 'glUniformMatrix3x2dv', 00H ; `string'
CONST	ENDS
;	COMDAT ??_C@_0BF@DNGKCOON@glUniformMatrix2x4dv@
CONST	SEGMENT
??_C@_0BF@DNGKCOON@glUniformMatrix2x4dv@ DB 'glUniformMatrix2x4dv', 00H ; `string'
CONST	ENDS
;	COMDAT ??_C@_0BF@KALNBGFE@glUniformMatrix2x3dv@
CONST	SEGMENT
??_C@_0BF@KALNBGFE@glUniformMatrix2x3dv@ DB 'glUniformMatrix2x3dv', 00H ; `string'
CONST	ENDS
;	COMDAT ??_C@_0BD@LOPGMAMB@glUniformMatrix4dv@
CONST	SEGMENT
??_C@_0BD@LOPGMAMB@glUniformMatrix4dv@ DB 'glUniformMatrix4dv', 00H ; `string'
CONST	ENDS
;	COMDAT ??_C@_0BD@CDCBPIHI@glUniformMatrix3dv@
CONST	SEGMENT
??_C@_0BD@CDCBPIHI@glUniformMatrix3dv@ DB 'glUniformMatrix3dv', 00H ; `string'
CONST	ENDS
;	COMDAT ??_C@_0BD@JLJNJPBN@glUniformMatrix2dv@
CONST	SEGMENT
??_C@_0BD@JLJNJPBN@glUniformMatrix2dv@ DB 'glUniformMatrix2dv', 00H ; `string'
CONST	ENDS
;	COMDAT ??_C@_0N@JNJEGONE@glUniform4dv@
CONST	SEGMENT
??_C@_0N@JNJEGONE@glUniform4dv@ DB 'glUniform4dv', 00H	; `string'
CONST	ENDS
;	COMDAT ??_C@_0N@EDFGGN@glUniform3dv@
CONST	SEGMENT
??_C@_0N@EDFGGN@glUniform3dv@ DB 'glUniform3dv', 00H	; `string'
CONST	ENDS
;	COMDAT ??_C@_0N@LIPPDBAI@glUniform2dv@
CONST	SEGMENT
??_C@_0N@LIPPDBAI@glUniform2dv@ DB 'glUniform2dv', 00H	; `string'
CONST	ENDS
;	COMDAT ??_C@_0N@KKEKJOOG@glUniform1dv@
CONST	SEGMENT
??_C@_0N@KKEKJOOG@glUniform1dv@ DB 'glUniform1dv', 00H	; `string'
CONST	ENDS
;	COMDAT ??_C@_0M@PPHPKPIM@glUniform4d@
CONST	SEGMENT
??_C@_0M@PPHPKPIM@glUniform4d@ DB 'glUniform4d', 00H	; `string'
CONST	ENDS
;	COMDAT ??_C@_0M@PKDALJAJ@glUniform3d@
CONST	SEGMENT
??_C@_0M@PKDALJAJ@glUniform3d@ DB 'glUniform3d', 00H	; `string'
CONST	ENDS
;	COMDAT ??_C@_0M@PLPCNDDO@glUniform2d@
CONST	SEGMENT
??_C@_0M@PLPCNDDO@glUniform2d@ DB 'glUniform2d', 00H	; `string'
CONST	ENDS
;	COMDAT ??_C@_0M@PJLEGNGH@glUniform1d@
CONST	SEGMENT
??_C@_0M@PJLEGNGH@glUniform1d@ DB 'glUniform1d', 00H	; `string'
CONST	ENDS
;	COMDAT ??_C@_0BH@LJJDOEDH@glDrawElementsIndirect@
CONST	SEGMENT
??_C@_0BH@LJJDOEDH@glDrawElementsIndirect@ DB 'glDrawElementsIndirect', 00H ; `string'
CONST	ENDS
;	COMDAT ??_C@_0BF@BGDCPAEP@glDrawArraysIndirect@
CONST	SEGMENT
??_C@_0BF@BGDCPAEP@glDrawArraysIndirect@ DB 'glDrawArraysIndirect', 00H ; `string'
CONST	ENDS
;	COMDAT ??_C@_0BF@PDDGKNBJ@glBlendFuncSeparatei@
CONST	SEGMENT
??_C@_0BF@PDDGKNBJ@glBlendFuncSeparatei@ DB 'glBlendFuncSeparatei', 00H ; `string'
CONST	ENDS
;	COMDAT ??_C@_0N@IKKELNNP@glBlendFunci@
CONST	SEGMENT
??_C@_0N@IKKELNNP@glBlendFunci@ DB 'glBlendFunci', 00H	; `string'
CONST	ENDS
;	COMDAT ??_C@_0BJ@FNMBAGAC@glBlendEquationSeparatei@
CONST	SEGMENT
??_C@_0BJ@FNMBAGAC@glBlendEquationSeparatei@ DB 'glBlendEquationSeparatei'
	DB	00H						; `string'
CONST	ENDS
;	COMDAT ??_C@_0BB@MKHLNEOM@glBlendEquationi@
CONST	SEGMENT
??_C@_0BB@MKHLNEOM@glBlendEquationi@ DB 'glBlendEquationi', 00H ; `string'
CONST	ENDS
;	COMDAT ??_C@_0BD@EDGCEBP@glMinSampleShading@
CONST	SEGMENT
??_C@_0BD@EDGCEBP@glMinSampleShading@ DB 'glMinSampleShading', 00H ; `string'
CONST	ENDS
;	COMDAT ??_C@_0BG@DPPPFGBG@glSecondaryColorP3uiv@
CONST	SEGMENT
??_C@_0BG@DPPPFGBG@glSecondaryColorP3uiv@ DB 'glSecondaryColorP3uiv', 00H ; `string'
CONST	ENDS
;	COMDAT ??_C@_0BF@PDDGBPKP@glSecondaryColorP3ui@
CONST	SEGMENT
??_C@_0BF@PDDGBPKP@glSecondaryColorP3ui@ DB 'glSecondaryColorP3ui', 00H ; `string'
CONST	ENDS
;	COMDAT ??_C@_0N@DDNDANIE@glColorP4uiv@
CONST	SEGMENT
??_C@_0N@DDNDANIE@glColorP4uiv@ DB 'glColorP4uiv', 00H	; `string'
CONST	ENDS
;	COMDAT ??_C@_0M@GJHGLFGE@glColorP4ui@
CONST	SEGMENT
??_C@_0M@GJHGLFGE@glColorP4ui@ DB 'glColorP4ui', 00H	; `string'
CONST	ENDS
;	COMDAT ??_C@_0N@IBPDNBJE@glColorP3uiv@
CONST	SEGMENT
??_C@_0N@IBPDNBJE@glColorP3uiv@ DB 'glColorP3uiv', 00H	; `string'
CONST	ENDS
;	COMDAT ??_C@_0M@PEKBINNN@glColorP3ui@
CONST	SEGMENT
??_C@_0M@PEKBINNN@glColorP3ui@ DB 'glColorP3ui', 00H	; `string'
CONST	ENDS
;	COMDAT ??_C@_0O@MOCJMHFG@glNormalP3uiv@
CONST	SEGMENT
??_C@_0O@MOCJMHFG@glNormalP3uiv@ DB 'glNormalP3uiv', 00H ; `string'
CONST	ENDS
;	COMDAT ??_C@_0N@PBEFBNHO@glNormalP3ui@
CONST	SEGMENT
??_C@_0N@PBEFBNHO@glNormalP3ui@ DB 'glNormalP3ui', 00H	; `string'
CONST	ENDS
;	COMDAT ??_C@_0BF@IONACAHK@glMultiTexCoordP4uiv@
CONST	SEGMENT
??_C@_0BF@IONACAHK@glMultiTexCoordP4uiv@ DB 'glMultiTexCoordP4uiv', 00H ; `string'
CONST	ENDS
;	COMDAT ??_C@_0BE@NHKJFHJE@glMultiTexCoordP4ui@
CONST	SEGMENT
??_C@_0BE@NHKJFHJE@glMultiTexCoordP4ui@ DB 'glMultiTexCoordP4ui', 00H ; `string'
CONST	ENDS
;	COMDAT ??_C@_0BF@DMPAPMGK@glMultiTexCoordP3uiv@
CONST	SEGMENT
??_C@_0BF@DMPAPMGK@glMultiTexCoordP3uiv@ DB 'glMultiTexCoordP3uiv', 00H ; `string'
CONST	ENDS
;	COMDAT ??_C@_0BE@EKHOGPCN@glMultiTexCoordP3ui@
CONST	SEGMENT
??_C@_0BE@EKHOGPCN@glMultiTexCoordP3ui@ DB 'glMultiTexCoordP3ui', 00H ; `string'
CONST	ENDS
;	COMDAT ??_C@_0BF@BJANFNK@glMultiTexCoordP2uiv@
CONST	SEGMENT
??_C@_0BF@BJANFNK@glMultiTexCoordP2uiv@ DB 'glMultiTexCoordP2uiv', 00H ; `string'
CONST	ENDS
;	COMDAT ??_C@_0BE@PCMCAIEI@glMultiTexCoordP2ui@
CONST	SEGMENT
??_C@_0BE@PCMCAIEI@glMultiTexCoordP2ui@ DB 'glMultiTexCoordP2ui', 00H ; `string'
CONST	ENDS
;	COMDAT ??_C@_0BF@EGDAKPAK@glMultiTexCoordP1uiv@
CONST	SEGMENT
??_C@_0BF@EGDAKPAK@glMultiTexCoordP1uiv@ DB 'glMultiTexCoordP1uiv', 00H ; `string'
CONST	ENDS
;	COMDAT ??_C@_0BE@OAHHKHKG@glMultiTexCoordP1ui@
CONST	SEGMENT
??_C@_0BE@OAHHKHKG@glMultiTexCoordP1ui@ DB 'glMultiTexCoordP1ui', 00H ; `string'
CONST	ENDS
;	COMDAT ??_C@_0BA@JILHAPCD@glTexCoordP4uiv@
CONST	SEGMENT
??_C@_0BA@JILHAPCD@glTexCoordP4uiv@ DB 'glTexCoordP4uiv', 00H ; `string'
CONST	ENDS
;	COMDAT ??_C@_0P@NMEJELEL@glTexCoordP4ui@
CONST	SEGMENT
??_C@_0P@NMEJELEL@glTexCoordP4ui@ DB 'glTexCoordP4ui', 00H ; `string'
CONST	ENDS
;	COMDAT ??_C@_0BA@CKJHNDDD@glTexCoordP3uiv@
CONST	SEGMENT
??_C@_0BA@CKJHNDDD@glTexCoordP3uiv@ DB 'glTexCoordP3uiv', 00H ; `string'
CONST	ENDS
;	COMDAT ??_C@_0P@EBJOHDPC@glTexCoordP3ui@
CONST	SEGMENT
??_C@_0P@EBJOHDPC@glTexCoordP3ui@ DB 'glTexCoordP3ui', 00H ; `string'
CONST	ENDS
;	COMDAT ??_C@_0BA@BHPHPKID@glTexCoordP2uiv@
CONST	SEGMENT
??_C@_0BA@BHPHPKID@glTexCoordP2uiv@ DB 'glTexCoordP2uiv', 00H ; `string'
CONST	ENDS
;	COMDAT ??_C@_0P@PJCCBEJH@glTexCoordP2ui@
CONST	SEGMENT
??_C@_0P@PJCCBEJH@glTexCoordP2ui@ DB 'glTexCoordP2ui', 00H ; `string'
CONST	ENDS
;	COMDAT ??_C@_0BA@FAFHIAFD@glTexCoordP1uiv@
CONST	SEGMENT
??_C@_0BA@FAFHIAFD@glTexCoordP1uiv@ DB 'glTexCoordP1uiv', 00H ; `string'
CONST	ENDS
;	COMDAT ??_C@_0P@OLJHLLHJ@glTexCoordP1ui@
CONST	SEGMENT
??_C@_0P@OLJHLLHJ@glTexCoordP1ui@ DB 'glTexCoordP1ui', 00H ; `string'
CONST	ENDS
;	COMDAT ??_C@_0O@IDAKJKMN@glVertexP4uiv@
CONST	SEGMENT
??_C@_0O@IDAKJKMN@glVertexP4uiv@ DB 'glVertexP4uiv', 00H ; `string'
CONST	ENDS
;	COMDAT ??_C@_0N@GAHJNOBO@glVertexP4ui@
CONST	SEGMENT
??_C@_0N@GAHJNOBO@glVertexP4ui@ DB 'glVertexP4ui', 00H	; `string'
CONST	ENDS
;	COMDAT ??_C@_0O@DBCKEGNN@glVertexP3uiv@
CONST	SEGMENT
??_C@_0O@DBCKEGNN@glVertexP3uiv@ DB 'glVertexP3uiv', 00H ; `string'
CONST	ENDS
;	COMDAT ??_C@_0N@PNKOOGKH@glVertexP3ui@
CONST	SEGMENT
??_C@_0N@PNKOOGKH@glVertexP3ui@ DB 'glVertexP3ui', 00H	; `string'
CONST	ENDS
;	COMDAT ??_C@_0O@MEKGPGN@glVertexP2uiv@
CONST	SEGMENT
??_C@_0O@MEKGPGN@glVertexP2uiv@ DB 'glVertexP2uiv', 00H	; `string'
CONST	ENDS
;	COMDAT ??_C@_0N@EFBCIBMC@glVertexP2ui@
CONST	SEGMENT
??_C@_0N@EFBCIBMC@glVertexP2ui@ DB 'glVertexP2ui', 00H	; `string'
CONST	ENDS
;	COMDAT ??_C@_0BE@LJLDGOAD@glVertexAttribP4uiv@
CONST	SEGMENT
??_C@_0BE@LJLDGOAD@glVertexAttribP4uiv@ DB 'glVertexAttribP4uiv', 00H ; `string'
CONST	ENDS
;	COMDAT ??_C@_0BD@GMNMNOHP@glVertexAttribP4ui@
CONST	SEGMENT
??_C@_0BD@GMNMNOHP@glVertexAttribP4ui@ DB 'glVertexAttribP4ui', 00H ; `string'
CONST	ENDS
;	COMDAT ??_C@_0BE@LJDLCBD@glVertexAttribP3uiv@
CONST	SEGMENT
??_C@_0BE@LJDLCBD@glVertexAttribP3uiv@ DB 'glVertexAttribP3uiv', 00H ; `string'
CONST	ENDS
;	COMDAT ??_C@_0BD@PBALOGMG@glVertexAttribP3ui@
CONST	SEGMENT
??_C@_0BD@PBALOGMG@glVertexAttribP3ui@ DB 'glVertexAttribP3ui', 00H ; `string'
CONST	ENDS
;	COMDAT ??_C@_0BE@DGPDJLKD@glVertexAttribP2uiv@
CONST	SEGMENT
??_C@_0BE@DGPDJLKD@glVertexAttribP2uiv@ DB 'glVertexAttribP2uiv', 00H ; `string'
CONST	ENDS
;	COMDAT ??_C@_0BD@EJLHIBKD@glVertexAttribP2ui@
CONST	SEGMENT
??_C@_0BD@EJLHIBKD@glVertexAttribP2ui@ DB 'glVertexAttribP2ui', 00H ; `string'
CONST	ENDS
;	COMDAT ??_C@_0BE@HBFDOBHD@glVertexAttribP1uiv@
CONST	SEGMENT
??_C@_0BE@HBFDOBHD@glVertexAttribP1uiv@ DB 'glVertexAttribP1uiv', 00H ; `string'
CONST	ENDS
;	COMDAT ??_C@_0BD@FLACCOEN@glVertexAttribP1ui@
CONST	SEGMENT
??_C@_0BD@FLACCOEN@glVertexAttribP1ui@ DB 'glVertexAttribP1ui', 00H ; `string'
CONST	ENDS
;	COMDAT ??_C@_0BG@NEBMAEHM@glVertexAttribDivisor@
CONST	SEGMENT
??_C@_0BG@NEBMAEHM@glVertexAttribDivisor@ DB 'glVertexAttribDivisor', 00H ; `string'
CONST	ENDS
;	COMDAT ??_C@_0BG@NEGGOMJO@glGetQueryObjectui64v@
CONST	SEGMENT
??_C@_0BG@NEGGOMJO@glGetQueryObjectui64v@ DB 'glGetQueryObjectui64v', 00H ; `string'
CONST	ENDS
;	COMDAT ??_C@_0BF@JDAPDEPE@glGetQueryObjecti64v@
CONST	SEGMENT
??_C@_0BF@JDAPDEPE@glGetQueryObjecti64v@ DB 'glGetQueryObjecti64v', 00H ; `string'
CONST	ENDS
;	COMDAT ??_C@_0P@KALICDIM@glQueryCounter@
CONST	SEGMENT
??_C@_0P@KALICDIM@glQueryCounter@ DB 'glQueryCounter', 00H ; `string'
CONST	ENDS
;	COMDAT ??_C@_0BK@CMBGFHDA@glGetSamplerParameterIuiv@
CONST	SEGMENT
??_C@_0BK@CMBGFHDA@glGetSamplerParameterIuiv@ DB 'glGetSamplerParameterIu'
	DB	'iv', 00H					; `string'
CONST	ENDS
;	COMDAT ??_C@_0BI@FPHMKMKC@glGetSamplerParameterfv@
CONST	SEGMENT
??_C@_0BI@FPHMKMKC@glGetSamplerParameterfv@ DB 'glGetSamplerParameterfv', 00H ; `string'
CONST	ENDS
;	COMDAT ??_C@_0BJ@KOMJDLDN@glGetSamplerParameterIiv@
CONST	SEGMENT
??_C@_0BJ@KOMJDLDN@glGetSamplerParameterIiv@ DB 'glGetSamplerParameterIiv'
	DB	00H						; `string'
CONST	ENDS
;	COMDAT ??_C@_0BI@FECAOLJP@glGetSamplerParameteriv@
CONST	SEGMENT
??_C@_0BI@FECAOLJP@glGetSamplerParameteriv@ DB 'glGetSamplerParameteriv', 00H ; `string'
CONST	ENDS
;	COMDAT ??_C@_0BH@FEMFBPPB@glSamplerParameterIuiv@
CONST	SEGMENT
??_C@_0BH@FEMFBPPB@glSamplerParameterIuiv@ DB 'glSamplerParameterIuiv', 00H ; `string'
CONST	ENDS
;	COMDAT ??_C@_0BG@HKEIFIHF@glSamplerParameterIiv@
CONST	SEGMENT
??_C@_0BG@HKEIFIHF@glSamplerParameterIiv@ DB 'glSamplerParameterIiv', 00H ; `string'
CONST	ENDS
;	COMDAT ??_C@_0BF@GFCPAGMB@glSamplerParameterfv@
CONST	SEGMENT
??_C@_0BF@GFCPAGMB@glSamplerParameterfv@ DB 'glSamplerParameterfv', 00H ; `string'
CONST	ENDS
;	COMDAT ??_C@_0BE@CGLJNDFB@glSamplerParameterf@
CONST	SEGMENT
??_C@_0BE@CGLJNDFB@glSamplerParameterf@ DB 'glSamplerParameterf', 00H ; `string'
CONST	ENDS
;	COMDAT ??_C@_0BF@GOHDEBPM@glSamplerParameteriv@
CONST	SEGMENT
??_C@_0BF@GOHDEBPM@glSamplerParameteriv@ DB 'glSamplerParameteriv', 00H ; `string'
CONST	ENDS
;	COMDAT ??_C@_0BE@KBCBMPJO@glSamplerParameteri@
CONST	SEGMENT
??_C@_0BE@KBCBMPJO@glSamplerParameteri@ DB 'glSamplerParameteri', 00H ; `string'
CONST	ENDS
;	COMDAT ??_C@_0O@PDEILAPG@glBindSampler@
CONST	SEGMENT
??_C@_0O@PDEILAPG@glBindSampler@ DB 'glBindSampler', 00H ; `string'
CONST	ENDS
;	COMDAT ??_C@_0M@LAJKHOKJ@glIsSampler@
CONST	SEGMENT
??_C@_0M@LAJKHOKJ@glIsSampler@ DB 'glIsSampler', 00H	; `string'
CONST	ENDS
;	COMDAT ??_C@_0BB@FLPAOEOO@glDeleteSamplers@
CONST	SEGMENT
??_C@_0BB@FLPAOEOO@glDeleteSamplers@ DB 'glDeleteSamplers', 00H ; `string'
CONST	ENDS
;	COMDAT ??_C@_0O@EMMLGGLG@glGenSamplers@
CONST	SEGMENT
??_C@_0O@EMMLGGLG@glGenSamplers@ DB 'glGenSamplers', 00H ; `string'
CONST	ENDS
;	COMDAT ??_C@_0BD@COCJFEOH@glGetFragDataIndex@
CONST	SEGMENT
??_C@_0BD@COCJFEOH@glGetFragDataIndex@ DB 'glGetFragDataIndex', 00H ; `string'
CONST	ENDS
;	COMDAT ??_C@_0BO@POJBGCGG@glBindFragDataLocationIndexed@
CONST	SEGMENT
??_C@_0BO@POJBGCGG@glBindFragDataLocationIndexed@ DB 'glBindFragDataLocat'
	DB	'ionIndexed', 00H				; `string'
CONST	ENDS
;	COMDAT ??_C@_0O@JNHBCHMB@glSampleMaski@
CONST	SEGMENT
??_C@_0O@JNHBCHMB@glSampleMaski@ DB 'glSampleMaski', 00H ; `string'
CONST	ENDS
;	COMDAT ??_C@_0BD@DHLIMGN@glGetMultisamplefv@
CONST	SEGMENT
??_C@_0BD@DHLIMGN@glGetMultisamplefv@ DB 'glGetMultisamplefv', 00H ; `string'
CONST	ENDS
;	COMDAT ??_C@_0BI@JIHMLKCG@glTexImage3DMultisample@
CONST	SEGMENT
??_C@_0BI@JIHMLKCG@glTexImage3DMultisample@ DB 'glTexImage3DMultisample', 00H ; `string'
CONST	ENDS
;	COMDAT ??_C@_0BI@FHDFLFA@glTexImage2DMultisample@
CONST	SEGMENT
??_C@_0BI@FHDFLFA@glTexImage2DMultisample@ DB 'glTexImage2DMultisample', 00H ; `string'
CONST	ENDS
;	COMDAT ??_C@_0BF@ENLMLILA@glFramebufferTexture@
CONST	SEGMENT
??_C@_0BF@ENLMLILA@glFramebufferTexture@ DB 'glFramebufferTexture', 00H ; `string'
CONST	ENDS
;	COMDAT ??_C@_0BJ@KKBIDGPP@glGetBufferParameteri64v@
CONST	SEGMENT
??_C@_0BJ@KKBIDGPP@glGetBufferParameteri64v@ DB 'glGetBufferParameteri64v'
	DB	00H						; `string'
CONST	ENDS
;	COMDAT ??_C@_0BC@KOJILIEC@glGetInteger64i_v@
CONST	SEGMENT
??_C@_0BC@KOJILIEC@glGetInteger64i_v@ DB 'glGetInteger64i_v', 00H ; `string'
CONST	ENDS
;	COMDAT ??_C@_0M@MPEEOPIN@glGetSynciv@
CONST	SEGMENT
??_C@_0M@MPEEOPIN@glGetSynciv@ DB 'glGetSynciv', 00H	; `string'
CONST	ENDS
;	COMDAT ??_C@_0BA@INMBOHGL@glGetInteger64v@
CONST	SEGMENT
??_C@_0BA@INMBOHGL@glGetInteger64v@ DB 'glGetInteger64v', 00H ; `string'
CONST	ENDS
;	COMDAT ??_C@_0L@MHLOGHGO@glWaitSync@
CONST	SEGMENT
??_C@_0L@MHLOGHGO@glWaitSync@ DB 'glWaitSync', 00H	; `string'
CONST	ENDS
;	COMDAT ??_C@_0BB@KDMPGJAC@glClientWaitSync@
CONST	SEGMENT
??_C@_0BB@KDMPGJAC@glClientWaitSync@ DB 'glClientWaitSync', 00H ; `string'
CONST	ENDS
;	COMDAT ??_C@_0N@PIFDNDFG@glDeleteSync@
CONST	SEGMENT
??_C@_0N@PIFDNDFG@glDeleteSync@ DB 'glDeleteSync', 00H	; `string'
CONST	ENDS
;	COMDAT ??_C@_08JPIIHJEO@glIsSync@
CONST	SEGMENT
??_C@_08JPIIHJEO@glIsSync@ DB 'glIsSync', 00H		; `string'
CONST	ENDS
;	COMDAT ??_C@_0M@EFGFPFLP@glFenceSync@
CONST	SEGMENT
??_C@_0M@EFGFPFLP@glFenceSync@ DB 'glFenceSync', 00H	; `string'
CONST	ENDS
;	COMDAT ??_C@_0BC@ECOAPEBI@glProvokingVertex@
CONST	SEGMENT
??_C@_0BC@ECOAPEBI@glProvokingVertex@ DB 'glProvokingVertex', 00H ; `string'
CONST	ENDS
;	COMDAT ??_C@_0BO@NAPFJEEK@glMultiDrawElementsBaseVertex@
CONST	SEGMENT
??_C@_0BO@NAPFJEEK@glMultiDrawElementsBaseVertex@ DB 'glMultiDrawElements'
	DB	'BaseVertex', 00H				; `string'
CONST	ENDS
;	COMDAT ??_C@_0CC@KLOIIKNA@glDrawElementsInstancedBaseVert@
CONST	SEGMENT
??_C@_0CC@KLOIIKNA@glDrawElementsInstancedBaseVert@ DB 'glDrawElementsIns'
	DB	'tancedBaseVertex', 00H			; `string'
CONST	ENDS
;	COMDAT ??_C@_0BO@KBDDBILP@glDrawRangeElementsBaseVertex@
CONST	SEGMENT
??_C@_0BO@KBDDBILP@glDrawRangeElementsBaseVertex@ DB 'glDrawRangeElements'
	DB	'BaseVertex', 00H				; `string'
CONST	ENDS
;	COMDAT ??_C@_0BJ@LFMMIAHA@glDrawElementsBaseVertex@
CONST	SEGMENT
??_C@_0BJ@LFMMIAHA@glDrawElementsBaseVertex@ DB 'glDrawElementsBaseVertex'
	DB	00H						; `string'
CONST	ENDS
;	COMDAT ??_C@_0BG@BOLEKKCP@glUniformBlockBinding@
CONST	SEGMENT
??_C@_0BG@BOLEKKCP@glUniformBlockBinding@ DB 'glUniformBlockBinding', 00H ; `string'
CONST	ENDS
;	COMDAT ??_C@_0BM@KEMCJPAJ@glGetActiveUniformBlockName@
CONST	SEGMENT
??_C@_0BM@KEMCJPAJ@glGetActiveUniformBlockName@ DB 'glGetActiveUniformBlo'
	DB	'ckName', 00H				; `string'
CONST	ENDS
;	COMDAT ??_C@_0BK@DMHOPJGL@glGetActiveUniformBlockiv@
CONST	SEGMENT
??_C@_0BK@DMHOPJGL@glGetActiveUniformBlockiv@ DB 'glGetActiveUniformBlock'
	DB	'iv', 00H					; `string'
CONST	ENDS
;	COMDAT ??_C@_0BH@CBDIMHHE@glGetUniformBlockIndex@
CONST	SEGMENT
??_C@_0BH@CBDIMHHE@glGetUniformBlockIndex@ DB 'glGetUniformBlockIndex', 00H ; `string'
CONST	ENDS
;	COMDAT ??_C@_0BH@EGGFHKJJ@glGetActiveUniformName@
CONST	SEGMENT
??_C@_0BH@EGGFHKJJ@glGetActiveUniformName@ DB 'glGetActiveUniformName', 00H ; `string'
CONST	ENDS
;	COMDAT ??_C@_0BG@JEHIMPCG@glGetActiveUniformsiv@
CONST	SEGMENT
??_C@_0BG@JEHIMPCG@glGetActiveUniformsiv@ DB 'glGetActiveUniformsiv', 00H ; `string'
CONST	ENDS
;	COMDAT ??_C@_0BE@MDPMIDEE@glGetUniformIndices@
CONST	SEGMENT
??_C@_0BE@MDPMIDEE@glGetUniformIndices@ DB 'glGetUniformIndices', 00H ; `string'
CONST	ENDS
;	COMDAT ??_C@_0BE@EPKABDOG@glCopyBufferSubData@
CONST	SEGMENT
??_C@_0BE@EPKABDOG@glCopyBufferSubData@ DB 'glCopyBufferSubData', 00H ; `string'
CONST	ENDS
;	COMDAT ??_C@_0BI@LJDLNGAF@glPrimitiveRestartIndex@
CONST	SEGMENT
??_C@_0BI@LJDLNGAF@glPrimitiveRestartIndex@ DB 'glPrimitiveRestartIndex', 00H ; `string'
CONST	ENDS
;	COMDAT ??_C@_0M@IIMBBALL@glTexBuffer@
CONST	SEGMENT
??_C@_0M@IIMBBALL@glTexBuffer@ DB 'glTexBuffer', 00H	; `string'
CONST	ENDS
;	COMDAT ??_C@_0BI@CGJENFBH@glDrawElementsInstanced@
CONST	SEGMENT
??_C@_0BI@CGJENFBH@glDrawElementsInstanced@ DB 'glDrawElementsInstanced', 00H ; `string'
CONST	ENDS
;	COMDAT ??_C@_0BG@HIOFINAN@glDrawArraysInstanced@
CONST	SEGMENT
??_C@_0BG@HIOFINAN@glDrawArraysInstanced@ DB 'glDrawArraysInstanced', 00H ; `string'
CONST	ENDS
;	COMDAT ??_C@_0BA@ODJEGGAE@glIsVertexArray@
CONST	SEGMENT
??_C@_0BA@ODJEGGAE@glIsVertexArray@ DB 'glIsVertexArray', 00H ; `string'
CONST	ENDS
;	COMDAT ??_C@_0BC@EPJLBJBJ@glGenVertexArrays@
CONST	SEGMENT
??_C@_0BC@EPJLBJBJ@glGenVertexArrays@ DB 'glGenVertexArrays', 00H ; `string'
CONST	ENDS
;	COMDAT ??_C@_0BF@BMPCJLEF@glDeleteVertexArrays@
CONST	SEGMENT
??_C@_0BF@BMPCJLEF@glDeleteVertexArrays@ DB 'glDeleteVertexArrays', 00H ; `string'
CONST	ENDS
;	COMDAT ??_C@_0BC@LHBAHFAN@glBindVertexArray@
CONST	SEGMENT
??_C@_0BC@LHBAHFAN@glBindVertexArray@ DB 'glBindVertexArray', 00H ; `string'
CONST	ENDS
;	COMDAT ??_C@_0BJ@NCDMGHKF@glFlushMappedBufferRange@
CONST	SEGMENT
??_C@_0BJ@NCDMGHKF@glFlushMappedBufferRange@ DB 'glFlushMappedBufferRange'
	DB	00H						; `string'
CONST	ENDS
;	COMDAT ??_C@_0BB@EOHJGBIO@glMapBufferRange@
CONST	SEGMENT
??_C@_0BB@EOHJGBIO@glMapBufferRange@ DB 'glMapBufferRange', 00H ; `string'
CONST	ENDS
;	COMDAT ??_C@_0BK@NIHIDBBO@glFramebufferTextureLayer@
CONST	SEGMENT
??_C@_0BK@NIHIDBBO@glFramebufferTextureLayer@ DB 'glFramebufferTextureLay'
	DB	'er', 00H					; `string'
CONST	ENDS
;	COMDAT ??_C@_0CB@HNONLGJE@glRenderbufferStorageMultisampl@
CONST	SEGMENT
??_C@_0CB@HNONLGJE@glRenderbufferStorageMultisampl@ DB 'glRenderbufferSto'
	DB	'rageMultisample', 00H			; `string'
CONST	ENDS
;	COMDAT ??_C@_0BC@OANBDDEP@glBlitFramebuffer@
CONST	SEGMENT
??_C@_0BC@OANBDDEP@glBlitFramebuffer@ DB 'glBlitFramebuffer', 00H ; `string'
CONST	ENDS
;	COMDAT ??_C@_0BB@BHNIMGDM@glGenerateMipmap@
CONST	SEGMENT
??_C@_0BB@BHNIMGDM@glGenerateMipmap@ DB 'glGenerateMipmap', 00H ; `string'
CONST	ENDS
;	COMDAT ??_C@_0CG@KLDGJEON@glGetFramebufferAttachmentParam@
CONST	SEGMENT
??_C@_0CG@KLDGJEON@glGetFramebufferAttachmentParam@ DB 'glGetFramebufferA'
	DB	'ttachmentParameteriv', 00H			; `string'
CONST	ENDS
;	COMDAT ??_C@_0BK@OJDINAOA@glFramebufferRenderbuffer@
CONST	SEGMENT
??_C@_0BK@OJDINAOA@glFramebufferRenderbuffer@ DB 'glFramebufferRenderbuff'
	DB	'er', 00H					; `string'
CONST	ENDS
;	COMDAT ??_C@_0BH@JDEHAJHC@glFramebufferTexture3D@
CONST	SEGMENT
??_C@_0BH@JDEHAJHC@glFramebufferTexture3D@ DB 'glFramebufferTexture3D', 00H ; `string'
CONST	ENDS
;	COMDAT ??_C@_0BH@JCIFGDEF@glFramebufferTexture2D@
CONST	SEGMENT
??_C@_0BH@JCIFGDEF@glFramebufferTexture2D@ DB 'glFramebufferTexture2D', 00H ; `string'
CONST	ENDS
;	COMDAT ??_C@_0BH@JAMDNNBM@glFramebufferTexture1D@
CONST	SEGMENT
??_C@_0BH@JAMDNNBM@glFramebufferTexture1D@ DB 'glFramebufferTexture1D', 00H ; `string'
CONST	ENDS
;	COMDAT ??_C@_0BJ@GIOLHEAD@glCheckFramebufferStatus@
CONST	SEGMENT
??_C@_0BJ@GIOLHEAD@glCheckFramebufferStatus@ DB 'glCheckFramebufferStatus'
	DB	00H						; `string'
CONST	ENDS
;	COMDAT ??_C@_0BC@FAPEBGID@glGenFramebuffers@
CONST	SEGMENT
??_C@_0BC@FAPEBGID@glGenFramebuffers@ DB 'glGenFramebuffers', 00H ; `string'
CONST	ENDS
;	COMDAT ??_C@_0BF@DJNJENP@glDeleteFramebuffers@
CONST	SEGMENT
??_C@_0BF@DJNJENP@glDeleteFramebuffers@ DB 'glDeleteFramebuffers', 00H ; `string'
CONST	ENDS
;	COMDAT ??_C@_0BC@CJMIBNO@glBindFramebuffer@
CONST	SEGMENT
??_C@_0BC@CJMIBNO@glBindFramebuffer@ DB 'glBindFramebuffer', 00H ; `string'
CONST	ENDS
;	COMDAT ??_C@_0BA@FGBIJCNH@glIsFramebuffer@
CONST	SEGMENT
??_C@_0BA@FGBIJCNH@glIsFramebuffer@ DB 'glIsFramebuffer', 00H ; `string'
CONST	ENDS
;	COMDAT ??_C@_0BN@FGKAECKO@glGetRenderbufferParameteriv@
CONST	SEGMENT
??_C@_0BN@FGKAECKO@glGetRenderbufferParameteriv@ DB 'glGetRenderbufferPar'
	DB	'ameteriv', 00H				; `string'
CONST	ENDS
;	COMDAT ??_C@_0BG@EOIILGMJ@glRenderbufferStorage@
CONST	SEGMENT
??_C@_0BG@EOIILGMJ@glRenderbufferStorage@ DB 'glRenderbufferStorage', 00H ; `string'
CONST	ENDS
;	COMDAT ??_C@_0BD@MIGEDNGJ@glGenRenderbuffers@
CONST	SEGMENT
??_C@_0BD@MIGEDNGJ@glGenRenderbuffers@ DB 'glGenRenderbuffers', 00H ; `string'
CONST	ENDS
;	COMDAT ??_C@_0BG@KKOKEJDE@glDeleteRenderbuffers@
CONST	SEGMENT
??_C@_0BG@KKOKEJDE@glDeleteRenderbuffers@ DB 'glDeleteRenderbuffers', 00H ; `string'
CONST	ENDS
;	COMDAT ??_C@_0BD@EPOPJGFA@glBindRenderbuffer@
CONST	SEGMENT
??_C@_0BD@EPOPJGFA@glBindRenderbuffer@ DB 'glBindRenderbuffer', 00H ; `string'
CONST	ENDS
;	COMDAT ??_C@_0BB@DGGHKKOH@glIsRenderbuffer@
CONST	SEGMENT
??_C@_0BB@DGGHKKOH@glIsRenderbuffer@ DB 'glIsRenderbuffer', 00H ; `string'
CONST	ENDS
;	COMDAT ??_C@_0N@PILJCBOD@glGetStringi@
CONST	SEGMENT
??_C@_0N@PILJCBOD@glGetStringi@ DB 'glGetStringi', 00H	; `string'
CONST	ENDS
;	COMDAT ??_C@_0BA@OACPENCO@glClearBufferfi@
CONST	SEGMENT
??_C@_0BA@OACPENCO@glClearBufferfi@ DB 'glClearBufferfi', 00H ; `string'
CONST	ENDS
;	COMDAT ??_C@_0BA@CNHFEDLA@glClearBufferfv@
CONST	SEGMENT
??_C@_0BA@CNHFEDLA@glClearBufferfv@ DB 'glClearBufferfv', 00H ; `string'
CONST	ENDS
;	COMDAT ??_C@_0BB@OHPPAEID@glClearBufferuiv@
CONST	SEGMENT
??_C@_0BB@OHPPAEID@glClearBufferuiv@ DB 'glClearBufferuiv', 00H ; `string'
CONST	ENDS
;	COMDAT ??_C@_0BA@CGCJAEIN@glClearBufferiv@
CONST	SEGMENT
??_C@_0BA@CGCJAEIN@glClearBufferiv@ DB 'glClearBufferiv', 00H ; `string'
CONST	ENDS
;	COMDAT ??_C@_0BG@MLODKKFL@glGetTexParameterIuiv@
CONST	SEGMENT
??_C@_0BG@MLODKKFL@glGetTexParameterIuiv@ DB 'glGetTexParameterIuiv', 00H ; `string'
CONST	ENDS
;	COMDAT ??_C@_0BF@ODBJFHDD@glGetTexParameterIiv@
CONST	SEGMENT
??_C@_0BF@ODBJFHDD@glGetTexParameterIiv@ DB 'glGetTexParameterIiv', 00H ; `string'
CONST	ENDS
;	COMDAT ??_C@_0BD@FDBCMKBE@glTexParameterIuiv@
CONST	SEGMENT
??_C@_0BD@FDBCMKBE@glTexParameterIuiv@ DB 'glTexParameterIuiv', 00H ; `string'
CONST	ENDS
;	COMDAT ??_C@_0BC@MAFJKEHB@glTexParameterIiv@
CONST	SEGMENT
??_C@_0BC@MAFJKEHB@glTexParameterIiv@ DB 'glTexParameterIiv', 00H ; `string'
CONST	ENDS
;	COMDAT ??_C@_0O@HJJIIGE@glUniform4uiv@
CONST	SEGMENT
??_C@_0O@HJJIIGE@glUniform4uiv@ DB 'glUniform4uiv', 00H	; `string'
CONST	ENDS
;	COMDAT ??_C@_0O@LFLJFEHE@glUniform3uiv@
CONST	SEGMENT
??_C@_0O@LFLJFEHE@glUniform3uiv@ DB 'glUniform3uiv', 00H ; `string'
CONST	ENDS
;	COMDAT ??_C@_0O@IINJHNME@glUniform2uiv@
CONST	SEGMENT
??_C@_0O@IINJHNME@glUniform2uiv@ DB 'glUniform2uiv', 00H ; `string'
CONST	ENDS
;	COMDAT ??_C@_0O@MPHJAHBE@glUniform1uiv@
CONST	SEGMENT
??_C@_0O@MPHJAHBE@glUniform1uiv@ DB 'glUniform1uiv', 00H ; `string'
CONST	ENDS
;	COMDAT ??_C@_0N@ENCKKJAN@glUniform4ui@
CONST	SEGMENT
??_C@_0N@ENCKKJAN@glUniform4ui@ DB 'glUniform4ui', 00H	; `string'
CONST	ENDS
;	COMDAT ??_C@_0N@NAPNJBLE@glUniform3ui@
CONST	SEGMENT
??_C@_0N@NAPNJBLE@glUniform3ui@ DB 'glUniform3ui', 00H	; `string'
CONST	ENDS
;	COMDAT ??_C@_0N@GIEBPGNB@glUniform2ui@
CONST	SEGMENT
??_C@_0N@GIEBPGNB@glUniform2ui@ DB 'glUniform2ui', 00H	; `string'
CONST	ENDS
;	COMDAT ??_C@_0N@HKPEFJDP@glUniform1ui@
CONST	SEGMENT
??_C@_0N@HKPEFJDP@glUniform1ui@ DB 'glUniform1ui', 00H	; `string'
CONST	ENDS
;	COMDAT ??_C@_0BG@NDOIGAMC@glGetFragDataLocation@
CONST	SEGMENT
??_C@_0BG@NDOIGAMC@glGetFragDataLocation@ DB 'glGetFragDataLocation', 00H ; `string'
CONST	ENDS
;	COMDAT ??_C@_0BH@DLJLAGBA@glBindFragDataLocation@
CONST	SEGMENT
??_C@_0BH@DLJLAGBA@glBindFragDataLocation@ DB 'glBindFragDataLocation', 00H ; `string'
CONST	ENDS
;	COMDAT ??_C@_0BA@NIGECFIF@glGetUniformuiv@
CONST	SEGMENT
??_C@_0BA@NIGECFIF@glGetUniformuiv@ DB 'glGetUniformuiv', 00H ; `string'
CONST	ENDS
;	COMDAT ??_C@_0BE@IMNLBLPG@glVertexAttribI4usv@
CONST	SEGMENT
??_C@_0BE@IMNLBLPG@glVertexAttribI4usv@ DB 'glVertexAttribI4usv', 00H ; `string'
CONST	ENDS
;	COMDAT ??_C@_0BE@JBDPNCLB@glVertexAttribI4ubv@
CONST	SEGMENT
??_C@_0BE@JBDPNCLB@glVertexAttribI4ubv@ DB 'glVertexAttribI4ubv', 00H ; `string'
CONST	ENDS
;	COMDAT ??_C@_0BD@MIPLFJKA@glVertexAttribI4sv@
CONST	SEGMENT
??_C@_0BD@MIPLFJKA@glVertexAttribI4sv@ DB 'glVertexAttribI4sv', 00H ; `string'
CONST	ENDS
;	COMDAT ??_C@_0BD@NFBPJAOH@glVertexAttribI4bv@
CONST	SEGMENT
??_C@_0BD@NFBPJAOH@glVertexAttribI4bv@ DB 'glVertexAttribI4bv', 00H ; `string'
CONST	ENDS
;	COMDAT ??_C@_0BE@JNGKDNFA@glVertexAttribI4uiv@
CONST	SEGMENT
??_C@_0BE@JNGKDNFA@glVertexAttribI4uiv@ DB 'glVertexAttribI4uiv', 00H ; `string'
CONST	ENDS
;	COMDAT ??_C@_0BE@CPEKOBEA@glVertexAttribI3uiv@
CONST	SEGMENT
??_C@_0BE@CPEKOBEA@glVertexAttribI3uiv@ DB 'glVertexAttribI3uiv', 00H ; `string'
CONST	ENDS
;	COMDAT ??_C@_0BE@BCCKMIPA@glVertexAttribI2uiv@
CONST	SEGMENT
??_C@_0BE@BCCKMIPA@glVertexAttribI2uiv@ DB 'glVertexAttribI2uiv', 00H ; `string'
CONST	ENDS
;	COMDAT ??_C@_0BE@FFIKLCCA@glVertexAttribI1uiv@
CONST	SEGMENT
??_C@_0BE@FFIKLCCA@glVertexAttribI1uiv@ DB 'glVertexAttribI1uiv', 00H ; `string'
CONST	ENDS
;	COMDAT ??_C@_0BD@NJEKHPAG@glVertexAttribI4iv@
CONST	SEGMENT
??_C@_0BD@NJEKHPAG@glVertexAttribI4iv@ DB 'glVertexAttribI4iv', 00H ; `string'
CONST	ENDS
;	COMDAT ??_C@_0BD@EEJNEHLP@glVertexAttribI3iv@
CONST	SEGMENT
??_C@_0BD@EEJNEHLP@glVertexAttribI3iv@ DB 'glVertexAttribI3iv', 00H ; `string'
CONST	ENDS
;	COMDAT ??_C@_0BD@PMCBCANK@glVertexAttribI2iv@
CONST	SEGMENT
??_C@_0BD@PMCBCANK@glVertexAttribI2iv@ DB 'glVertexAttribI2iv', 00H ; `string'
CONST	ENDS
;	COMDAT ??_C@_0BD@OOJEIPDE@glVertexAttribI1iv@
CONST	SEGMENT
??_C@_0BD@OOJEIPDE@glVertexAttribI1iv@ DB 'glVertexAttribI1iv', 00H ; `string'
CONST	ENDS
;	COMDAT ??_C@_0BD@BCMCLIM@glVertexAttribI4ui@
CONST	SEGMENT
??_C@_0BD@BCMCLIM@glVertexAttribI4ui@ DB 'glVertexAttribI4ui', 00H ; `string'
CONST	ENDS
;	COMDAT ??_C@_0BD@JMPLBDDF@glVertexAttribI3ui@
CONST	SEGMENT
??_C@_0BD@JMPLBDDF@glVertexAttribI3ui@ DB 'glVertexAttribI3ui', 00H ; `string'
CONST	ENDS
;	COMDAT ??_C@_0BD@CEEHHEFA@glVertexAttribI2ui@
CONST	SEGMENT
??_C@_0BD@CEEHHEFA@glVertexAttribI2ui@ DB 'glVertexAttribI2ui', 00H ; `string'
CONST	ENDS
;	COMDAT ??_C@_0BD@DGPCNLLO@glVertexAttribI1ui@
CONST	SEGMENT
??_C@_0BD@DGPCNLLO@glVertexAttribI1ui@ DB 'glVertexAttribI1ui', 00H ; `string'
CONST	ENDS
;	COMDAT ??_C@_0BC@CFEDAOOA@glVertexAttribI4i@
CONST	SEGMENT
??_C@_0BC@CFEDAOOA@glVertexAttribI4i@ DB 'glVertexAttribI4i', 00H ; `string'
CONST	ENDS
;	COMDAT ??_C@_0BC@CAAMBIGF@glVertexAttribI3i@
CONST	SEGMENT
??_C@_0BC@CAAMBIGF@glVertexAttribI3i@ DB 'glVertexAttribI3i', 00H ; `string'
CONST	ENDS
;	COMDAT ??_C@_0BC@CBMOHCFC@glVertexAttribI2i@
CONST	SEGMENT
??_C@_0BC@CBMOHCFC@glVertexAttribI2i@ DB 'glVertexAttribI2i', 00H ; `string'
CONST	ENDS
;	COMDAT ??_C@_0BC@CDIIMMAL@glVertexAttribI1i@
CONST	SEGMENT
??_C@_0BC@CDIIMMAL@glVertexAttribI1i@ DB 'glVertexAttribI1i', 00H ; `string'
CONST	ENDS
;	COMDAT ??_C@_0BG@GCBDCABB@glGetVertexAttribIuiv@
CONST	SEGMENT
??_C@_0BG@GCBDCABB@glGetVertexAttribIuiv@ DB 'glGetVertexAttribIuiv', 00H ; `string'
CONST	ENDS
;	COMDAT ??_C@_0BF@KPDNEONP@glGetVertexAttribIiv@
CONST	SEGMENT
??_C@_0BF@KPDNEONP@glGetVertexAttribIiv@ DB 'glGetVertexAttribIiv', 00H ; `string'
CONST	ENDS
;	COMDAT ??_C@_0BH@NLOEHKCD@glVertexAttribIPointer@
CONST	SEGMENT
??_C@_0BH@NLOEHKCD@glVertexAttribIPointer@ DB 'glVertexAttribIPointer', 00H ; `string'
CONST	ENDS
;	COMDAT ??_C@_0BH@KCIOLNMA@glEndConditionalRender@
CONST	SEGMENT
??_C@_0BH@KCIOLNMA@glEndConditionalRender@ DB 'glEndConditionalRender', 00H ; `string'
CONST	ENDS
;	COMDAT ??_C@_0BJ@EHEPIEPF@glBeginConditionalRender@
CONST	SEGMENT
??_C@_0BJ@EHEPIEPF@glBeginConditionalRender@ DB 'glBeginConditionalRender'
	DB	00H						; `string'
CONST	ENDS
;	COMDAT ??_C@_0N@HLGAGIMI@glClampColor@
CONST	SEGMENT
??_C@_0N@HLGAGIMI@glClampColor@ DB 'glClampColor', 00H	; `string'
CONST	ENDS
;	COMDAT ??_C@_0BO@ODFLPNG@glGetTransformFeedbackVarying@
CONST	SEGMENT
??_C@_0BO@ODFLPNG@glGetTransformFeedbackVarying@ DB 'glGetTransformFeedba'
	DB	'ckVarying', 00H				; `string'
CONST	ENDS
;	COMDAT ??_C@_0BM@IJFAKBEF@glTransformFeedbackVaryings@
CONST	SEGMENT
??_C@_0BM@IJFAKBEF@glTransformFeedbackVaryings@ DB 'glTransformFeedbackVa'
	DB	'ryings', 00H				; `string'
CONST	ENDS
;	COMDAT ??_C@_0BB@LDPKOCJI@glBindBufferBase@
CONST	SEGMENT
??_C@_0BB@LDPKOCJI@glBindBufferBase@ DB 'glBindBufferBase', 00H ; `string'
CONST	ENDS
;	COMDAT ??_C@_0BC@EEMMCHMB@glBindBufferRange@
CONST	SEGMENT
??_C@_0BC@EEMMCHMB@glBindBufferRange@ DB 'glBindBufferRange', 00H ; `string'
CONST	ENDS
;	COMDAT ??_C@_0BH@LCFLNNBH@glEndTransformFeedback@
CONST	SEGMENT
??_C@_0BH@LCFLNNBH@glEndTransformFeedback@ DB 'glEndTransformFeedback', 00H ; `string'
CONST	ENDS
;	COMDAT ??_C@_0BJ@FHJKOECC@glBeginTransformFeedback@
CONST	SEGMENT
??_C@_0BJ@FHJKOECC@glBeginTransformFeedback@ DB 'glBeginTransformFeedback'
	DB	00H						; `string'
CONST	ENDS
;	COMDAT ??_C@_0N@IMGKGOKN@glIsEnabledi@
CONST	SEGMENT
??_C@_0N@IMGKGOKN@glIsEnabledi@ DB 'glIsEnabledi', 00H	; `string'
CONST	ENDS
;	COMDAT ??_C@_0L@BMJPGDDH@glDisablei@
CONST	SEGMENT
??_C@_0L@BMJPGDDH@glDisablei@ DB 'glDisablei', 00H	; `string'
CONST	ENDS
;	COMDAT ??_C@_09IEGEGIEN@glEnablei@
CONST	SEGMENT
??_C@_09IEGEGIEN@glEnablei@ DB 'glEnablei', 00H		; `string'
CONST	ENDS
;	COMDAT ??_C@_0BA@FKCNNMFO@glGetIntegeri_v@
CONST	SEGMENT
??_C@_0BA@FKCNNMFO@glGetIntegeri_v@ DB 'glGetIntegeri_v', 00H ; `string'
CONST	ENDS
;	COMDAT ??_C@_0BA@OAKNOBP@glGetBooleani_v@
CONST	SEGMENT
??_C@_0BA@OAKNOBP@glGetBooleani_v@ DB 'glGetBooleani_v', 00H ; `string'
CONST	ENDS
;	COMDAT ??_C@_0N@JHNNNJFG@glColorMaski@
CONST	SEGMENT
??_C@_0N@JHNNNJFG@glColorMaski@ DB 'glColorMaski', 00H	; `string'
CONST	ENDS
;	COMDAT ??_C@_0BF@HFGACBCH@glUniformMatrix4x3fv@
CONST	SEGMENT
??_C@_0BF@HFGACBCH@glUniformMatrix4x3fv@ DB 'glUniformMatrix4x3fv', 00H ; `string'
CONST	ENDS
;	COMDAT ??_C@_0BF@PFLCCJCG@glUniformMatrix3x4fv@
CONST	SEGMENT
??_C@_0BF@PFLCCJCG@glUniformMatrix3x4fv@ DB 'glUniformMatrix3x4fv', 00H ; `string'
CONST	ENDS
;	COMDAT ??_C@_0BF@MNNMEGEC@glUniformMatrix4x2fv@
CONST	SEGMENT
??_C@_0BF@MNNMEGEC@glUniformMatrix4x2fv@ DB 'glUniformMatrix4x2fv', 00H ; `string'
CONST	ENDS
;	COMDAT ??_C@_0BF@DOOOPKID@glUniformMatrix2x4fv@
CONST	SEGMENT
??_C@_0BF@DOOOPKID@glUniformMatrix2x4fv@ DB 'glUniformMatrix2x4fv', 00H ; `string'
CONST	ENDS
;	COMDAT ??_C@_0BF@NANJHGPK@glUniformMatrix3x2fv@
CONST	SEGMENT
??_C@_0BF@NANJHGPK@glUniformMatrix3x2fv@ DB 'glUniformMatrix3x2fv', 00H ; `string'
CONST	ENDS
;	COMDAT ??_C@_0BF@KDDJMCDK@glUniformMatrix2x3fv@
CONST	SEGMENT
??_C@_0BF@KDDJMCDK@glUniformMatrix2x3fv@ DB 'glUniformMatrix2x3fv', 00H ; `string'
CONST	ENDS
;	COMDAT ??_C@_0BG@JPNNNPKG@glVertexAttribPointer@
CONST	SEGMENT
??_C@_0BG@JPNNNPKG@glVertexAttribPointer@ DB 'glVertexAttribPointer', 00H ; `string'
CONST	ENDS
;	COMDAT ??_C@_0BD@OKBBECIG@glVertexAttrib4usv@
CONST	SEGMENT
??_C@_0BD@OKBBECIG@glVertexAttrib4usv@ DB 'glVertexAttrib4usv', 00H ; `string'
CONST	ENDS
;	COMDAT ??_C@_0BD@PLKAGECA@glVertexAttrib4uiv@
CONST	SEGMENT
??_C@_0BD@PLKAGECA@glVertexAttrib4uiv@ DB 'glVertexAttrib4uiv', 00H ; `string'
CONST	ENDS
;	COMDAT ??_C@_0BD@PHPFILMB@glVertexAttrib4ubv@
CONST	SEGMENT
??_C@_0BD@PHPFILMB@glVertexAttrib4ubv@ DB 'glVertexAttrib4ubv', 00H ; `string'
CONST	ENDS
;	COMDAT ??_C@_0BC@EJJODHK@glVertexAttrib4sv@
CONST	SEGMENT
??_C@_0BC@EJJODHK@glVertexAttrib4sv@ DB 'glVertexAttrib4sv', 00H ; `string'
CONST	ENDS
;	COMDAT ??_C@_0BB@PLKDLLIP@glVertexAttrib4s@
CONST	SEGMENT
??_C@_0BB@PLKDLLIP@glVertexAttrib4s@ DB 'glVertexAttrib4s', 00H ; `string'
CONST	ENDS
;	COMDAT ??_C@_0BC@BFCIMFNM@glVertexAttrib4iv@
CONST	SEGMENT
??_C@_0BC@BFCIMFNM@glVertexAttrib4iv@ DB 'glVertexAttrib4iv', 00H ; `string'
CONST	ENDS
;	COMDAT ??_C@_0BC@BOHEICOB@glVertexAttrib4fv@
CONST	SEGMENT
??_C@_0BC@BOHEICOB@glVertexAttrib4fv@ DB 'glVertexAttrib4fv', 00H ; `string'
CONST	ENDS
;	COMDAT ??_C@_0BB@MMBGFNJL@glVertexAttrib4f@
CONST	SEGMENT
??_C@_0BB@MMBGFNJL@glVertexAttrib4f@ DB 'glVertexAttrib4f', 00H ; `string'
CONST	ENDS
;	COMDAT ??_C@_0BC@BNPAFGIP@glVertexAttrib4dv@
CONST	SEGMENT
??_C@_0BC@BNPAFGIP@glVertexAttrib4dv@ DB 'glVertexAttrib4dv', 00H ; `string'
CONST	ENDS
;	COMDAT ??_C@_0BB@POCADPBJ@glVertexAttrib4d@
CONST	SEGMENT
??_C@_0BB@POCADPBJ@glVertexAttrib4d@ DB 'glVertexAttrib4d', 00H ; `string'
CONST	ENDS
;	COMDAT ??_C@_0BC@BJHNCKDN@glVertexAttrib4bv@
CONST	SEGMENT
??_C@_0BC@BJHNCKDN@glVertexAttrib4bv@ DB 'glVertexAttrib4bv', 00H ; `string'
CONST	ENDS
;	COMDAT ??_C@_0BE@IIAFPNIH@glVertexAttrib4Nusv@
CONST	SEGMENT
??_C@_0BE@IIAFPNIH@glVertexAttrib4Nusv@ DB 'glVertexAttrib4Nusv', 00H ; `string'
CONST	ENDS
;	COMDAT ??_C@_0BE@JJLENLCB@glVertexAttrib4Nuiv@
CONST	SEGMENT
??_C@_0BE@JJLENLCB@glVertexAttrib4Nuiv@ DB 'glVertexAttrib4Nuiv', 00H ; `string'
CONST	ENDS
;	COMDAT ??_C@_0BE@JFOBDEMA@glVertexAttrib4Nubv@
CONST	SEGMENT
??_C@_0BE@JFOBDEMA@glVertexAttrib4Nubv@ DB 'glVertexAttrib4Nubv', 00H ; `string'
CONST	ENDS
;	COMDAT ??_C@_0BD@OHBIJGMB@glVertexAttrib4Nub@
CONST	SEGMENT
??_C@_0BD@OHBIJGMB@glVertexAttrib4Nub@ DB 'glVertexAttrib4Nub', 00H ; `string'
CONST	ENDS
;	COMDAT ??_C@_0BD@MNDLDNCG@glVertexAttrib4Nsv@
CONST	SEGMENT
??_C@_0BD@MNDLDNCG@glVertexAttrib4Nsv@ DB 'glVertexAttrib4Nsv', 00H ; `string'
CONST	ENDS
;	COMDAT ??_C@_0BD@NMIKBLIA@glVertexAttrib4Niv@
CONST	SEGMENT
??_C@_0BD@NMIKBLIA@glVertexAttrib4Niv@ DB 'glVertexAttrib4Niv', 00H ; `string'
CONST	ENDS
;	COMDAT ??_C@_0BD@NANPPEGB@glVertexAttrib4Nbv@
CONST	SEGMENT
??_C@_0BD@NANPPEGB@glVertexAttrib4Nbv@ DB 'glVertexAttrib4Nbv', 00H ; `string'
CONST	ENDS
;	COMDAT ??_C@_0BC@JJEONLMD@glVertexAttrib3sv@
CONST	SEGMENT
??_C@_0BC@JJEONLMD@glVertexAttrib3sv@ DB 'glVertexAttrib3sv', 00H ; `string'
CONST	ENDS
;	COMDAT ??_C@_0BB@POOMKNAK@glVertexAttrib3s@
CONST	SEGMENT
??_C@_0BB@POOMKNAK@glVertexAttrib3s@ DB 'glVertexAttrib3s', 00H ; `string'
CONST	ENDS
;	COMDAT ??_C@_0BC@IDKDLKFI@glVertexAttrib3fv@
CONST	SEGMENT
??_C@_0BC@IDKDLKFI@glVertexAttrib3fv@ DB 'glVertexAttrib3fv', 00H ; `string'
CONST	ENDS
;	COMDAT ??_C@_0BB@MJFJELBO@glVertexAttrib3f@
CONST	SEGMENT
??_C@_0BB@MJFJELBO@glVertexAttrib3f@ DB 'glVertexAttrib3f', 00H ; `string'
CONST	ENDS
;	COMDAT ??_C@_0BC@IACHGODG@glVertexAttrib3dv@
CONST	SEGMENT
??_C@_0BC@IACHGODG@glVertexAttrib3dv@ DB 'glVertexAttrib3dv', 00H ; `string'
CONST	ENDS
;	COMDAT ??_C@_0BB@PLGPCJJM@glVertexAttrib3d@
CONST	SEGMENT
??_C@_0BB@PLGPCJJM@glVertexAttrib3d@ DB 'glVertexAttrib3d', 00H ; `string'
CONST	ENDS
;	COMDAT ??_C@_0BC@CBPCLMKG@glVertexAttrib2sv@
CONST	SEGMENT
??_C@_0BC@CBPCLMKG@glVertexAttrib2sv@ DB 'glVertexAttrib2sv', 00H ; `string'
CONST	ENDS
;	COMDAT ??_C@_0BB@PPCOMHDN@glVertexAttrib2s@
CONST	SEGMENT
??_C@_0BB@PPCOMHDN@glVertexAttrib2s@ DB 'glVertexAttrib2s', 00H ; `string'
CONST	ENDS
;	COMDAT ??_C@_0BC@DLBPNNDN@glVertexAttrib2fv@
CONST	SEGMENT
??_C@_0BC@DLBPNNDN@glVertexAttrib2fv@ DB 'glVertexAttrib2fv', 00H ; `string'
CONST	ENDS
;	COMDAT ??_C@_0BB@MIJLCBCJ@glVertexAttrib2f@
CONST	SEGMENT
??_C@_0BB@MIJLCBCJ@glVertexAttrib2f@ DB 'glVertexAttrib2f', 00H ; `string'
CONST	ENDS
;	COMDAT ??_C@_0BC@DIJLAJFD@glVertexAttrib2dv@
CONST	SEGMENT
??_C@_0BC@DIJLAJFD@glVertexAttrib2dv@ DB 'glVertexAttrib2dv', 00H ; `string'
CONST	ENDS
;	COMDAT ??_C@_0BB@PKKNEDKL@glVertexAttrib2d@
CONST	SEGMENT
??_C@_0BB@PKKNEDKL@glVertexAttrib2d@ DB 'glVertexAttrib2d', 00H ; `string'
CONST	ENDS
;	COMDAT ??_C@_0BC@DDEHBDEI@glVertexAttrib1sv@
CONST	SEGMENT
??_C@_0BC@DDEHBDEI@glVertexAttrib1sv@ DB 'glVertexAttrib1sv', 00H ; `string'
CONST	ENDS
;	COMDAT ??_C@_0BB@PNGIHJGE@glVertexAttrib1s@
CONST	SEGMENT
??_C@_0BB@PNGIHJGE@glVertexAttrib1s@ DB 'glVertexAttrib1s', 00H ; `string'
CONST	ENDS
;	COMDAT ??_C@_0BC@CJKKHCND@glVertexAttrib1fv@
CONST	SEGMENT
??_C@_0BC@CJKKHCND@glVertexAttrib1fv@ DB 'glVertexAttrib1fv', 00H ; `string'
CONST	ENDS
;	COMDAT ??_C@_0BB@MKNNJPHA@glVertexAttrib1f@
CONST	SEGMENT
??_C@_0BB@MKNNJPHA@glVertexAttrib1f@ DB 'glVertexAttrib1f', 00H ; `string'
CONST	ENDS
;	COMDAT ??_C@_0BC@CKCOKGLN@glVertexAttrib1dv@
CONST	SEGMENT
??_C@_0BC@CKCOKGLN@glVertexAttrib1dv@ DB 'glVertexAttrib1dv', 00H ; `string'
CONST	ENDS
;	COMDAT ??_C@_0BB@PIOLPNPC@glVertexAttrib1d@
CONST	SEGMENT
??_C@_0BB@PIOLPNPC@glVertexAttrib1d@ DB 'glVertexAttrib1d', 00H ; `string'
CONST	ENDS
;	COMDAT ??_C@_0BC@MAPGDLJK@glValidateProgram@
CONST	SEGMENT
??_C@_0BC@MAPGDLJK@glValidateProgram@ DB 'glValidateProgram', 00H ; `string'
CONST	ENDS
;	COMDAT ??_C@_0BD@LNHCBEKP@glUniformMatrix4fv@
CONST	SEGMENT
??_C@_0BD@LNHCBEKP@glUniformMatrix4fv@ DB 'glUniformMatrix4fv', 00H ; `string'
CONST	ENDS
;	COMDAT ??_C@_0BD@CAKFCMBG@glUniformMatrix3fv@
CONST	SEGMENT
??_C@_0BD@CAKFCMBG@glUniformMatrix3fv@ DB 'glUniformMatrix3fv', 00H ; `string'
CONST	ENDS
;	COMDAT ??_C@_0BD@JIBJELHD@glUniformMatrix2fv@
CONST	SEGMENT
??_C@_0BD@JIBJELHD@glUniformMatrix2fv@ DB 'glUniformMatrix2fv', 00H ; `string'
CONST	ENDS
;	COMDAT ??_C@_0N@JFEMPNIH@glUniform4iv@
CONST	SEGMENT
??_C@_0N@JFEMPNIH@glUniform4iv@ DB 'glUniform4iv', 00H	; `string'
CONST	ENDS
;	COMDAT ??_C@_0N@IJLMFDO@glUniform3iv@
CONST	SEGMENT
??_C@_0N@IJLMFDO@glUniform3iv@ DB 'glUniform3iv', 00H	; `string'
CONST	ENDS
;	COMDAT ??_C@_0N@LACHKCFL@glUniform2iv@
CONST	SEGMENT
??_C@_0N@LACHKCFL@glUniform2iv@ DB 'glUniform2iv', 00H	; `string'
CONST	ENDS
;	COMDAT ??_C@_0N@KCJCANLF@glUniform1iv@
CONST	SEGMENT
??_C@_0N@KCJCANLF@glUniform1iv@ DB 'glUniform1iv', 00H	; `string'
CONST	ENDS
;	COMDAT ??_C@_0N@JOBALKLK@glUniform4fv@
CONST	SEGMENT
??_C@_0N@JOBALKLK@glUniform4fv@ DB 'glUniform4fv', 00H	; `string'
CONST	ENDS
;	COMDAT ??_C@_0N@DMHICAD@glUniform3fv@
CONST	SEGMENT
??_C@_0N@DMHICAD@glUniform3fv@ DB 'glUniform3fv', 00H	; `string'
CONST	ENDS
;	COMDAT ??_C@_0N@LLHLOFGG@glUniform2fv@
CONST	SEGMENT
??_C@_0N@LLHLOFGG@glUniform2fv@ DB 'glUniform2fv', 00H	; `string'
CONST	ENDS
;	COMDAT ??_C@_0N@KJMOEKII@glUniform1fv@
CONST	SEGMENT
??_C@_0N@KJMOEKII@glUniform1fv@ DB 'glUniform1fv', 00H	; `string'
CONST	ENDS
;	COMDAT ??_C@_0M@EKNBNBMB@glUniform4i@
CONST	SEGMENT
??_C@_0M@EKNBNBMB@glUniform4i@ DB 'glUniform4i', 00H	; `string'
CONST	ENDS
;	COMDAT ??_C@_0M@EPJOMHEE@glUniform3i@
CONST	SEGMENT
??_C@_0M@EPJOMHEE@glUniform3i@ DB 'glUniform3i', 00H	; `string'
CONST	ENDS
;	COMDAT ??_C@_0M@EOFMKNHD@glUniform2i@
CONST	SEGMENT
??_C@_0M@EOFMKNHD@glUniform2i@ DB 'glUniform2i', 00H	; `string'
CONST	ENDS
;	COMDAT ??_C@_0M@EMBKBDCK@glUniform1i@
CONST	SEGMENT
??_C@_0M@EMBKBDCK@glUniform1i@ DB 'glUniform1i', 00H	; `string'
CONST	ENDS
;	COMDAT ??_C@_0M@MNEJMNAO@glUniform4f@
CONST	SEGMENT
??_C@_0M@MNEJMNAO@glUniform4f@ DB 'glUniform4f', 00H	; `string'
CONST	ENDS
;	COMDAT ??_C@_0M@MIAGNLIL@glUniform3f@
CONST	SEGMENT
??_C@_0M@MIAGNLIL@glUniform3f@ DB 'glUniform3f', 00H	; `string'
CONST	ENDS
;	COMDAT ??_C@_0M@MJMELBLM@glUniform2f@
CONST	SEGMENT
??_C@_0M@MJMELBLM@glUniform2f@ DB 'glUniform2f', 00H	; `string'
CONST	ENDS
;	COMDAT ??_C@_0M@MLICAPOF@glUniform1f@
CONST	SEGMENT
??_C@_0M@MLICAPOF@glUniform1f@ DB 'glUniform1f', 00H	; `string'
CONST	ENDS
;	COMDAT ??_C@_0N@ICBDHBI@glUseProgram@
CONST	SEGMENT
??_C@_0N@ICBDHBI@glUseProgram@ DB 'glUseProgram', 00H	; `string'
CONST	ENDS
;	COMDAT ??_C@_0P@DFHCPFMO@glShaderSource@
CONST	SEGMENT
??_C@_0P@DFHCPFMO@glShaderSource@ DB 'glShaderSource', 00H ; `string'
CONST	ENDS
;	COMDAT ??_C@_0O@PIOEEBPO@glLinkProgram@
CONST	SEGMENT
??_C@_0O@PIOEEBPO@glLinkProgram@ DB 'glLinkProgram', 00H ; `string'
CONST	ENDS
;	COMDAT ??_C@_0L@MDDLFIHC@glIsShader@
CONST	SEGMENT
??_C@_0L@MDDLFIHC@glIsShader@ DB 'glIsShader', 00H	; `string'
CONST	ENDS
;	COMDAT ??_C@_0M@INLOJDGO@glIsProgram@
CONST	SEGMENT
??_C@_0M@INLOJDGO@glIsProgram@ DB 'glIsProgram', 00H	; `string'
CONST	ENDS
;	COMDAT ??_C@_0BK@DOJMENLD@glGetVertexAttribPointerv@
CONST	SEGMENT
??_C@_0BK@DOJMENLD@glGetVertexAttribPointerv@ DB 'glGetVertexAttribPointe'
	DB	'rv', 00H					; `string'
CONST	ENDS
;	COMDAT ??_C@_0BE@HLCEAPNO@glGetVertexAttribiv@
CONST	SEGMENT
??_C@_0BE@HLCEAPNO@glGetVertexAttribiv@ DB 'glGetVertexAttribiv', 00H ; `string'
CONST	ENDS
;	COMDAT ??_C@_0BE@HAHIEIOD@glGetVertexAttribfv@
CONST	SEGMENT
??_C@_0BE@HAHIEIOD@glGetVertexAttribfv@ DB 'glGetVertexAttribfv', 00H ; `string'
CONST	ENDS
;	COMDAT ??_C@_0BE@HDPMJMIN@glGetVertexAttribdv@
CONST	SEGMENT
??_C@_0BE@HDPMJMIN@glGetVertexAttribdv@ DB 'glGetVertexAttribdv', 00H ; `string'
CONST	ENDS
;	COMDAT ??_C@_0P@IAONPCL@glGetUniformiv@
CONST	SEGMENT
??_C@_0P@IAONPCL@glGetUniformiv@ DB 'glGetUniformiv', 00H ; `string'
CONST	ENDS
;	COMDAT ??_C@_0P@DFCJIBG@glGetUniformfv@
CONST	SEGMENT
??_C@_0P@DFCJIBG@glGetUniformfv@ DB 'glGetUniformfv', 00H ; `string'
CONST	ENDS
;	COMDAT ??_C@_0BF@KIOPGICP@glGetUniformLocation@
CONST	SEGMENT
??_C@_0BF@KIOPGICP@glGetUniformLocation@ DB 'glGetUniformLocation', 00H ; `string'
CONST	ENDS
;	COMDAT ??_C@_0BC@ELEIFJEL@glGetShaderSource@
CONST	SEGMENT
??_C@_0BC@ELEIFJEL@glGetShaderSource@ DB 'glGetShaderSource', 00H ; `string'
CONST	ENDS
;	COMDAT ??_C@_0BD@GIABBCMO@glGetShaderInfoLog@
CONST	SEGMENT
??_C@_0BD@GIABBCMO@glGetShaderInfoLog@ DB 'glGetShaderInfoLog', 00H ; `string'
CONST	ENDS
;	COMDAT ??_C@_0O@JBDFPDMG@glGetShaderiv@
CONST	SEGMENT
??_C@_0O@JBDFPDMG@glGetShaderiv@ DB 'glGetShaderiv', 00H ; `string'
CONST	ENDS
;	COMDAT ??_C@_0BE@DHGHAJFL@glGetProgramInfoLog@
CONST	SEGMENT
??_C@_0BE@DHGHAJFL@glGetProgramInfoLog@ DB 'glGetProgramInfoLog', 00H ; `string'
CONST	ENDS
;	COMDAT ??_C@_0P@FMMDFLCO@glGetProgramiv@
CONST	SEGMENT
??_C@_0P@FMMDFLCO@glGetProgramiv@ DB 'glGetProgramiv', 00H ; `string'
CONST	ENDS
;	COMDAT ??_C@_0BE@BEPGJDMM@glGetAttribLocation@
CONST	SEGMENT
??_C@_0BE@BEPGJDMM@glGetAttribLocation@ DB 'glGetAttribLocation', 00H ; `string'
CONST	ENDS
;	COMDAT ??_C@_0BF@GHMDGFEM@glGetAttachedShaders@
CONST	SEGMENT
??_C@_0BF@GHMDGFEM@glGetAttachedShaders@ DB 'glGetAttachedShaders', 00H ; `string'
CONST	ENDS
;	COMDAT ??_C@_0BD@NIMHLLKN@glGetActiveUniform@
CONST	SEGMENT
??_C@_0BD@NIMHLLKN@glGetActiveUniform@ DB 'glGetActiveUniform', 00H ; `string'
CONST	ENDS
;	COMDAT ??_C@_0BC@MBALAOHF@glGetActiveAttrib@
CONST	SEGMENT
??_C@_0BC@MBALAOHF@glGetActiveAttrib@ DB 'glGetActiveAttrib', 00H ; `string'
CONST	ENDS
;	COMDAT ??_C@_0BK@EHBAHNHE@glEnableVertexAttribArray@
CONST	SEGMENT
??_C@_0BK@EHBAHNHE@glEnableVertexAttribArray@ DB 'glEnableVertexAttribArr'
	DB	'ay', 00H					; `string'
CONST	ENDS
;	COMDAT ??_C@_0BL@NKHLOFFF@glDisableVertexAttribArray@
CONST	SEGMENT
??_C@_0BL@NKHLOFFF@glDisableVertexAttribArray@ DB 'glDisableVertexAttribA'
	DB	'rray', 00H					; `string'
CONST	ENDS
;	COMDAT ??_C@_0P@DJFJFCJL@glDetachShader@
CONST	SEGMENT
??_C@_0P@DJFJFCJL@glDetachShader@ DB 'glDetachShader', 00H ; `string'
CONST	ENDS
;	COMDAT ??_C@_0P@HHCDONAG@glDeleteShader@
CONST	SEGMENT
??_C@_0P@HHCDONAG@glDeleteShader@ DB 'glDeleteShader', 00H ; `string'
CONST	ENDS
;	COMDAT ??_C@_0BA@NKGCDOPO@glDeleteProgram@
CONST	SEGMENT
??_C@_0BA@NKGCDOPO@glDeleteProgram@ DB 'glDeleteProgram', 00H ; `string'
CONST	ENDS
;	COMDAT ??_C@_0P@HGHBNC@glCreateShader@
CONST	SEGMENT
??_C@_0P@HGHBNC@glCreateShader@ DB 'glCreateShader', 00H ; `string'
CONST	ENDS
;	COMDAT ??_C@_0BA@FLKLHNKP@glCreateProgram@
CONST	SEGMENT
??_C@_0BA@FLKLHNKP@glCreateProgram@ DB 'glCreateProgram', 00H ; `string'
CONST	ENDS
;	COMDAT ??_C@_0BA@DGIEGONF@glCompileShader@
CONST	SEGMENT
??_C@_0BA@DGIEGONF@glCompileShader@ DB 'glCompileShader', 00H ; `string'
CONST	ENDS
;	COMDAT ??_C@_0BF@MHKEFIHM@glBindAttribLocation@
CONST	SEGMENT
??_C@_0BF@MHKEFIHM@glBindAttribLocation@ DB 'glBindAttribLocation', 00H ; `string'
CONST	ENDS
;	COMDAT ??_C@_0P@LDMLEABL@glAttachShader@
CONST	SEGMENT
??_C@_0P@LDMLEABL@glAttachShader@ DB 'glAttachShader', 00H ; `string'
CONST	ENDS
;	COMDAT ??_C@_0BG@MMKPIEJI@glStencilMaskSeparate@
CONST	SEGMENT
??_C@_0BG@MMKPIEJI@glStencilMaskSeparate@ DB 'glStencilMaskSeparate', 00H ; `string'
CONST	ENDS
;	COMDAT ??_C@_0BG@FCMNCEIA@glStencilFuncSeparate@
CONST	SEGMENT
??_C@_0BG@FCMNCEIA@glStencilFuncSeparate@ DB 'glStencilFuncSeparate', 00H ; `string'
CONST	ENDS
;	COMDAT ??_C@_0BE@GAPLDNGF@glStencilOpSeparate@
CONST	SEGMENT
??_C@_0BE@GAPLDNGF@glStencilOpSeparate@ DB 'glStencilOpSeparate', 00H ; `string'
CONST	ENDS
;	COMDAT ??_C@_0O@COHJKDBH@glDrawBuffers@
CONST	SEGMENT
??_C@_0O@COHJKDBH@glDrawBuffers@ DB 'glDrawBuffers', 00H ; `string'
CONST	ENDS
;	COMDAT ??_C@_0BI@JNHDNJAG@glBlendEquationSeparate@
CONST	SEGMENT
??_C@_0BI@JNHDNJAG@glBlendEquationSeparate@ DB 'glBlendEquationSeparate', 00H ; `string'
CONST	ENDS
;	COMDAT ??_C@_0BE@KNJEIFMC@glGetBufferPointerv@
CONST	SEGMENT
??_C@_0BE@KNJEIFMC@glGetBufferPointerv@ DB 'glGetBufferPointerv', 00H ; `string'
CONST	ENDS
;	COMDAT ??_C@_0BH@BMIEIFJP@glGetBufferParameteriv@
CONST	SEGMENT
??_C@_0BH@BMIEIFJP@glGetBufferParameteriv@ DB 'glGetBufferParameteriv', 00H ; `string'
CONST	ENDS
;	COMDAT ??_C@_0O@OFGHBLEO@glUnmapBuffer@
CONST	SEGMENT
??_C@_0O@OFGHBLEO@glUnmapBuffer@ DB 'glUnmapBuffer', 00H ; `string'
CONST	ENDS
;	COMDAT ??_C@_0M@NNHDPACA@glMapBuffer@
CONST	SEGMENT
??_C@_0M@NNHDPACA@glMapBuffer@ DB 'glMapBuffer', 00H	; `string'
CONST	ENDS
;	COMDAT ??_C@_0BD@PNDAHMBO@glGetBufferSubData@
CONST	SEGMENT
??_C@_0BD@PNDAHMBO@glGetBufferSubData@ DB 'glGetBufferSubData', 00H ; `string'
CONST	ENDS
;	COMDAT ??_C@_0BA@GAJMDBBN@glBufferSubData@
CONST	SEGMENT
??_C@_0BA@GAJMDBBN@glBufferSubData@ DB 'glBufferSubData', 00H ; `string'
CONST	ENDS
;	COMDAT ??_C@_0N@JHHJMABP@glBufferData@
CONST	SEGMENT
??_C@_0N@JHHJMABP@glBufferData@ DB 'glBufferData', 00H	; `string'
CONST	ENDS
;	COMDAT ??_C@_0L@KFPDMKNG@glIsBuffer@
CONST	SEGMENT
??_C@_0L@KFPDMKNG@glIsBuffer@ DB 'glIsBuffer', 00H	; `string'
CONST	ENDS
;	COMDAT ??_C@_0N@LAOHBIBA@glGenBuffers@
CONST	SEGMENT
??_C@_0N@LAOHBIBA@glGenBuffers@ DB 'glGenBuffers', 00H	; `string'
CONST	ENDS
;	COMDAT ??_C@_0BA@DMNLADIO@glDeleteBuffers@
CONST	SEGMENT
??_C@_0BA@DMNLADIO@glDeleteBuffers@ DB 'glDeleteBuffers', 00H ; `string'
CONST	ENDS
;	COMDAT ??_C@_0N@BONEPPLO@glBindBuffer@
CONST	SEGMENT
??_C@_0N@BONEPPLO@glBindBuffer@ DB 'glBindBuffer', 00H	; `string'
CONST	ENDS
;	COMDAT ??_C@_0BE@MNBBKJ@glGetQueryObjectuiv@
CONST	SEGMENT
??_C@_0BE@MNBBKJ@glGetQueryObjectuiv@ DB 'glGetQueryObjectuiv', 00H ; `string'
CONST	ENDS
;	COMDAT ??_C@_0BD@KMBBCJID@glGetQueryObjectiv@
CONST	SEGMENT
??_C@_0BD@KMBBCJID@glGetQueryObjectiv@ DB 'glGetQueryObjectiv', 00H ; `string'
CONST	ENDS
;	COMDAT ??_C@_0N@BPACPFCI@glGetQueryiv@
CONST	SEGMENT
??_C@_0N@BPACPFCI@glGetQueryiv@ DB 'glGetQueryiv', 00H	; `string'
CONST	ENDS
;	COMDAT ??_C@_0L@FLEBHIDM@glEndQuery@
CONST	SEGMENT
??_C@_0L@FLEBHIDM@glEndQuery@ DB 'glEndQuery', 00H	; `string'
CONST	ENDS
;	COMDAT ??_C@_0N@GIAGIGPA@glBeginQuery@
CONST	SEGMENT
??_C@_0N@GIAGIGPA@glBeginQuery@ DB 'glBeginQuery', 00H	; `string'
CONST	ENDS
;	COMDAT ??_C@_09CNNLCEBN@glIsQuery@
CONST	SEGMENT
??_C@_09CNNLCEBN@glIsQuery@ DB 'glIsQuery', 00H		; `string'
CONST	ENDS
;	COMDAT ??_C@_0BA@IOKEHMOH@glDeleteQueries@
CONST	SEGMENT
??_C@_0BA@IOKEHMOH@glDeleteQueries@ DB 'glDeleteQueries', 00H ; `string'
CONST	ENDS
;	COMDAT ??_C@_0N@CJIGHHJ@glGenQueries@
CONST	SEGMENT
??_C@_0N@CJIGHHJ@glGenQueries@ DB 'glGenQueries', 00H	; `string'
CONST	ENDS
;	COMDAT ??_C@_0BA@PFHILPAN@glBlendEquation@
CONST	SEGMENT
??_C@_0BA@PFHILPAN@glBlendEquation@ DB 'glBlendEquation', 00H ; `string'
CONST	ENDS
;	COMDAT ??_C@_0N@PKBMFJDK@glBlendColor@
CONST	SEGMENT
??_C@_0N@PKBMFJDK@glBlendColor@ DB 'glBlendColor', 00H	; `string'
CONST	ENDS
;	COMDAT ??_C@_0P@MAJBJBIM@glWindowPos3sv@
CONST	SEGMENT
??_C@_0P@MAJBJBIM@glWindowPos3sv@ DB 'glWindowPos3sv', 00H ; `string'
CONST	ENDS
;	COMDAT ??_C@_0O@JCJLPFHG@glWindowPos3s@
CONST	SEGMENT
??_C@_0O@JCJLPFHG@glWindowPos3s@ DB 'glWindowPos3s', 00H ; `string'
CONST	ENDS
;	COMDAT ??_C@_0P@NBCALHCK@glWindowPos3iv@
CONST	SEGMENT
??_C@_0P@NBCALHCK@glWindowPos3iv@ DB 'glWindowPos3iv', 00H ; `string'
CONST	ENDS
;	COMDAT ??_C@_0O@CCLGAPKN@glWindowPos3i@
CONST	SEGMENT
??_C@_0O@CCLGAPKN@glWindowPos3i@ DB 'glWindowPos3i', 00H ; `string'
CONST	ENDS
;	COMDAT ??_C@_0P@NKHMPABH@glWindowPos3fv@
CONST	SEGMENT
??_C@_0P@NKHMPABH@glWindowPos3fv@ DB 'glWindowPos3fv', 00H ; `string'
CONST	ENDS
;	COMDAT ??_C@_0O@KFCOBDGC@glWindowPos3f@
CONST	SEGMENT
??_C@_0O@KFCOBDGC@glWindowPos3f@ DB 'glWindowPos3f', 00H ; `string'
CONST	ENDS
;	COMDAT ??_C@_0P@NJPICEHJ@glWindowPos3dv@
CONST	SEGMENT
??_C@_0P@NJPICEHJ@glWindowPos3dv@ DB 'glWindowPos3dv', 00H ; `string'
CONST	ENDS
;	COMDAT ??_C@_0O@JHBIHBOA@glWindowPos3d@
CONST	SEGMENT
??_C@_0O@JHBIHBOA@glWindowPos3d@ DB 'glWindowPos3d', 00H ; `string'
CONST	ENDS
;	COMDAT ??_C@_0P@HICNPGOJ@glWindowPos2sv@
CONST	SEGMENT
??_C@_0P@HICNPGOJ@glWindowPos2sv@ DB 'glWindowPos2sv', 00H ; `string'
CONST	ENDS
;	COMDAT ??_C@_0O@JDFJJPEB@glWindowPos2s@
CONST	SEGMENT
??_C@_0O@JDFJJPEB@glWindowPos2s@ DB 'glWindowPos2s', 00H ; `string'
CONST	ENDS
;	COMDAT ??_C@_0P@GJJMNAEP@glWindowPos2iv@
CONST	SEGMENT
??_C@_0P@GJJMNAEP@glWindowPos2iv@ DB 'glWindowPos2iv', 00H ; `string'
CONST	ENDS
;	COMDAT ??_C@_0O@CDHEGFJK@glWindowPos2i@
CONST	SEGMENT
??_C@_0O@CDHEGFJK@glWindowPos2i@ DB 'glWindowPos2i', 00H ; `string'
CONST	ENDS
;	COMDAT ??_C@_0P@GCMAJHHC@glWindowPos2fv@
CONST	SEGMENT
??_C@_0P@GCMAJHHC@glWindowPos2fv@ DB 'glWindowPos2fv', 00H ; `string'
CONST	ENDS
;	COMDAT ??_C@_0O@KEOMHJFF@glWindowPos2f@
CONST	SEGMENT
??_C@_0O@KEOMHJFF@glWindowPos2f@ DB 'glWindowPos2f', 00H ; `string'
CONST	ENDS
;	COMDAT ??_C@_0P@GBEEEDBM@glWindowPos2dv@
CONST	SEGMENT
??_C@_0P@GBEEEDBM@glWindowPos2dv@ DB 'glWindowPos2dv', 00H ; `string'
CONST	ENDS
;	COMDAT ??_C@_0O@JGNKBLNH@glWindowPos2d@
CONST	SEGMENT
??_C@_0O@JGNKBLNH@glWindowPos2d@ DB 'glWindowPos2d', 00H ; `string'
CONST	ENDS
;	COMDAT ??_C@_0BI@EFMNDJOO@glSecondaryColorPointer@
CONST	SEGMENT
??_C@_0BI@EFMNDJOO@glSecondaryColorPointer@ DB 'glSecondaryColorPointer', 00H ; `string'
CONST	ENDS
;	COMDAT ??_C@_0BF@FKAMGHPP@glSecondaryColor3usv@
CONST	SEGMENT
??_C@_0BF@FKAMGHPP@glSecondaryColor3usv@ DB 'glSecondaryColor3usv', 00H ; `string'
CONST	ENDS
;	COMDAT ??_C@_0BE@LANODAPH@glSecondaryColor3us@
CONST	SEGMENT
??_C@_0BE@LANODAPH@glSecondaryColor3us@ DB 'glSecondaryColor3us', 00H ; `string'
CONST	ENDS
;	COMDAT ??_C@_0BF@ELLNEBFJ@glSecondaryColor3uiv@
CONST	SEGMENT
??_C@_0BF@ELLNEBFJ@glSecondaryColor3uiv@ DB 'glSecondaryColor3uiv', 00H ; `string'
CONST	ENDS
;	COMDAT ??_C@_0BE@PDMKCM@glSecondaryColor3ui@
CONST	SEGMENT
??_C@_0BE@PDMKCM@glSecondaryColor3ui@ DB 'glSecondaryColor3ui', 00H ; `string'
CONST	ENDS
;	COMDAT ??_C@_0BF@EHOIKOLI@glSecondaryColor3ubv@
CONST	SEGMENT
??_C@_0BF@EHOIKOLI@glSecondaryColor3ubv@ DB 'glSecondaryColor3ubv', 00H ; `string'
CONST	ENDS
;	COMDAT ??_C@_0BE@ODAHBDOH@glSecondaryColor3ub@
CONST	SEGMENT
??_C@_0BE@ODAHBDOH@glSecondaryColor3ub@ DB 'glSecondaryColor3ub', 00H ; `string'
CONST	ENDS
;	COMDAT ??_C@_0BE@MJCELIAA@glSecondaryColor3sv@
CONST	SEGMENT
??_C@_0BE@MJCELIAA@glSecondaryColor3sv@ DB 'glSecondaryColor3sv', 00H ; `string'
CONST	ENDS
;	COMDAT ??_C@_0BD@JBPOFCHK@glSecondaryColor3s@
CONST	SEGMENT
??_C@_0BD@JBPOFCHK@glSecondaryColor3s@ DB 'glSecondaryColor3s', 00H ; `string'
CONST	ENDS
;	COMDAT ??_C@_0BE@NIJFJOKG@glSecondaryColor3iv@
CONST	SEGMENT
??_C@_0BE@NIJFJOKG@glSecondaryColor3iv@ DB 'glSecondaryColor3iv', 00H ; `string'
CONST	ENDS
;	COMDAT ??_C@_0BD@CBNDKIKB@glSecondaryColor3i@
CONST	SEGMENT
??_C@_0BD@CBNDKIKB@glSecondaryColor3i@ DB 'glSecondaryColor3i', 00H ; `string'
CONST	ENDS
;	COMDAT ??_C@_0BE@NDMJNJJL@glSecondaryColor3fv@
CONST	SEGMENT
??_C@_0BE@NDMJNJJL@glSecondaryColor3fv@ DB 'glSecondaryColor3fv', 00H ; `string'
CONST	ENDS
;	COMDAT ??_C@_0BD@KGELLEGO@glSecondaryColor3f@
CONST	SEGMENT
??_C@_0BD@KGELLEGO@glSecondaryColor3f@ DB 'glSecondaryColor3f', 00H ; `string'
CONST	ENDS
;	COMDAT ??_C@_0BE@NAENANPF@glSecondaryColor3dv@
CONST	SEGMENT
??_C@_0BE@NAENANPF@glSecondaryColor3dv@ DB 'glSecondaryColor3dv', 00H ; `string'
CONST	ENDS
;	COMDAT ??_C@_0BD@JEHNNGOM@glSecondaryColor3d@
CONST	SEGMENT
??_C@_0BD@JEHNNGOM@glSecondaryColor3d@ DB 'glSecondaryColor3d', 00H ; `string'
CONST	ENDS
;	COMDAT ??_C@_0BE@NEMAHBEH@glSecondaryColor3bv@
CONST	SEGMENT
??_C@_0BE@NEMAHBEH@glSecondaryColor3bv@ DB 'glSecondaryColor3bv', 00H ; `string'
CONST	ENDS
;	COMDAT ??_C@_0BD@MCCHHBGK@glSecondaryColor3b@
CONST	SEGMENT
??_C@_0BD@MCCHHBGK@glSecondaryColor3b@ DB 'glSecondaryColor3b', 00H ; `string'
CONST	ENDS
;	COMDAT ??_C@_0BC@GECGFLP@glFogCoordPointer@
CONST	SEGMENT
??_C@_0BC@GECGFLP@glFogCoordPointer@ DB 'glFogCoordPointer', 00H ; `string'
CONST	ENDS
;	COMDAT ??_C@_0N@KKODAODE@glFogCoorddv@
CONST	SEGMENT
??_C@_0N@KKODAODE@glFogCoorddv@ DB 'glFogCoorddv', 00H	; `string'
CONST	ENDS
;	COMDAT ??_C@_0M@FACELPGH@glFogCoordd@
CONST	SEGMENT
??_C@_0M@FACELPGH@glFogCoordd@ DB 'glFogCoordd', 00H	; `string'
CONST	ENDS
;	COMDAT ??_C@_0N@KJGHNKFK@glFogCoordfv@
CONST	SEGMENT
??_C@_0N@KJGHNKFK@glFogCoordfv@ DB 'glFogCoordfv', 00H	; `string'
CONST	ENDS
;	COMDAT ??_C@_0M@GCBCNNOF@glFogCoordf@
CONST	SEGMENT
??_C@_0M@GCBCNNOF@glFogCoordf@ DB 'glFogCoordf', 00H	; `string'
CONST	ENDS
;	COMDAT ??_C@_0BD@LDFNOKAC@glPointParameteriv@
CONST	SEGMENT
??_C@_0BD@LDFNOKAC@glPointParameteriv@ DB 'glPointParameteriv', 00H ; `string'
CONST	ENDS
;	COMDAT ??_C@_0BC@ICPGPIPB@glPointParameteri@
CONST	SEGMENT
??_C@_0BC@ICPGPIPB@glPointParameteri@ DB 'glPointParameteri', 00H ; `string'
CONST	ENDS
;	COMDAT ??_C@_0BD@LIABKNDP@glPointParameterfv@
CONST	SEGMENT
??_C@_0BD@LIABKNDP@glPointParameterfv@ DB 'glPointParameterfv', 00H ; `string'
CONST	ENDS
;	COMDAT ??_C@_0BC@FGOOEDO@glPointParameterf@
CONST	SEGMENT
??_C@_0BC@FGOOEDO@glPointParameterf@ DB 'glPointParameterf', 00H ; `string'
CONST	ENDS
;	COMDAT ??_C@_0BE@MPDFJJLL@glMultiDrawElements@
CONST	SEGMENT
??_C@_0BE@MPDFJJLL@glMultiDrawElements@ DB 'glMultiDrawElements', 00H ; `string'
CONST	ENDS
;	COMDAT ??_C@_0BC@IBABPJFA@glMultiDrawArrays@
CONST	SEGMENT
??_C@_0BC@IBABPJFA@glMultiDrawArrays@ DB 'glMultiDrawArrays', 00H ; `string'
CONST	ENDS
;	COMDAT ??_C@_0BE@LLLCIIOO@glBlendFuncSeparate@
CONST	SEGMENT
??_C@_0BE@LLLCIIOO@glBlendFuncSeparate@ DB 'glBlendFuncSeparate', 00H ; `string'
CONST	ENDS
;	COMDAT ??_C@_0BH@NCKJAFA@glMultTransposeMatrixd@
CONST	SEGMENT
??_C@_0BH@NCKJAFA@glMultTransposeMatrixd@ DB 'glMultTransposeMatrixd', 00H ; `string'
CONST	ENDS
;	COMDAT ??_C@_0BH@DPBMPCNC@glMultTransposeMatrixf@
CONST	SEGMENT
??_C@_0BH@DPBMPCNC@glMultTransposeMatrixf@ DB 'glMultTransposeMatrixf', 00H ; `string'
CONST	ENDS
;	COMDAT ??_C@_0BH@DMKLNEPC@glLoadTransposeMatrixd@
CONST	SEGMENT
??_C@_0BH@DMKLNEPC@glLoadTransposeMatrixd@ DB 'glLoadTransposeMatrixd', 00H ; `string'
CONST	ENDS
;	COMDAT ??_C@_0BH@OJNLGHA@glLoadTransposeMatrixf@
CONST	SEGMENT
??_C@_0BH@OJNLGHA@glLoadTransposeMatrixf@ DB 'glLoadTransposeMatrixf', 00H ; `string'
CONST	ENDS
;	COMDAT ??_C@_0BD@HKFHALMP@glMultiTexCoord4sv@
CONST	SEGMENT
??_C@_0BD@HKFHALMP@glMultiTexCoord4sv@ DB 'glMultiTexCoord4sv', 00H ; `string'
CONST	ENDS
;	COMDAT ??_C@_0BC@IEDHLDIC@glMultiTexCoord4s@
CONST	SEGMENT
??_C@_0BC@IEDHLDIC@glMultiTexCoord4s@ DB 'glMultiTexCoord4s', 00H ; `string'
CONST	ENDS
;	COMDAT ??_C@_0BD@GLOGCNGJ@glMultiTexCoord4iv@
CONST	SEGMENT
??_C@_0BD@GLOGCNGJ@glMultiTexCoord4iv@ DB 'glMultiTexCoord4iv', 00H ; `string'
CONST	ENDS
;	COMDAT ??_C@_0BC@DEBKEJFJ@glMultiTexCoord4i@
CONST	SEGMENT
??_C@_0BC@DEBKEJFJ@glMultiTexCoord4i@ DB 'glMultiTexCoord4i', 00H ; `string'
CONST	ENDS
;	COMDAT ??_C@_0BD@GALKGKFE@glMultiTexCoord4fv@
CONST	SEGMENT
??_C@_0BD@GALKGKFE@glMultiTexCoord4fv@ DB 'glMultiTexCoord4fv', 00H ; `string'
CONST	ENDS
;	COMDAT ??_C@_0BC@LDICFFJG@glMultiTexCoord4f@
CONST	SEGMENT
??_C@_0BC@LDICFFJG@glMultiTexCoord4f@ DB 'glMultiTexCoord4f', 00H ; `string'
CONST	ENDS
;	COMDAT ??_C@_0BD@GDDOLODK@glMultiTexCoord4dv@
CONST	SEGMENT
??_C@_0BD@GDDOLODK@glMultiTexCoord4dv@ DB 'glMultiTexCoord4dv', 00H ; `string'
CONST	ENDS
;	COMDAT ??_C@_0BC@IBLEDHBE@glMultiTexCoord4d@
CONST	SEGMENT
??_C@_0BC@IBLEDHBE@glMultiTexCoord4d@ DB 'glMultiTexCoord4d', 00H ; `string'
CONST	ENDS
;	COMDAT ??_C@_0BD@OHIADDHG@glMultiTexCoord3sv@
CONST	SEGMENT
??_C@_0BD@OHIADDHG@glMultiTexCoord3sv@ DB 'glMultiTexCoord3sv', 00H ; `string'
CONST	ENDS
;	COMDAT ??_C@_0BC@IBHIKFAH@glMultiTexCoord3s@
CONST	SEGMENT
??_C@_0BC@IBHIKFAH@glMultiTexCoord3s@ DB 'glMultiTexCoord3s', 00H ; `string'
CONST	ENDS
;	COMDAT ??_C@_0BD@PGDBBFNA@glMultiTexCoord3iv@
CONST	SEGMENT
??_C@_0BD@PGDBBFNA@glMultiTexCoord3iv@ DB 'glMultiTexCoord3iv', 00H ; `string'
CONST	ENDS
;	COMDAT ??_C@_0BC@DBFFFPNM@glMultiTexCoord3i@
CONST	SEGMENT
??_C@_0BC@DBFFFPNM@glMultiTexCoord3i@ DB 'glMultiTexCoord3i', 00H ; `string'
CONST	ENDS
;	COMDAT ??_C@_0BD@PNGNFCON@glMultiTexCoord3fv@
CONST	SEGMENT
??_C@_0BD@PNGNFCON@glMultiTexCoord3fv@ DB 'glMultiTexCoord3fv', 00H ; `string'
CONST	ENDS
;	COMDAT ??_C@_0BC@LGMNEDBD@glMultiTexCoord3f@
CONST	SEGMENT
??_C@_0BC@LGMNEDBD@glMultiTexCoord3f@ DB 'glMultiTexCoord3f', 00H ; `string'
CONST	ENDS
;	COMDAT ??_C@_0BD@POOJIGID@glMultiTexCoord3dv@
CONST	SEGMENT
??_C@_0BD@POOJIGID@glMultiTexCoord3dv@ DB 'glMultiTexCoord3dv', 00H ; `string'
CONST	ENDS
;	COMDAT ??_C@_0BC@IEPLCBJB@glMultiTexCoord3d@
CONST	SEGMENT
??_C@_0BC@IEPLCBJB@glMultiTexCoord3d@ DB 'glMultiTexCoord3d', 00H ; `string'
CONST	ENDS
;	COMDAT ??_C@_0BD@FPDMFEBD@glMultiTexCoord2sv@
CONST	SEGMENT
??_C@_0BD@FPDMFEBD@glMultiTexCoord2sv@ DB 'glMultiTexCoord2sv', 00H ; `string'
CONST	ENDS
;	COMDAT ??_C@_0BC@IALKMPDA@glMultiTexCoord2s@
CONST	SEGMENT
??_C@_0BC@IALKMPDA@glMultiTexCoord2s@ DB 'glMultiTexCoord2s', 00H ; `string'
CONST	ENDS
;	COMDAT ??_C@_0BD@EOINHCLF@glMultiTexCoord2iv@
CONST	SEGMENT
??_C@_0BD@EOINHCLF@glMultiTexCoord2iv@ DB 'glMultiTexCoord2iv', 00H ; `string'
CONST	ENDS
;	COMDAT ??_C@_0BC@DAJHDFOL@glMultiTexCoord2i@
CONST	SEGMENT
??_C@_0BC@DAJHDFOL@glMultiTexCoord2i@ DB 'glMultiTexCoord2i', 00H ; `string'
CONST	ENDS
;	COMDAT ??_C@_0BD@EFNBDFII@glMultiTexCoord2fv@
CONST	SEGMENT
??_C@_0BD@EFNBDFII@glMultiTexCoord2fv@ DB 'glMultiTexCoord2fv', 00H ; `string'
CONST	ENDS
;	COMDAT ??_C@_0BC@LHAPCJCE@glMultiTexCoord2f@
CONST	SEGMENT
??_C@_0BC@LHAPCJCE@glMultiTexCoord2f@ DB 'glMultiTexCoord2f', 00H ; `string'
CONST	ENDS
;	COMDAT ??_C@_0BD@EGFFOBOG@glMultiTexCoord2dv@
CONST	SEGMENT
??_C@_0BD@EGFFOBOG@glMultiTexCoord2dv@ DB 'glMultiTexCoord2dv', 00H ; `string'
CONST	ENDS
;	COMDAT ??_C@_0BC@IFDJELKG@glMultiTexCoord2d@
CONST	SEGMENT
??_C@_0BC@IFDJELKG@glMultiTexCoord2d@ DB 'glMultiTexCoord2d', 00H ; `string'
CONST	ENDS
;	COMDAT ??_C@_0BD@ENIJPLPN@glMultiTexCoord1sv@
CONST	SEGMENT
??_C@_0BD@ENIJPLPN@glMultiTexCoord1sv@ DB 'glMultiTexCoord1sv', 00H ; `string'
CONST	ENDS
;	COMDAT ??_C@_0BC@ICPMHBGJ@glMultiTexCoord1s@
CONST	SEGMENT
??_C@_0BC@ICPMHBGJ@glMultiTexCoord1s@ DB 'glMultiTexCoord1s', 00H ; `string'
CONST	ENDS
;	COMDAT ??_C@_0BD@FMDINNFL@glMultiTexCoord1iv@
CONST	SEGMENT
??_C@_0BD@FMDINNFL@glMultiTexCoord1iv@ DB 'glMultiTexCoord1iv', 00H ; `string'
CONST	ENDS
;	COMDAT ??_C@_0BC@DCNBILLC@glMultiTexCoord1i@
CONST	SEGMENT
??_C@_0BC@DCNBILLC@glMultiTexCoord1i@ DB 'glMultiTexCoord1i', 00H ; `string'
CONST	ENDS
;	COMDAT ??_C@_0BD@FHGEJKGG@glMultiTexCoord1fv@
CONST	SEGMENT
??_C@_0BD@FHGEJKGG@glMultiTexCoord1fv@ DB 'glMultiTexCoord1fv', 00H ; `string'
CONST	ENDS
;	COMDAT ??_C@_0BC@LFEJJHHN@glMultiTexCoord1f@
CONST	SEGMENT
??_C@_0BC@LFEJJHHN@glMultiTexCoord1f@ DB 'glMultiTexCoord1f', 00H ; `string'
CONST	ENDS
;	COMDAT ??_C@_0BD@FEOAEOAI@glMultiTexCoord1dv@
CONST	SEGMENT
??_C@_0BD@FEOAEOAI@glMultiTexCoord1dv@ DB 'glMultiTexCoord1dv', 00H ; `string'
CONST	ENDS
;	COMDAT ??_C@_0BC@IHHPPFPP@glMultiTexCoord1d@
CONST	SEGMENT
??_C@_0BC@IHHPPFPP@glMultiTexCoord1d@ DB 'glMultiTexCoord1d', 00H ; `string'
CONST	ENDS
;	COMDAT ??_C@_0BG@EGKOMLFO@glClientActiveTexture@
CONST	SEGMENT
??_C@_0BG@EGKOMLFO@glClientActiveTexture@ DB 'glClientActiveTexture', 00H ; `string'
CONST	ENDS
;	COMDAT ??_C@_0BI@MPANLPPL@glGetCompressedTexImage@
CONST	SEGMENT
??_C@_0BI@MPANLPPL@glGetCompressedTexImage@ DB 'glGetCompressedTexImage', 00H ; `string'
CONST	ENDS
;	COMDAT ??_C@_0BK@ECBIPHJO@glCompressedTexSubImage1D@
CONST	SEGMENT
??_C@_0BK@ECBIPHJO@glCompressedTexSubImage1D@ DB 'glCompressedTexSubImage'
	DB	'1D', 00H					; `string'
CONST	ENDS
;	COMDAT ??_C@_0BK@EAFOEJMH@glCompressedTexSubImage2D@
CONST	SEGMENT
??_C@_0BK@EAFOEJMH@glCompressedTexSubImage2D@ DB 'glCompressedTexSubImage'
	DB	'2D', 00H					; `string'
CONST	ENDS
;	COMDAT ??_C@_0BK@EBJMCDPA@glCompressedTexSubImage3D@
CONST	SEGMENT
??_C@_0BK@EBJMCDPA@glCompressedTexSubImage3D@ DB 'glCompressedTexSubImage'
	DB	'3D', 00H					; `string'
CONST	ENDS
;	COMDAT ??_C@_0BH@GFPJBEAB@glCompressedTexImage1D@
CONST	SEGMENT
??_C@_0BH@GFPJBEAB@glCompressedTexImage1D@ DB 'glCompressedTexImage1D', 00H ; `string'
CONST	ENDS
;	COMDAT ??_C@_0BH@GHLPKKFI@glCompressedTexImage2D@
CONST	SEGMENT
??_C@_0BH@GHLPKKFI@glCompressedTexImage2D@ DB 'glCompressedTexImage2D', 00H ; `string'
CONST	ENDS
;	COMDAT ??_C@_0BH@GGHNMAGP@glCompressedTexImage3D@
CONST	SEGMENT
??_C@_0BH@GGHNMAGP@glCompressedTexImage3D@ DB 'glCompressedTexImage3D', 00H ; `string'
CONST	ENDS
;	COMDAT ??_C@_0BB@BJGIPMOA@glSampleCoverage@
CONST	SEGMENT
??_C@_0BB@BJGIPMOA@glSampleCoverage@ DB 'glSampleCoverage', 00H ; `string'
CONST	ENDS
;	COMDAT ??_C@_0BA@KOBBIKOF@glActiveTexture@
CONST	SEGMENT
??_C@_0BA@KOBBIKOF@glActiveTexture@ DB 'glActiveTexture', 00H ; `string'
CONST	ENDS
;	COMDAT ??_C@_0BE@PJFGNMAG@glCopyTexSubImage3D@
CONST	SEGMENT
??_C@_0BE@PJFGNMAG@glCopyTexSubImage3D@ DB 'glCopyTexSubImage3D', 00H ; `string'
CONST	ENDS
;	COMDAT ??_C@_0BA@NGGKPOPN@glTexSubImage3D@
CONST	SEGMENT
??_C@_0BA@NGGKPOPN@glTexSubImage3D@ DB 'glTexSubImage3D', 00H ; `string'
CONST	ENDS
;	COMDAT ??_C@_0N@JAEIBBBF@glTexImage3D@
CONST	SEGMENT
??_C@_0N@JAEIBBBF@glTexImage3D@ DB 'glTexImage3D', 00H	; `string'
CONST	ENDS
;	COMDAT ??_C@_0BE@IHNAGJGJ@glDrawRangeElements@
CONST	SEGMENT
??_C@_0BE@IHNAGJGJ@glDrawRangeElements@ DB 'glDrawRangeElements', 00H ; `string'
CONST	ENDS
;	COMDAT ??_C@_0BD@JKGPLNEA@glPushClientAttrib@
CONST	SEGMENT
??_C@_0BD@JKGPLNEA@glPushClientAttrib@ DB 'glPushClientAttrib', 00H ; `string'
CONST	ENDS
;	COMDAT ??_C@_0BC@GOOJKIDH@glPopClientAttrib@
CONST	SEGMENT
??_C@_0BC@GOOJKIDH@glPopClientAttrib@ DB 'glPopClientAttrib', 00H ; `string'
CONST	ENDS
;	COMDAT ??_C@_0L@BBKJOCAC@glIndexubv@
CONST	SEGMENT
??_C@_0L@BBKJOCAC@glIndexubv@ DB 'glIndexubv', 00H	; `string'
CONST	ENDS
;	COMDAT ??_C@_09BBIPIKNC@glIndexub@
CONST	SEGMENT
??_C@_09BBIPIKNC@glIndexub@ DB 'glIndexub', 00H		; `string'
CONST	ENDS
;	COMDAT ??_C@_0BF@FFCGNNIA@glPrioritizeTextures@
CONST	SEGMENT
??_C@_0BF@FFCGNNIA@glPrioritizeTextures@ DB 'glPrioritizeTextures', 00H ; `string'
CONST	ENDS
;	COMDAT ??_C@_0BG@DHOKJLEP@glAreTexturesResident@
CONST	SEGMENT
??_C@_0BG@DHOKJLEP@glAreTexturesResident@ DB 'glAreTexturesResident', 00H ; `string'
CONST	ENDS
;	COMDAT ??_C@_0BA@HAHECJNK@glVertexPointer@
CONST	SEGMENT
??_C@_0BA@HAHECJNK@glVertexPointer@ DB 'glVertexPointer', 00H ; `string'
CONST	ENDS
;	COMDAT ??_C@_0BC@DAOMILMO@glTexCoordPointer@
CONST	SEGMENT
??_C@_0BC@DAOMILMO@glTexCoordPointer@ DB 'glTexCoordPointer', 00H ; `string'
CONST	ENDS
;	COMDAT ??_C@_0BA@DCLMCEOP@glNormalPointer@
CONST	SEGMENT
??_C@_0BA@DCLMCEOP@glNormalPointer@ DB 'glNormalPointer', 00H ; `string'
CONST	ENDS
;	COMDAT ??_C@_0BE@EDEDCKLI@glInterleavedArrays@
CONST	SEGMENT
??_C@_0BE@EDEDCKLI@glInterleavedArrays@ DB 'glInterleavedArrays', 00H ; `string'
CONST	ENDS
;	COMDAT ??_C@_0P@KGJBLKPD@glIndexPointer@
CONST	SEGMENT
??_C@_0P@KGJBLKPD@glIndexPointer@ DB 'glIndexPointer', 00H ; `string'
CONST	ENDS
;	COMDAT ??_C@_0BE@KECPKGNE@glEnableClientState@
CONST	SEGMENT
??_C@_0BE@KECPKGNE@glEnableClientState@ DB 'glEnableClientState', 00H ; `string'
CONST	ENDS
;	COMDAT ??_C@_0BC@LILGCNN@glEdgeFlagPointer@
CONST	SEGMENT
??_C@_0BC@LILGCNN@glEdgeFlagPointer@ DB 'glEdgeFlagPointer', 00H ; `string'
CONST	ENDS
;	COMDAT ??_C@_0BF@LJDHBNBP@glDisableClientState@
CONST	SEGMENT
??_C@_0BF@LJDHBNBP@glDisableClientState@ DB 'glDisableClientState', 00H ; `string'
CONST	ENDS
;	COMDAT ??_C@_0P@DPKEGLKI@glColorPointer@
CONST	SEGMENT
??_C@_0P@DPKEGLKI@glColorPointer@ DB 'glColorPointer', 00H ; `string'
CONST	ENDS
;	COMDAT ??_C@_0P@CKCIJELG@glArrayElement@
CONST	SEGMENT
??_C@_0P@CKCIJELG@glArrayElement@ DB 'glArrayElement', 00H ; `string'
CONST	ENDS
;	COMDAT ??_C@_0M@NJHAEPDN@glIsTexture@
CONST	SEGMENT
??_C@_0M@NJHAEPDN@glIsTexture@ DB 'glIsTexture', 00H	; `string'
CONST	ENDS
;	COMDAT ??_C@_0O@LLMANLNK@glGenTextures@
CONST	SEGMENT
??_C@_0O@LLMANLNK@glGenTextures@ DB 'glGenTextures', 00H ; `string'
CONST	ENDS
;	COMDAT ??_C@_0BB@KMPLFJIC@glDeleteTextures@
CONST	SEGMENT
??_C@_0BB@KMPLFJIC@glDeleteTextures@ DB 'glDeleteTextures', 00H ; `string'
CONST	ENDS
;	COMDAT ??_C@_0O@JKKCIBGC@glBindTexture@
CONST	SEGMENT
??_C@_0O@JKKCIBGC@glBindTexture@ DB 'glBindTexture', 00H ; `string'
CONST	ENDS
;	COMDAT ??_C@_0BA@NHKIJEMK@glTexSubImage2D@
CONST	SEGMENT
??_C@_0BA@NHKIJEMK@glTexSubImage2D@ DB 'glTexSubImage2D', 00H ; `string'
CONST	ENDS
;	COMDAT ??_C@_0BA@NFOOCKJD@glTexSubImage1D@
CONST	SEGMENT
??_C@_0BA@NFOOCKJD@glTexSubImage1D@ DB 'glTexSubImage1D', 00H ; `string'
CONST	ENDS
;	COMDAT ??_C@_0BE@PIJELGDB@glCopyTexSubImage2D@
CONST	SEGMENT
??_C@_0BE@PIJELGDB@glCopyTexSubImage2D@ DB 'glCopyTexSubImage2D', 00H ; `string'
CONST	ENDS
;	COMDAT ??_C@_0BE@PKNCAIGI@glCopyTexSubImage1D@
CONST	SEGMENT
??_C@_0BE@PKNCAIGI@glCopyTexSubImage1D@ DB 'glCopyTexSubImage1D', 00H ; `string'
CONST	ENDS
;	COMDAT ??_C@_0BB@MGAFKJKC@glCopyTexImage2D@
CONST	SEGMENT
??_C@_0BB@MGAFKJKC@glCopyTexImage2D@ DB 'glCopyTexImage2D', 00H ; `string'
CONST	ENDS
;	COMDAT ??_C@_0BB@MEEDBHPL@glCopyTexImage1D@
CONST	SEGMENT
??_C@_0BB@MEEDBHPL@glCopyTexImage1D@ DB 'glCopyTexImage1D', 00H ; `string'
CONST	ENDS
;	COMDAT ??_C@_0BA@FFBJGNC@glPolygonOffset@
CONST	SEGMENT
??_C@_0BA@FFBJGNC@glPolygonOffset@ DB 'glPolygonOffset', 00H ; `string'
CONST	ENDS
;	COMDAT ??_C@_0O@LADEDGJO@glGetPointerv@
CONST	SEGMENT
??_C@_0O@LADEDGJO@glGetPointerv@ DB 'glGetPointerv', 00H ; `string'
CONST	ENDS
;	COMDAT ??_C@_0P@MENFIFGE@glDrawElements@
CONST	SEGMENT
??_C@_0P@MENFIFGE@glDrawElements@ DB 'glDrawElements', 00H ; `string'
CONST	ENDS
;	COMDAT ??_C@_0N@CMNPPOHA@glDrawArrays@
CONST	SEGMENT
??_C@_0N@CMNPPOHA@glDrawArrays@ DB 'glDrawArrays', 00H	; `string'
CONST	ENDS
;	COMDAT ??_C@_0N@IFPDDBNE@glTranslatef@
CONST	SEGMENT
??_C@_0N@IFPDDBNE@glTranslatef@ DB 'glTranslatef', 00H	; `string'
CONST	ENDS
;	COMDAT ??_C@_0N@LHMFFDFG@glTranslated@
CONST	SEGMENT
??_C@_0N@LHMFFDFG@glTranslated@ DB 'glTranslated', 00H	; `string'
CONST	ENDS
;	COMDAT ??_C@_08JCPEOPLK@glScalef@
CONST	SEGMENT
??_C@_08JCPEOPLK@glScalef@ DB 'glScalef', 00H		; `string'
CONST	ENDS
;	COMDAT ??_C@_08KAMCINDI@glScaled@
CONST	SEGMENT
??_C@_08KAMCINDI@glScaled@ DB 'glScaled', 00H		; `string'
CONST	ENDS
;	COMDAT ??_C@_09FCODNBIM@glRotatef@
CONST	SEGMENT
??_C@_09FCODNBIM@glRotatef@ DB 'glRotatef', 00H		; `string'
CONST	ENDS
;	COMDAT ??_C@_09GANFLDAO@glRotated@
CONST	SEGMENT
??_C@_09GANFLDAO@glRotated@ DB 'glRotated', 00H		; `string'
CONST	ENDS
;	COMDAT ??_C@_0N@IHFNHGBL@glPushMatrix@
CONST	SEGMENT
??_C@_0N@IHFNHGBL@glPushMatrix@ DB 'glPushMatrix', 00H	; `string'
CONST	ENDS
;	COMDAT ??_C@_0M@JPEAAEEK@glPopMatrix@
CONST	SEGMENT
??_C@_0M@JPEAAEEK@glPopMatrix@ DB 'glPopMatrix', 00H	; `string'
CONST	ENDS
;	COMDAT ??_C@_07DBAFHOII@glOrtho@
CONST	SEGMENT
??_C@_07DBAFHOII@glOrtho@ DB 'glOrtho', 00H		; `string'
CONST	ENDS
;	COMDAT ??_C@_0O@IFJFLNCL@glMultMatrixd@
CONST	SEGMENT
??_C@_0O@IFJFLNCL@glMultMatrixd@ DB 'glMultMatrixd', 00H ; `string'
CONST	ENDS
;	COMDAT ??_C@_0O@LHKDNPKJ@glMultMatrixf@
CONST	SEGMENT
??_C@_0O@LHKDNPKJ@glMultMatrixf@ DB 'glMultMatrixf', 00H ; `string'
CONST	ENDS
;	COMDAT ??_C@_0N@KDLNHKEJ@glMatrixMode@
CONST	SEGMENT
??_C@_0N@KDLNHKEJ@glMatrixMode@ DB 'glMatrixMode', 00H	; `string'
CONST	ENDS
;	COMDAT ??_C@_0O@LFHKEMK@glLoadMatrixd@
CONST	SEGMENT
??_C@_0O@LFHKEMK@glLoadMatrixd@ DB 'glLoadMatrixd', 00H	; `string'
CONST	ENDS
;	COMDAT ??_C@_0O@DJGBMGEI@glLoadMatrixf@
CONST	SEGMENT
??_C@_0O@DJGBMGEI@glLoadMatrixf@ DB 'glLoadMatrixf', 00H ; `string'
CONST	ENDS
;	COMDAT ??_C@_0P@EJAFHEPO@glLoadIdentity@
CONST	SEGMENT
??_C@_0P@EJAFHEPO@glLoadIdentity@ DB 'glLoadIdentity', 00H ; `string'
CONST	ENDS
;	COMDAT ??_C@_09ICLFHOKP@glFrustum@
CONST	SEGMENT
??_C@_09ICLFHOKP@glFrustum@ DB 'glFrustum', 00H		; `string'
CONST	ENDS
;	COMDAT ??_C@_08DMFMJKDH@glIsList@
CONST	SEGMENT
??_C@_08DMFMJKDH@glIsList@ DB 'glIsList', 00H		; `string'
CONST	ENDS
;	COMDAT ??_C@_0O@HOAMNHM@glGetTexGeniv@
CONST	SEGMENT
??_C@_0O@HOAMNHM@glGetTexGeniv@ DB 'glGetTexGeniv', 00H	; `string'
CONST	ENDS
;	COMDAT ??_C@_0O@MLMIKEB@glGetTexGenfv@
CONST	SEGMENT
??_C@_0O@MLMIKEB@glGetTexGenfv@ DB 'glGetTexGenfv', 00H	; `string'
CONST	ENDS
;	COMDAT ??_C@_0O@PDIFOCP@glGetTexGendv@
CONST	SEGMENT
??_C@_0O@PDIFOCP@glGetTexGendv@ DB 'glGetTexGendv', 00H	; `string'
CONST	ENDS
;	COMDAT ??_C@_0O@KIFFCCBG@glGetTexEnviv@
CONST	SEGMENT
??_C@_0O@KIFFCCBG@glGetTexEnviv@ DB 'glGetTexEnviv', 00H ; `string'
CONST	ENDS
;	COMDAT ??_C@_0O@KDAJGFCL@glGetTexEnvfv@
CONST	SEGMENT
??_C@_0O@KDAJGFCL@glGetTexEnvfv@ DB 'glGetTexEnvfv', 00H ; `string'
CONST	ENDS
;	COMDAT ??_C@_0BE@PBJHLEJI@glGetPolygonStipple@
CONST	SEGMENT
??_C@_0BE@PBJHLEJI@glGetPolygonStipple@ DB 'glGetPolygonStipple', 00H ; `string'
CONST	ENDS
;	COMDAT ??_C@_0BB@NHJEMOOF@glGetPixelMapusv@
CONST	SEGMENT
??_C@_0BB@NHJEMOOF@glGetPixelMapusv@ DB 'glGetPixelMapusv', 00H ; `string'
CONST	ENDS
;	COMDAT ??_C@_0BB@MGCFOIED@glGetPixelMapuiv@
CONST	SEGMENT
??_C@_0BB@MGCFOIED@glGetPixelMapuiv@ DB 'glGetPixelMapuiv', 00H ; `string'
CONST	ENDS
;	COMDAT ??_C@_0BA@EDGNDGIE@glGetPixelMapfv@
CONST	SEGMENT
??_C@_0BA@EDGNDGIE@glGetPixelMapfv@ DB 'glGetPixelMapfv', 00H ; `string'
CONST	ENDS
;	COMDAT ??_C@_0BA@GJKDADAB@glGetMaterialiv@
CONST	SEGMENT
??_C@_0BA@GJKDADAB@glGetMaterialiv@ DB 'glGetMaterialiv', 00H ; `string'
CONST	ENDS
;	COMDAT ??_C@_0BA@GCPPEEDM@glGetMaterialfv@
CONST	SEGMENT
??_C@_0BA@GCPPEEDM@glGetMaterialfv@ DB 'glGetMaterialfv', 00H ; `string'
CONST	ENDS
;	COMDAT ??_C@_0L@FOFLNEHD@glGetMapiv@
CONST	SEGMENT
??_C@_0L@FOFLNEHD@glGetMapiv@ DB 'glGetMapiv', 00H	; `string'
CONST	ENDS
;	COMDAT ??_C@_0L@FFAHJDEO@glGetMapfv@
CONST	SEGMENT
??_C@_0L@FFAHJDEO@glGetMapfv@ DB 'glGetMapfv', 00H	; `string'
CONST	ENDS
;	COMDAT ??_C@_0L@FGIDEHCA@glGetMapdv@
CONST	SEGMENT
??_C@_0L@FGIDEHCA@glGetMapdv@ DB 'glGetMapdv', 00H	; `string'
CONST	ENDS
;	COMDAT ??_C@_0N@MNDANBJN@glGetLightiv@
CONST	SEGMENT
??_C@_0N@MNDANBJN@glGetLightiv@ DB 'glGetLightiv', 00H	; `string'
CONST	ENDS
;	COMDAT ??_C@_0N@MGGMJGKA@glGetLightfv@
CONST	SEGMENT
??_C@_0N@MGGMJGKA@glGetLightfv@ DB 'glGetLightfv', 00H	; `string'
CONST	ENDS
;	COMDAT ??_C@_0P@MMMNLMC@glGetClipPlane@
CONST	SEGMENT
??_C@_0P@MMMNLMC@glGetClipPlane@ DB 'glGetClipPlane', 00H ; `string'
CONST	ENDS
;	COMDAT ??_C@_0N@FLFIHFDP@glDrawPixels@
CONST	SEGMENT
??_C@_0N@FLFIHFDP@glDrawPixels@ DB 'glDrawPixels', 00H	; `string'
CONST	ENDS
;	COMDAT ??_C@_0N@OACCOOE@glCopyPixels@
CONST	SEGMENT
??_C@_0N@OACCOOE@glCopyPixels@ DB 'glCopyPixels', 00H	; `string'
CONST	ENDS
;	COMDAT ??_C@_0O@FMEEPGOI@glPixelMapusv@
CONST	SEGMENT
??_C@_0O@FMEEPGOI@glPixelMapusv@ DB 'glPixelMapusv', 00H ; `string'
CONST	ENDS
;	COMDAT ??_C@_0O@ENPFNAEO@glPixelMapuiv@
CONST	SEGMENT
??_C@_0O@ENPFNAEO@glPixelMapuiv@ DB 'glPixelMapuiv', 00H ; `string'
CONST	ENDS
;	COMDAT ??_C@_0N@CNONNBNO@glPixelMapfv@
CONST	SEGMENT
??_C@_0N@CNONNBNO@glPixelMapfv@ DB 'glPixelMapfv', 00H	; `string'
CONST	ENDS
;	COMDAT ??_C@_0BB@IAMKJDIC@glPixelTransferi@
CONST	SEGMENT
??_C@_0BB@IAMKJDIC@glPixelTransferi@ DB 'glPixelTransferi', 00H ; `string'
CONST	ENDS
;	COMDAT ??_C@_0BB@HFCIPEN@glPixelTransferf@
CONST	SEGMENT
??_C@_0BB@HFCIPEN@glPixelTransferf@ DB 'glPixelTransferf', 00H ; `string'
CONST	ENDS
;	COMDAT ??_C@_0M@JAMJIGNB@glPixelZoom@
CONST	SEGMENT
??_C@_0M@JAMJIGNB@glPixelZoom@ DB 'glPixelZoom', 00H	; `string'
CONST	ENDS
;	COMDAT ??_C@_0M@BJGLMKCC@glAlphaFunc@
CONST	SEGMENT
??_C@_0M@BJGLMKCC@glAlphaFunc@ DB 'glAlphaFunc', 00H	; `string'
CONST	ENDS
;	COMDAT ??_C@_0N@BFGDHBFK@glEvalPoint2@
CONST	SEGMENT
??_C@_0N@BFGDHBFK@glEvalPoint2@ DB 'glEvalPoint2', 00H	; `string'
CONST	ENDS
;	COMDAT ??_C@_0M@BJHJGIPD@glEvalMesh2@
CONST	SEGMENT
??_C@_0M@BJHJGIPD@glEvalMesh2@ DB 'glEvalMesh2', 00H	; `string'
CONST	ENDS
;	COMDAT ??_C@_0N@DOEOCCJJ@glEvalPoint1@
CONST	SEGMENT
??_C@_0N@DOEOCCJJ@glEvalPoint1@ DB 'glEvalPoint1', 00H	; `string'
CONST	ENDS
;	COMDAT ??_C@_0M@DCFEDLDA@glEvalMesh1@
CONST	SEGMENT
??_C@_0M@DCFEDLDA@glEvalMesh1@ DB 'glEvalMesh1', 00H	; `string'
CONST	ENDS
;	COMDAT ??_C@_0P@LAAAJGBJ@glEvalCoord2fv@
CONST	SEGMENT
??_C@_0P@LAAAJGBJ@glEvalCoord2fv@ DB 'glEvalCoord2fv', 00H ; `string'
CONST	ENDS
;	COMDAT ??_C@_0O@GJGIOPHD@glEvalCoord2f@
CONST	SEGMENT
??_C@_0O@GJGIOPHD@glEvalCoord2f@ DB 'glEvalCoord2f', 00H ; `string'
CONST	ENDS
;	COMDAT ??_C@_0P@LDIEECHH@glEvalCoord2dv@
CONST	SEGMENT
??_C@_0P@LDIEECHH@glEvalCoord2dv@ DB 'glEvalCoord2dv', 00H ; `string'
CONST	ENDS
;	COMDAT ??_C@_0O@FLFOINPB@glEvalCoord2d@
CONST	SEGMENT
??_C@_0O@FLFOINPB@glEvalCoord2d@ DB 'glEvalCoord2d', 00H ; `string'
CONST	ENDS
;	COMDAT ??_C@_0P@KCLFDJPH@glEvalCoord1fv@
CONST	SEGMENT
??_C@_0P@KCLFDJPH@glEvalCoord1fv@ DB 'glEvalCoord1fv', 00H ; `string'
CONST	ENDS
;	COMDAT ??_C@_0O@GLCOFBCK@glEvalCoord1f@
CONST	SEGMENT
??_C@_0O@GLCOFBCK@glEvalCoord1f@ DB 'glEvalCoord1f', 00H ; `string'
CONST	ENDS
;	COMDAT ??_C@_0P@KBDBONJJ@glEvalCoord1dv@
CONST	SEGMENT
??_C@_0P@KBDBONJJ@glEvalCoord1dv@ DB 'glEvalCoord1dv', 00H ; `string'
CONST	ENDS
;	COMDAT ??_C@_0O@FJBIDDKI@glEvalCoord1d@
CONST	SEGMENT
??_C@_0O@FJBIDDKI@glEvalCoord1d@ DB 'glEvalCoord1d', 00H ; `string'
CONST	ENDS
;	COMDAT ??_C@_0M@PNEKFPAF@glMapGrid2f@
CONST	SEGMENT
??_C@_0M@PNEKFPAF@glMapGrid2f@ DB 'glMapGrid2f', 00H	; `string'
CONST	ENDS
;	COMDAT ??_C@_0M@MPHMDNIH@glMapGrid2d@
CONST	SEGMENT
??_C@_0M@MPHMDNIH@glMapGrid2d@ DB 'glMapGrid2d', 00H	; `string'
CONST	ENDS
;	COMDAT ??_C@_0M@PPAMOBFM@glMapGrid1f@
CONST	SEGMENT
??_C@_0M@PPAMOBFM@glMapGrid1f@ DB 'glMapGrid1f', 00H	; `string'
CONST	ENDS
;	COMDAT ??_C@_0M@MNDKIDNO@glMapGrid1d@
CONST	SEGMENT
??_C@_0M@MNDKIDNO@glMapGrid1d@ DB 'glMapGrid1d', 00H	; `string'
CONST	ENDS
;	COMDAT ??_C@_07GEAGLFKJ@glMap2f@
CONST	SEGMENT
??_C@_07GEAGLFKJ@glMap2f@ DB 'glMap2f', 00H		; `string'
CONST	ENDS
;	COMDAT ??_C@_07FGDANHCL@glMap2d@
CONST	SEGMENT
??_C@_07FGDANHCL@glMap2d@ DB 'glMap2d', 00H		; `string'
CONST	ENDS
;	COMDAT ??_C@_07GGEAALPA@glMap1f@
CONST	SEGMENT
??_C@_07GGEAALPA@glMap1f@ DB 'glMap1f', 00H		; `string'
CONST	ENDS
;	COMDAT ??_C@_07FEHGGJHC@glMap1d@
CONST	SEGMENT
??_C@_07FEHGGJHC@glMap1d@ DB 'glMap1d', 00H		; `string'
CONST	ENDS
;	COMDAT ??_C@_0N@KDMLHFJM@glPushAttrib@
CONST	SEGMENT
??_C@_0N@KDMLHFJM@glPushAttrib@ DB 'glPushAttrib', 00H	; `string'
CONST	ENDS
;	COMDAT ??_C@_0M@LLNGAHMN@glPopAttrib@
CONST	SEGMENT
??_C@_0M@LLNGAHMN@glPopAttrib@ DB 'glPopAttrib', 00H	; `string'
CONST	ENDS
;	COMDAT ??_C@_07LNIJJMEN@glAccum@
CONST	SEGMENT
??_C@_07LNIJJMEN@glAccum@ DB 'glAccum', 00H		; `string'
CONST	ENDS
;	COMDAT ??_C@_0M@ONDJOEOA@glIndexMask@
CONST	SEGMENT
??_C@_0M@ONDJOEOA@glIndexMask@ DB 'glIndexMask', 00H	; `string'
CONST	ENDS
;	COMDAT ??_C@_0N@EIILHCMH@glClearIndex@
CONST	SEGMENT
??_C@_0N@EIILHCMH@glClearIndex@ DB 'glClearIndex', 00H	; `string'
CONST	ENDS
;	COMDAT ??_C@_0N@OKAMEJMG@glClearAccum@
CONST	SEGMENT
??_C@_0N@OKAMEJMG@glClearAccum@ DB 'glClearAccum', 00H	; `string'
CONST	ENDS
;	COMDAT ??_C@_0L@LFFFABIK@glPushName@
CONST	SEGMENT
??_C@_0L@LFFFABIK@glPushName@ DB 'glPushName', 00H	; `string'
CONST	ENDS
;	COMDAT ??_C@_09IKDPIJOE@glPopName@
CONST	SEGMENT
??_C@_09IKDPIJOE@glPopName@ DB 'glPopName', 00H		; `string'
CONST	ENDS
;	COMDAT ??_C@_0O@KCIMMNEH@glPassThrough@
CONST	SEGMENT
??_C@_0O@KCIMMNEH@glPassThrough@ DB 'glPassThrough', 00H ; `string'
CONST	ENDS
;	COMDAT ??_C@_0L@JFFJNAJA@glLoadName@
CONST	SEGMENT
??_C@_0L@JFFJNAJA@glLoadName@ DB 'glLoadName', 00H	; `string'
CONST	ENDS
;	COMDAT ??_C@_0M@LBOBLINN@glInitNames@
CONST	SEGMENT
??_C@_0M@LBOBLINN@glInitNames@ DB 'glInitNames', 00H	; `string'
CONST	ENDS
;	COMDAT ??_C@_0N@HCFJFDGP@glRenderMode@
CONST	SEGMENT
??_C@_0N@HCFJFDGP@glRenderMode@ DB 'glRenderMode', 00H	; `string'
CONST	ENDS
;	COMDAT ??_C@_0P@KACPMBCN@glSelectBuffer@
CONST	SEGMENT
??_C@_0P@KACPMBCN@glSelectBuffer@ DB 'glSelectBuffer', 00H ; `string'
CONST	ENDS
;	COMDAT ??_C@_0BB@COFAIKCN@glFeedbackBuffer@
CONST	SEGMENT
??_C@_0BB@COFAIKCN@glFeedbackBuffer@ DB 'glFeedbackBuffer', 00H ; `string'
CONST	ENDS
;	COMDAT ??_C@_0L@OIGLGFLJ@glTexGeniv@
CONST	SEGMENT
??_C@_0L@OIGLGFLJ@glTexGeniv@ DB 'glTexGeniv', 00H	; `string'
CONST	ENDS
;	COMDAT ??_C@_09GKNHFOEO@glTexGeni@
CONST	SEGMENT
??_C@_09GKNHFOEO@glTexGeni@ DB 'glTexGeni', 00H		; `string'
CONST	ENDS
;	COMDAT ??_C@_0L@ODDHCCIE@glTexGenfv@
CONST	SEGMENT
??_C@_0L@ODDHCCIE@glTexGenfv@ DB 'glTexGenfv', 00H	; `string'
CONST	ENDS
;	COMDAT ??_C@_09ONEPECIB@glTexGenf@
CONST	SEGMENT
??_C@_09ONEPECIB@glTexGenf@ DB 'glTexGenf', 00H		; `string'
CONST	ENDS
;	COMDAT ??_C@_0L@OALDPGOK@glTexGendv@
CONST	SEGMENT
??_C@_0L@OALDPGOK@glTexGendv@ DB 'glTexGendv', 00H	; `string'
CONST	ENDS
;	COMDAT ??_C@_09NPHJCAAD@glTexGend@
CONST	SEGMENT
??_C@_09NPHJCAAD@glTexGend@ DB 'glTexGend', 00H		; `string'
CONST	ENDS
;	COMDAT ??_C@_0L@EHNOIKND@glTexEnviv@
CONST	SEGMENT
??_C@_0L@EHNOIKND@glTexEnviv@ DB 'glTexEnviv', 00H	; `string'
CONST	ENDS
;	COMDAT ??_C@_09NFCDHIOH@glTexEnvi@
CONST	SEGMENT
??_C@_09NFCDHIOH@glTexEnvi@ DB 'glTexEnvi', 00H		; `string'
CONST	ENDS
;	COMDAT ??_C@_0L@EMICMNOO@glTexEnvfv@
CONST	SEGMENT
??_C@_0L@EMICMNOO@glTexEnvfv@ DB 'glTexEnvfv', 00H	; `string'
CONST	ENDS
;	COMDAT ??_C@_09FCLLGECI@glTexEnvf@
CONST	SEGMENT
??_C@_09FCLLGECI@glTexEnvf@ DB 'glTexEnvf', 00H		; `string'
CONST	ENDS
;	COMDAT ??_C@_0N@NALMFHKN@glShadeModel@
CONST	SEGMENT
??_C@_0N@NALMFHKN@glShadeModel@ DB 'glShadeModel', 00H	; `string'
CONST	ENDS
;	COMDAT ??_C@_0BB@GIADEJGP@glPolygonStipple@
CONST	SEGMENT
??_C@_0BB@GIADEJGP@glPolygonStipple@ DB 'glPolygonStipple', 00H ; `string'
CONST	ENDS
;	COMDAT ??_C@_0N@HCDOEFL@glMaterialiv@
CONST	SEGMENT
??_C@_0N@HCDOEFL@glMaterialiv@ DB 'glMaterialiv', 00H	; `string'
CONST	ENDS
;	COMDAT ??_C@_0M@PHEGJGAN@glMateriali@
CONST	SEGMENT
??_C@_0M@PHEGJGAN@glMateriali@ DB 'glMateriali', 00H	; `string'
CONST	ENDS
;	COMDAT ??_C@_0N@MHPKDGG@glMaterialfv@
CONST	SEGMENT
??_C@_0N@MHPKDGG@glMaterialfv@ DB 'glMaterialfv', 00H	; `string'
CONST	ENDS
;	COMDAT ??_C@_0M@HANOIKMC@glMaterialf@
CONST	SEGMENT
??_C@_0M@HANOIKMC@glMaterialf@ DB 'glMaterialf', 00H	; `string'
CONST	ENDS
;	COMDAT ??_C@_0O@LDOINBOK@glLineStipple@
CONST	SEGMENT
??_C@_0O@LDOINBOK@glLineStipple@ DB 'glLineStipple', 00H ; `string'
CONST	ENDS
;	COMDAT ??_C@_0P@JBCFLLOP@glLightModeliv@
CONST	SEGMENT
??_C@_0P@JBCFLLOP@glLightModeliv@ DB 'glLightModeliv', 00H ; `string'
CONST	ENDS
;	COMDAT ??_C@_0O@PILBKMEH@glLightModeli@
CONST	SEGMENT
??_C@_0O@PILBKMEH@glLightModeli@ DB 'glLightModeli', 00H ; `string'
CONST	ENDS
;	COMDAT ??_C@_0P@JKHJPMNC@glLightModelfv@
CONST	SEGMENT
??_C@_0P@JKHJPMNC@glLightModelfv@ DB 'glLightModelfv', 00H ; `string'
CONST	ENDS
;	COMDAT ??_C@_0O@HPCJLAII@glLightModelf@
CONST	SEGMENT
??_C@_0O@HPCJLAII@glLightModelf@ DB 'glLightModelf', 00H ; `string'
CONST	ENDS
;	COMDAT ??_C@_09JDIIDONO@glLightiv@
CONST	SEGMENT
??_C@_09JDIIDONO@glLightiv@ DB 'glLightiv', 00H		; `string'
CONST	ENDS
;	COMDAT ??_C@_08DIKHJHIE@glLighti@
CONST	SEGMENT
??_C@_08DIKHJHIE@glLighti@ DB 'glLighti', 00H		; `string'
CONST	ENDS
;	COMDAT ??_C@_09JINEHJOD@glLightfv@
CONST	SEGMENT
??_C@_09JINEHJOD@glLightfv@ DB 'glLightfv', 00H		; `string'
CONST	ENDS
;	COMDAT ??_C@_08LPDPILEL@glLightf@
CONST	SEGMENT
??_C@_08LPDPILEL@glLightf@ DB 'glLightf', 00H		; `string'
CONST	ENDS
;	COMDAT ??_C@_07FGBEEHCN@glFogiv@
CONST	SEGMENT
??_C@_07FGBEEHCN@glFogiv@ DB 'glFogiv', 00H		; `string'
CONST	ENDS
;	COMDAT ??_C@_06BOOFNKDM@glFogi@
CONST	SEGMENT
??_C@_06BOOFNKDM@glFogi@ DB 'glFogi', 00H		; `string'
CONST	ENDS
;	COMDAT ??_C@_07FNEIAABA@glFogfv@
CONST	SEGMENT
??_C@_07FNEIAABA@glFogfv@ DB 'glFogfv', 00H		; `string'
CONST	ENDS
;	COMDAT ??_C@_06JJHNMGPD@glFogf@
CONST	SEGMENT
??_C@_06JJHNMGPD@glFogf@ DB 'glFogf', 00H		; `string'
CONST	ENDS
;	COMDAT ??_C@_0BA@OOEHEGPC@glColorMaterial@
CONST	SEGMENT
??_C@_0BA@OOEHEGPC@glColorMaterial@ DB 'glColorMaterial', 00H ; `string'
CONST	ENDS
;	COMDAT ??_C@_0M@OHCNGGFF@glClipPlane@
CONST	SEGMENT
??_C@_0M@OHCNGGFF@glClipPlane@ DB 'glClipPlane', 00H	; `string'
CONST	ENDS
;	COMDAT ??_C@_0M@BHICLKLB@glVertex4sv@
CONST	SEGMENT
??_C@_0M@BHICLKLB@glVertex4sv@ DB 'glVertex4sv', 00H	; `string'
CONST	ENDS
;	COMDAT ??_C@_0L@IMGCCGJH@glVertex4s@
CONST	SEGMENT
??_C@_0L@IMGCCGJH@glVertex4s@ DB 'glVertex4s', 00H	; `string'
CONST	ENDS
;	COMDAT ??_C@_0M@GDDJMBH@glVertex4iv@
CONST	SEGMENT
??_C@_0M@GDDJMBH@glVertex4iv@ DB 'glVertex4iv', 00H	; `string'
CONST	ENDS
;	COMDAT ??_C@_0L@DMEPNMEM@glVertex4i@
CONST	SEGMENT
??_C@_0L@DMEPNMEM@glVertex4i@ DB 'glVertex4i', 00H	; `string'
CONST	ENDS
;	COMDAT ??_C@_0M@NGPNLCK@glVertex4fv@
CONST	SEGMENT
??_C@_0M@NGPNLCK@glVertex4fv@ DB 'glVertex4fv', 00H	; `string'
CONST	ENDS
;	COMDAT ??_C@_0L@LLNHMAID@glVertex4f@
CONST	SEGMENT
??_C@_0L@LLNHMAID@glVertex4f@ DB 'glVertex4f', 00H	; `string'
CONST	ENDS
;	COMDAT ??_C@_0M@OOLAPEE@glVertex4dv@
CONST	SEGMENT
??_C@_0M@OOLAPEE@glVertex4dv@ DB 'glVertex4dv', 00H	; `string'
CONST	ENDS
;	COMDAT ??_C@_0L@IJOBKCAB@glVertex4d@
CONST	SEGMENT
??_C@_0L@IJOBKCAB@glVertex4d@ DB 'glVertex4d', 00H	; `string'
CONST	ENDS
;	COMDAT ??_C@_0M@IKFFICAI@glVertex3sv@
CONST	SEGMENT
??_C@_0M@IKFFICAI@glVertex3sv@ DB 'glVertex3sv', 00H	; `string'
CONST	ENDS
;	COMDAT ??_C@_0L@IJCNDABC@glVertex3s@
CONST	SEGMENT
??_C@_0L@IJCNDABC@glVertex3s@ DB 'glVertex3s', 00H	; `string'
CONST	ENDS
;	COMDAT ??_C@_0M@JLOEKEKO@glVertex3iv@
CONST	SEGMENT
??_C@_0M@JLOEKEKO@glVertex3iv@ DB 'glVertex3iv', 00H	; `string'
CONST	ENDS
;	COMDAT ??_C@_0L@DJAAMKMJ@glVertex3i@
CONST	SEGMENT
??_C@_0L@DJAAMKMJ@glVertex3i@ DB 'glVertex3i', 00H	; `string'
CONST	ENDS
;	COMDAT ??_C@_0M@JALIODJD@glVertex3fv@
CONST	SEGMENT
??_C@_0M@JALIODJD@glVertex3fv@ DB 'glVertex3fv', 00H	; `string'
CONST	ENDS
;	COMDAT ??_C@_0L@LOJINGAG@glVertex3f@
CONST	SEGMENT
??_C@_0L@LOJINGAG@glVertex3f@ DB 'glVertex3f', 00H	; `string'
CONST	ENDS
;	COMDAT ??_C@_0M@JDDMDHPN@glVertex3dv@
CONST	SEGMENT
??_C@_0M@JDDMDHPN@glVertex3dv@ DB 'glVertex3dv', 00H	; `string'
CONST	ENDS
;	COMDAT ??_C@_0L@IMKOLEIE@glVertex3d@
CONST	SEGMENT
??_C@_0L@IMKOLEIE@glVertex3d@ DB 'glVertex3d', 00H	; `string'
CONST	ENDS
;	COMDAT ??_C@_0M@DCOJOFGN@glVertex2sv@
CONST	SEGMENT
??_C@_0M@DCOJOFGN@glVertex2sv@ DB 'glVertex2sv', 00H	; `string'
CONST	ENDS
;	COMDAT ??_C@_0L@IIOPFKCF@glVertex2s@
CONST	SEGMENT
??_C@_0L@IIOPFKCF@glVertex2s@ DB 'glVertex2s', 00H	; `string'
CONST	ENDS
;	COMDAT ??_C@_0M@CDFIMDML@glVertex2iv@
CONST	SEGMENT
??_C@_0M@CDFIMDML@glVertex2iv@ DB 'glVertex2iv', 00H	; `string'
CONST	ENDS
;	COMDAT ??_C@_0L@DIMCKAPO@glVertex2i@
CONST	SEGMENT
??_C@_0L@DIMCKAPO@glVertex2i@ DB 'glVertex2i', 00H	; `string'
CONST	ENDS
;	COMDAT ??_C@_0M@CIAEIEPG@glVertex2fv@
CONST	SEGMENT
??_C@_0M@CIAEIEPG@glVertex2fv@ DB 'glVertex2fv', 00H	; `string'
CONST	ENDS
;	COMDAT ??_C@_0L@LPFKLMDB@glVertex2f@
CONST	SEGMENT
??_C@_0L@LPFKLMDB@glVertex2f@ DB 'glVertex2f', 00H	; `string'
CONST	ENDS
;	COMDAT ??_C@_0M@CLIAFAJI@glVertex2dv@
CONST	SEGMENT
??_C@_0M@CLIAFAJI@glVertex2dv@ DB 'glVertex2dv', 00H	; `string'
CONST	ENDS
;	COMDAT ??_C@_0L@INGMNOLD@glVertex2d@
CONST	SEGMENT
??_C@_0L@INGMNOLD@glVertex2d@ DB 'glVertex2d', 00H	; `string'
CONST	ENDS
;	COMDAT ??_C@_0O@EBJEPFAA@glTexCoord4sv@
CONST	SEGMENT
??_C@_0O@EBJEPFAA@glTexCoord4sv@ DB 'glTexCoord4sv', 00H ; `string'
CONST	ENDS
;	COMDAT ??_C@_0N@CJOJLEKC@glTexCoord4s@
CONST	SEGMENT
??_C@_0N@CJOJLEKC@glTexCoord4s@ DB 'glTexCoord4s', 00H	; `string'
CONST	ENDS
;	COMDAT ??_C@_0O@FACFNDKG@glTexCoord4iv@
CONST	SEGMENT
??_C@_0O@FACFNDKG@glTexCoord4iv@ DB 'glTexCoord4iv', 00H ; `string'
CONST	ENDS
;	COMDAT ??_C@_0N@JJMEEOHJ@glTexCoord4i@
CONST	SEGMENT
??_C@_0N@JJMEEOHJ@glTexCoord4i@ DB 'glTexCoord4i', 00H	; `string'
CONST	ENDS
;	COMDAT ??_C@_0O@FLHJJEJL@glTexCoord4fv@
CONST	SEGMENT
??_C@_0O@FLHJJEJL@glTexCoord4fv@ DB 'glTexCoord4fv', 00H ; `string'
CONST	ENDS
;	COMDAT ??_C@_0N@BOFMFCLG@glTexCoord4f@
CONST	SEGMENT
??_C@_0N@BOFMFCLG@glTexCoord4f@ DB 'glTexCoord4f', 00H	; `string'
CONST	ENDS
;	COMDAT ??_C@_0O@FIPNEAPF@glTexCoord4dv@
CONST	SEGMENT
??_C@_0O@FIPNEAPF@glTexCoord4dv@ DB 'glTexCoord4dv', 00H ; `string'
CONST	ENDS
;	COMDAT ??_C@_0N@CMGKDADE@glTexCoord4d@
CONST	SEGMENT
??_C@_0N@CMGKDADE@glTexCoord4d@ DB 'glTexCoord4d', 00H	; `string'
CONST	ENDS
;	COMDAT ??_C@_0O@NMEDMNLJ@glTexCoord3sv@
CONST	SEGMENT
??_C@_0O@NMEDMNLJ@glTexCoord3sv@ DB 'glTexCoord3sv', 00H ; `string'
CONST	ENDS
;	COMDAT ??_C@_0N@CMKGKCCH@glTexCoord3s@
CONST	SEGMENT
??_C@_0N@CMKGKCCH@glTexCoord3s@ DB 'glTexCoord3s', 00H	; `string'
CONST	ENDS
;	COMDAT ??_C@_0O@MNPCOLBP@glTexCoord3iv@
CONST	SEGMENT
??_C@_0O@MNPCOLBP@glTexCoord3iv@ DB 'glTexCoord3iv', 00H ; `string'
CONST	ENDS
;	COMDAT ??_C@_0N@JMILFIPM@glTexCoord3i@
CONST	SEGMENT
??_C@_0N@JMILFIPM@glTexCoord3i@ DB 'glTexCoord3i', 00H	; `string'
CONST	ENDS
;	COMDAT ??_C@_0O@MGKOKMCC@glTexCoord3fv@
CONST	SEGMENT
??_C@_0O@MGKOKMCC@glTexCoord3fv@ DB 'glTexCoord3fv', 00H ; `string'
CONST	ENDS
;	COMDAT ??_C@_0N@BLBDEEDD@glTexCoord3f@
CONST	SEGMENT
??_C@_0N@BLBDEEDD@glTexCoord3f@ DB 'glTexCoord3f', 00H	; `string'
CONST	ENDS
;	COMDAT ??_C@_0O@MFCKHIEM@glTexCoord3dv@
CONST	SEGMENT
??_C@_0O@MFCKHIEM@glTexCoord3dv@ DB 'glTexCoord3dv', 00H ; `string'
CONST	ENDS
;	COMDAT ??_C@_0N@CJCFCGLB@glTexCoord3d@
CONST	SEGMENT
??_C@_0N@CJCFCGLB@glTexCoord3d@ DB 'glTexCoord3d', 00H	; `string'
CONST	ENDS
;	COMDAT ??_C@_0O@GEPPKKNM@glTexCoord2sv@
CONST	SEGMENT
??_C@_0O@GEPPKKNM@glTexCoord2sv@ DB 'glTexCoord2sv', 00H ; `string'
CONST	ENDS
;	COMDAT ??_C@_0N@CNGEMIBA@glTexCoord2s@
CONST	SEGMENT
??_C@_0N@CNGEMIBA@glTexCoord2s@ DB 'glTexCoord2s', 00H	; `string'
CONST	ENDS
;	COMDAT ??_C@_0O@HFEOIMHK@glTexCoord2iv@
CONST	SEGMENT
??_C@_0O@HFEOIMHK@glTexCoord2iv@ DB 'glTexCoord2iv', 00H ; `string'
CONST	ENDS
;	COMDAT ??_C@_0N@JNEJDCML@glTexCoord2i@
CONST	SEGMENT
??_C@_0N@JNEJDCML@glTexCoord2i@ DB 'glTexCoord2i', 00H	; `string'
CONST	ENDS
;	COMDAT ??_C@_0O@HOBCMLEH@glTexCoord2fv@
CONST	SEGMENT
??_C@_0O@HOBCMLEH@glTexCoord2fv@ DB 'glTexCoord2fv', 00H ; `string'
CONST	ENDS
;	COMDAT ??_C@_0N@BKNBCOAE@glTexCoord2f@
CONST	SEGMENT
??_C@_0N@BKNBCOAE@glTexCoord2f@ DB 'glTexCoord2f', 00H	; `string'
CONST	ENDS
;	COMDAT ??_C@_0O@HNJGBPCJ@glTexCoord2dv@
CONST	SEGMENT
??_C@_0O@HNJGBPCJ@glTexCoord2dv@ DB 'glTexCoord2dv', 00H ; `string'
CONST	ENDS
;	COMDAT ??_C@_0N@CIOHEMIG@glTexCoord2d@
CONST	SEGMENT
??_C@_0N@CIOHEMIG@glTexCoord2d@ DB 'glTexCoord2d', 00H	; `string'
CONST	ENDS
;	COMDAT ??_C@_0O@HGEKAFDC@glTexCoord1sv@
CONST	SEGMENT
??_C@_0O@HGEKAFDC@glTexCoord1sv@ DB 'glTexCoord1sv', 00H ; `string'
CONST	ENDS
;	COMDAT ??_C@_0N@CPCCHGEJ@glTexCoord1s@
CONST	SEGMENT
??_C@_0N@CPCCHGEJ@glTexCoord1s@ DB 'glTexCoord1s', 00H	; `string'
CONST	ENDS
;	COMDAT ??_C@_0O@GHPLCDJE@glTexCoord1iv@
CONST	SEGMENT
??_C@_0O@GHPLCDJE@glTexCoord1iv@ DB 'glTexCoord1iv', 00H ; `string'
CONST	ENDS
;	COMDAT ??_C@_0N@JPAPIMJC@glTexCoord1i@
CONST	SEGMENT
??_C@_0N@JPAPIMJC@glTexCoord1i@ DB 'glTexCoord1i', 00H	; `string'
CONST	ENDS
;	COMDAT ??_C@_0O@GMKHGEKJ@glTexCoord1fv@
CONST	SEGMENT
??_C@_0O@GMKHGEKJ@glTexCoord1fv@ DB 'glTexCoord1fv', 00H ; `string'
CONST	ENDS
;	COMDAT ??_C@_0N@BIJHJAFN@glTexCoord1f@
CONST	SEGMENT
??_C@_0N@BIJHJAFN@glTexCoord1f@ DB 'glTexCoord1f', 00H	; `string'
CONST	ENDS
;	COMDAT ??_C@_0O@GPCDLAMH@glTexCoord1dv@
CONST	SEGMENT
??_C@_0O@GPCDLAMH@glTexCoord1dv@ DB 'glTexCoord1dv', 00H ; `string'
CONST	ENDS
;	COMDAT ??_C@_0N@CKKBPCNP@glTexCoord1d@
CONST	SEGMENT
??_C@_0N@CKKBPCNP@glTexCoord1d@ DB 'glTexCoord1d', 00H	; `string'
CONST	ENDS
;	COMDAT ??_C@_08FPNOOGJA@glRectsv@
CONST	SEGMENT
??_C@_08FPNOOGJA@glRectsv@ DB 'glRectsv', 00H		; `string'
CONST	ENDS
;	COMDAT ??_C@_07GCAIEMDA@glRects@
CONST	SEGMENT
??_C@_07GCAIEMDA@glRects@ DB 'glRects', 00H		; `string'
CONST	ENDS
;	COMDAT ??_C@_08EOGPMADG@glRectiv@
CONST	SEGMENT
??_C@_08EOGPMADG@glRectiv@ DB 'glRectiv', 00H		; `string'
CONST	ENDS
;	COMDAT ??_C@_07NCCFLGOL@glRecti@
CONST	SEGMENT
??_C@_07NCCFLGOL@glRecti@ DB 'glRecti', 00H		; `string'
CONST	ENDS
;	COMDAT ??_C@_08EFDDIHAL@glRectfv@
CONST	SEGMENT
??_C@_08EFDDIHAL@glRectfv@ DB 'glRectfv', 00H		; `string'
CONST	ENDS
;	COMDAT ??_C@_07FFLNKKCE@glRectf@
CONST	SEGMENT
??_C@_07FFLNKKCE@glRectf@ DB 'glRectf', 00H		; `string'
CONST	ENDS
;	COMDAT ??_C@_08EGLHFDGF@glRectdv@
CONST	SEGMENT
??_C@_08EGLHFDGF@glRectdv@ DB 'glRectdv', 00H		; `string'
CONST	ENDS
;	COMDAT ??_C@_07GHILMIKG@glRectd@
CONST	SEGMENT
??_C@_07GHILMIKG@glRectd@ DB 'glRectd', 00H		; `string'
CONST	ENDS
;	COMDAT ??_C@_0P@NJGHOAAG@glRasterPos4sv@
CONST	SEGMENT
??_C@_0P@NJGHOAAG@glRasterPos4sv@ DB 'glRasterPos4sv', 00H ; `string'
CONST	ENDS
;	COMDAT ??_C@_0O@INMAOOA@glRasterPos4s@
CONST	SEGMENT
??_C@_0O@INMAOOA@glRasterPos4s@ DB 'glRasterPos4s', 00H	; `string'
CONST	ENDS
;	COMDAT ??_C@_0P@MINGMGKA@glRasterPos4iv@
CONST	SEGMENT
??_C@_0P@MINGMGKA@glRasterPos4iv@ DB 'glRasterPos4iv', 00H ; `string'
CONST	ENDS
;	COMDAT ??_C@_0O@LIPBPEDL@glRasterPos4i@
CONST	SEGMENT
??_C@_0O@LIPBPEDL@glRasterPos4i@ DB 'glRasterPos4i', 00H ; `string'
CONST	ENDS
;	COMDAT ??_C@_0P@MDIKIBJN@glRasterPos4fv@
CONST	SEGMENT
??_C@_0P@MDIKIBJN@glRasterPos4fv@ DB 'glRasterPos4fv', 00H ; `string'
CONST	ENDS
;	COMDAT ??_C@_0O@DPGJOIPE@glRasterPos4f@
CONST	SEGMENT
??_C@_0O@DPGJOIPE@glRasterPos4f@ DB 'glRasterPos4f', 00H ; `string'
CONST	ENDS
;	COMDAT ??_C@_0P@MAAOFFPD@glRasterPos4dv@
CONST	SEGMENT
??_C@_0P@MAAOFFPD@glRasterPos4dv@ DB 'glRasterPos4dv', 00H ; `string'
CONST	ENDS
;	COMDAT ??_C@_0O@NFPIKHG@glRasterPos4d@
CONST	SEGMENT
??_C@_0O@NFPIKHG@glRasterPos4d@ DB 'glRasterPos4d', 00H	; `string'
CONST	ENDS
;	COMDAT ??_C@_0P@EELANILP@glRasterPos3sv@
CONST	SEGMENT
??_C@_0P@EELANILP@glRasterPos3sv@ DB 'glRasterPos3sv', 00H ; `string'
CONST	ENDS
;	COMDAT ??_C@_0O@NJDBIGF@glRasterPos3s@
CONST	SEGMENT
??_C@_0O@NJDBIGF@glRasterPos3s@ DB 'glRasterPos3s', 00H	; `string'
CONST	ENDS
;	COMDAT ??_C@_0P@FFABPOBJ@glRasterPos3iv@
CONST	SEGMENT
??_C@_0P@FFABPOBJ@glRasterPos3iv@ DB 'glRasterPos3iv', 00H ; `string'
CONST	ENDS
;	COMDAT ??_C@_0O@LNLOOCLO@glRasterPos3i@
CONST	SEGMENT
??_C@_0O@LNLOOCLO@glRasterPos3i@ DB 'glRasterPos3i', 00H ; `string'
CONST	ENDS
;	COMDAT ??_C@_0P@FOFNLJCE@glRasterPos3fv@
CONST	SEGMENT
??_C@_0P@FOFNLJCE@glRasterPos3fv@ DB 'glRasterPos3fv', 00H ; `string'
CONST	ENDS
;	COMDAT ??_C@_0O@DKCGPOHB@glRasterPos3f@
CONST	SEGMENT
??_C@_0O@DKCGPOHB@glRasterPos3f@ DB 'glRasterPos3f', 00H ; `string'
CONST	ENDS
;	COMDAT ??_C@_0P@FNNJGNEK@glRasterPos3dv@
CONST	SEGMENT
??_C@_0P@FNNJGNEK@glRasterPos3dv@ DB 'glRasterPos3dv', 00H ; `string'
CONST	ENDS
;	COMDAT ??_C@_0O@IBAJMPD@glRasterPos3d@
CONST	SEGMENT
??_C@_0O@IBAJMPD@glRasterPos3d@ DB 'glRasterPos3d', 00H	; `string'
CONST	ENDS
;	COMDAT ??_C@_0P@PMAMLPNK@glRasterPos2sv@
CONST	SEGMENT
??_C@_0P@PMAMLPNK@glRasterPos2sv@ DB 'glRasterPos2sv', 00H ; `string'
CONST	ENDS
;	COMDAT ??_C@_0O@MFBHCFC@glRasterPos2s@
CONST	SEGMENT
??_C@_0O@MFBHCFC@glRasterPos2s@ DB 'glRasterPos2s', 00H	; `string'
CONST	ENDS
;	COMDAT ??_C@_0P@ONLNJJHM@glRasterPos2iv@
CONST	SEGMENT
??_C@_0P@ONLNJJHM@glRasterPos2iv@ DB 'glRasterPos2iv', 00H ; `string'
CONST	ENDS
;	COMDAT ??_C@_0O@LMHMIIIJ@glRasterPos2i@
CONST	SEGMENT
??_C@_0O@LMHMIIIJ@glRasterPos2i@ DB 'glRasterPos2i', 00H ; `string'
CONST	ENDS
;	COMDAT ??_C@_0P@OGOBNOEB@glRasterPos2fv@
CONST	SEGMENT
??_C@_0P@OGOBNOEB@glRasterPos2fv@ DB 'glRasterPos2fv', 00H ; `string'
CONST	ENDS
;	COMDAT ??_C@_0O@DLOEJEEG@glRasterPos2f@
CONST	SEGMENT
??_C@_0O@DLOEJEEG@glRasterPos2f@ DB 'glRasterPos2f', 00H ; `string'
CONST	ENDS
;	COMDAT ??_C@_0P@OFGFAKCP@glRasterPos2dv@
CONST	SEGMENT
??_C@_0P@OFGFAKCP@glRasterPos2dv@ DB 'glRasterPos2dv', 00H ; `string'
CONST	ENDS
;	COMDAT ??_C@_0O@JNCPGME@glRasterPos2d@
CONST	SEGMENT
??_C@_0O@JNCPGME@glRasterPos2d@ DB 'glRasterPos2d', 00H	; `string'
CONST	ENDS
;	COMDAT ??_C@_0M@NHLFGDMD@glNormal3sv@
CONST	SEGMENT
??_C@_0M@NHLFGDMD@glNormal3sv@ DB 'glNormal3sv', 00H	; `string'
CONST	ENDS
;	COMDAT ??_C@_0L@BNHPJOI@glNormal3s@
CONST	SEGMENT
??_C@_0L@BNHPJOI@glNormal3s@ DB 'glNormal3s', 00H	; `string'
CONST	ENDS
;	COMDAT ??_C@_0M@MGAEEFGF@glNormal3iv@
CONST	SEGMENT
??_C@_0M@MGAEEFGF@glNormal3iv@ DB 'glNormal3iv', 00H	; `string'
CONST	ENDS
;	COMDAT ??_C@_0L@LBPKADDD@glNormal3i@
CONST	SEGMENT
??_C@_0L@LBPKADDD@glNormal3i@ DB 'glNormal3i', 00H	; `string'
CONST	ENDS
;	COMDAT ??_C@_0M@MNFIACFI@glNormal3fv@
CONST	SEGMENT
??_C@_0M@MNFIACFI@glNormal3fv@ DB 'glNormal3fv', 00H	; `string'
CONST	ENDS
;	COMDAT ??_C@_0L@DGGCBPPM@glNormal3f@
CONST	SEGMENT
??_C@_0L@DGGCBPPM@glNormal3f@ DB 'glNormal3f', 00H	; `string'
CONST	ENDS
;	COMDAT ??_C@_0M@MONMNGDG@glNormal3dv@
CONST	SEGMENT
??_C@_0M@MONMNGDG@glNormal3dv@ DB 'glNormal3dv', 00H	; `string'
CONST	ENDS
;	COMDAT ??_C@_0L@EFEHNHO@glNormal3d@
CONST	SEGMENT
??_C@_0L@EFEHNHO@glNormal3d@ DB 'glNormal3d', 00H	; `string'
CONST	ENDS
;	COMDAT ??_C@_0M@MKFBKKIE@glNormal3bv@
CONST	SEGMENT
??_C@_0M@MKFBKKIE@glNormal3bv@ DB 'glNormal3bv', 00H	; `string'
CONST	ENDS
;	COMDAT ??_C@_0L@FCAONKPI@glNormal3b@
CONST	SEGMENT
??_C@_0L@FCAONKPI@glNormal3b@ DB 'glNormal3b', 00H	; `string'
CONST	ENDS
;	COMDAT ??_C@_09DLKMCBDF@glIndexsv@
CONST	SEGMENT
??_C@_09DLKMCBDF@glIndexsv@ DB 'glIndexsv', 00H		; `string'
CONST	ENDS
;	COMDAT ??_C@_08HLGHCJCJ@glIndexs@
CONST	SEGMENT
??_C@_08HLGHCJCJ@glIndexs@ DB 'glIndexs', 00H		; `string'
CONST	ENDS
;	COMDAT ??_C@_09CKBNAHJD@glIndexiv@
CONST	SEGMENT
??_C@_09CKBNAHJD@glIndexiv@ DB 'glIndexiv', 00H		; `string'
CONST	ENDS
;	COMDAT ??_C@_08MLEKNDPC@glIndexi@
CONST	SEGMENT
??_C@_08MLEKNDPC@glIndexi@ DB 'glIndexi', 00H		; `string'
CONST	ENDS
;	COMDAT ??_C@_09CBEBEAKO@glIndexfv@
CONST	SEGMENT
??_C@_09CBEBEAKO@glIndexfv@ DB 'glIndexfv', 00H		; `string'
CONST	ENDS
;	COMDAT ??_C@_08EMNCMPDN@glIndexf@
CONST	SEGMENT
??_C@_08EMNCMPDN@glIndexf@ DB 'glIndexf', 00H		; `string'
CONST	ENDS
;	COMDAT ??_C@_09CCMFJEMA@glIndexdv@
CONST	SEGMENT
??_C@_09CCMFJEMA@glIndexdv@ DB 'glIndexdv', 00H		; `string'
CONST	ENDS
;	COMDAT ??_C@_08HOOEKNLP@glIndexd@
CONST	SEGMENT
??_C@_08HOOEKNLP@glIndexd@ DB 'glIndexd', 00H		; `string'
CONST	ENDS
;	COMDAT ??_C@_05OIBMBLHE@glEnd@
CONST	SEGMENT
??_C@_05OIBMBLHE@glEnd@ DB 'glEnd', 00H			; `string'
CONST	ENDS
;	COMDAT ??_C@_0M@MKDGIOMK@glEdgeFlagv@
CONST	SEGMENT
??_C@_0M@MKDGIOMK@glEdgeFlagv@ DB 'glEdgeFlagv', 00H	; `string'
CONST	ENDS
;	COMDAT ??_C@_0L@DFCKJEPI@glEdgeFlag@
CONST	SEGMENT
??_C@_0L@DFCKJEPI@glEdgeFlag@ DB 'glEdgeFlag', 00H	; `string'
CONST	ENDS
;	COMDAT ??_C@_0M@OPLLCJJN@glColor4usv@
CONST	SEGMENT
??_C@_0M@OPLLCJJN@glColor4usv@ DB 'glColor4usv', 00H	; `string'
CONST	ENDS
;	COMDAT ??_C@_0L@NHFPGDEK@glColor4us@
CONST	SEGMENT
??_C@_0L@NHFPGDEK@glColor4us@ DB 'glColor4us', 00H	; `string'
CONST	ENDS
;	COMDAT ??_C@_0M@POAKAPDL@glColor4uiv@
CONST	SEGMENT
??_C@_0M@POAKAPDL@glColor4uiv@ DB 'glColor4uiv', 00H	; `string'
CONST	ENDS
;	COMDAT ??_C@_0L@GHHCJJJB@glColor4ui@
CONST	SEGMENT
??_C@_0L@GHHCJJJB@glColor4ui@ DB 'glColor4ui', 00H	; `string'
CONST	ENDS
;	COMDAT ??_C@_0M@PCFPOANK@glColor4ubv@
CONST	SEGMENT
??_C@_0M@PCFPOANK@glColor4ubv@ DB 'glColor4ubv', 00H	; `string'
CONST	ENDS
;	COMDAT ??_C@_0L@IEIGEAFK@glColor4ub@
CONST	SEGMENT
??_C@_0L@IEIGEAFK@glColor4ub@ DB 'glColor4ub', 00H	; `string'
CONST	ENDS
;	COMDAT ??_C@_0L@KOKFOLLN@glColor4sv@
CONST	SEGMENT
??_C@_0L@KOKFOLLN@glColor4sv@ DB 'glColor4sv', 00H	; `string'
CONST	ENDS
;	COMDAT ??_C@_09MNOHCDOB@glColor4s@
CONST	SEGMENT
??_C@_09MNOHCDOB@glColor4s@ DB 'glColor4s', 00H		; `string'
CONST	ENDS
;	COMDAT ??_C@_0L@LPBEMNBL@glColor4iv@
CONST	SEGMENT
??_C@_0L@LPBEMNBL@glColor4iv@ DB 'glColor4iv', 00H	; `string'
CONST	ENDS
;	COMDAT ??_C@_09HNMKNJDK@glColor4i@
CONST	SEGMENT
??_C@_09HNMKNJDK@glColor4i@ DB 'glColor4i', 00H		; `string'
CONST	ENDS
;	COMDAT ??_C@_0L@LEEIIKCG@glColor4fv@
CONST	SEGMENT
??_C@_0L@LEEIIKCG@glColor4fv@ DB 'glColor4fv', 00H	; `string'
CONST	ENDS
;	COMDAT ??_C@_09PKFCMFPF@glColor4f@
CONST	SEGMENT
??_C@_09PKFCMFPF@glColor4f@ DB 'glColor4f', 00H		; `string'
CONST	ENDS
;	COMDAT ??_C@_0L@LHMMFOEI@glColor4dv@
CONST	SEGMENT
??_C@_0L@LHMMFOEI@glColor4dv@ DB 'glColor4dv', 00H	; `string'
CONST	ENDS
;	COMDAT ??_C@_09MIGEKHHH@glColor4d@
CONST	SEGMENT
??_C@_09MIGEKHHH@glColor4d@ DB 'glColor4d', 00H		; `string'
CONST	ENDS
;	COMDAT ??_C@_0L@LDEBCCPK@glColor4bv@
CONST	SEGMENT
??_C@_0L@LDEBCCPK@glColor4bv@ DB 'glColor4bv', 00H	; `string'
CONST	ENDS
;	COMDAT ??_C@_09JODOAAPB@glColor4b@
CONST	SEGMENT
??_C@_09JODOAAPB@glColor4b@ DB 'glColor4b', 00H		; `string'
CONST	ENDS
;	COMDAT ??_C@_0M@FNJLPFIN@glColor3usv@
CONST	SEGMENT
??_C@_0M@FNJLPFIN@glColor3usv@ DB 'glColor3usv', 00H	; `string'
CONST	ENDS
;	COMDAT ??_C@_0L@EKIIFLPD@glColor3us@
CONST	SEGMENT
??_C@_0L@EKIIFLPD@glColor3us@ DB 'glColor3us', 00H	; `string'
CONST	ENDS
;	COMDAT ??_C@_0M@EMCKNDCL@glColor3uiv@
CONST	SEGMENT
??_C@_0M@EMCKNDCL@glColor3uiv@ DB 'glColor3uiv', 00H	; `string'
CONST	ENDS
;	COMDAT ??_C@_0L@PKKFKBCI@glColor3ui@
CONST	SEGMENT
??_C@_0L@PKKFKBCI@glColor3ui@ DB 'glColor3ui', 00H	; `string'
CONST	ENDS
;	COMDAT ??_C@_0M@EAHPDMMK@glColor3ubv@
CONST	SEGMENT
??_C@_0M@EAHPDMMK@glColor3ubv@ DB 'glColor3ubv', 00H	; `string'
CONST	ENDS
;	COMDAT ??_C@_0L@BJFBHIOD@glColor3ub@
CONST	SEGMENT
??_C@_0L@BJFBHIOD@glColor3ub@ DB 'glColor3ub', 00H	; `string'
CONST	ENDS
;	COMDAT ??_C@_0L@DDHCNDAE@glColor3sv@
CONST	SEGMENT
??_C@_0L@DDHCNDAE@glColor3sv@ DB 'glColor3sv', 00H	; `string'
CONST	ENDS
;	COMDAT ??_C@_09MIKIDFGE@glColor3s@
CONST	SEGMENT
??_C@_09MIKIDFGE@glColor3s@ DB 'glColor3s', 00H		; `string'
CONST	ENDS
;	COMDAT ??_C@_0L@CCMDPFKC@glColor3iv@
CONST	SEGMENT
??_C@_0L@CCMDPFKC@glColor3iv@ DB 'glColor3iv', 00H	; `string'
CONST	ENDS
;	COMDAT ??_C@_09HIIFMPLP@glColor3i@
CONST	SEGMENT
??_C@_09HIIFMPLP@glColor3i@ DB 'glColor3i', 00H		; `string'
CONST	ENDS
;	COMDAT ??_C@_0L@CJJPLCJP@glColor3fv@
CONST	SEGMENT
??_C@_0L@CJJPLCJP@glColor3fv@ DB 'glColor3fv', 00H	; `string'
CONST	ENDS
;	COMDAT ??_C@_09PPBNNDHA@glColor3f@
CONST	SEGMENT
??_C@_09PPBNNDHA@glColor3f@ DB 'glColor3f', 00H		; `string'
CONST	ENDS
;	COMDAT ??_C@_0L@CKBLGGPB@glColor3dv@
CONST	SEGMENT
??_C@_0L@CKBLGGPB@glColor3dv@ DB 'glColor3dv', 00H	; `string'
CONST	ENDS
;	COMDAT ??_C@_09MNCLLBPC@glColor3d@
CONST	SEGMENT
??_C@_09MNCLLBPC@glColor3d@ DB 'glColor3d', 00H		; `string'
CONST	ENDS
;	COMDAT ??_C@_0L@COJGBKED@glColor3bv@
CONST	SEGMENT
??_C@_0L@COJGBKED@glColor3bv@ DB 'glColor3bv', 00H	; `string'
CONST	ENDS
;	COMDAT ??_C@_09JLHBBGHE@glColor3b@
CONST	SEGMENT
??_C@_09JLHBBGHE@glColor3b@ DB 'glColor3b', 00H		; `string'
CONST	ENDS
;	COMDAT ??_C@_08PJOLDJDK@glBitmap@
CONST	SEGMENT
??_C@_08PJOLDJDK@glBitmap@ DB 'glBitmap', 00H		; `string'
CONST	ENDS
;	COMDAT ??_C@_07FCOIFMD@glBegin@
CONST	SEGMENT
??_C@_07FCOIFMD@glBegin@ DB 'glBegin', 00H		; `string'
CONST	ENDS
;	COMDAT ??_C@_0L@HDOJDFBA@glListBase@
CONST	SEGMENT
??_C@_0L@HDOJDFBA@glListBase@ DB 'glListBase', 00H	; `string'
CONST	ENDS
;	COMDAT ??_C@_0L@BNOFOEBP@glGenLists@
CONST	SEGMENT
??_C@_0L@BNOFOEBP@glGenLists@ DB 'glGenLists', 00H	; `string'
CONST	ENDS
;	COMDAT ??_C@_0O@KPJIJAFM@glDeleteLists@
CONST	SEGMENT
??_C@_0O@KPJIJAFM@glDeleteLists@ DB 'glDeleteLists', 00H ; `string'
CONST	ENDS
;	COMDAT ??_C@_0M@LFDBDICJ@glCallLists@
CONST	SEGMENT
??_C@_0M@LFDBDICJ@glCallLists@ DB 'glCallLists', 00H	; `string'
CONST	ENDS
;	COMDAT ??_C@_0L@CIPLDIDL@glCallList@
CONST	SEGMENT
??_C@_0L@CIPLDIDL@glCallList@ DB 'glCallList', 00H	; `string'
CONST	ENDS
;	COMDAT ??_C@_09HKEBCLHH@glEndList@
CONST	SEGMENT
??_C@_09HKEBCLHH@glEndList@ DB 'glEndList', 00H		; `string'
CONST	ENDS
;	COMDAT ??_C@_09KAGOBDOO@glNewList@
CONST	SEGMENT
??_C@_09KAGOBDOO@glNewList@ DB 'glNewList', 00H		; `string'
CONST	ENDS
;	COMDAT ??_C@_0L@KBLIPDFH@glViewport@
CONST	SEGMENT
??_C@_0L@KBLIPDFH@glViewport@ DB 'glViewport', 00H	; `string'
CONST	ENDS
;	COMDAT ??_C@_0N@PEBDIKOA@glDepthRange@
CONST	SEGMENT
??_C@_0N@PEBDIKOA@glDepthRange@ DB 'glDepthRange', 00H	; `string'
CONST	ENDS
;	COMDAT ??_C@_0M@INHMIHKC@glIsEnabled@
CONST	SEGMENT
??_C@_0M@INHMIHKC@glIsEnabled@ DB 'glIsEnabled', 00H	; `string'
CONST	ENDS
;	COMDAT ??_C@_0BJ@GLJHCPGI@glGetTexLevelParameteriv@
CONST	SEGMENT
??_C@_0BJ@GLJHCPGI@glGetTexLevelParameteriv@ DB 'glGetTexLevelParameteriv'
	DB	00H						; `string'
CONST	ENDS
;	COMDAT ??_C@_0BJ@GAMLGIFF@glGetTexLevelParameterfv@
CONST	SEGMENT
??_C@_0BJ@GAMLGIFF@glGetTexLevelParameterfv@ DB 'glGetTexLevelParameterfv'
	DB	00H						; `string'
CONST	ENDS
;	COMDAT ??_C@_0BE@DGCNLNPP@glGetTexParameteriv@
CONST	SEGMENT
??_C@_0BE@DGCNLNPP@glGetTexParameteriv@ DB 'glGetTexParameteriv', 00H ; `string'
CONST	ENDS
;	COMDAT ??_C@_0BE@DNHBPKMC@glGetTexParameterfv@
CONST	SEGMENT
??_C@_0BE@DNHBPKMC@glGetTexParameterfv@ DB 'glGetTexParameterfv', 00H ; `string'
CONST	ENDS
;	COMDAT ??_C@_0O@DOIIJLAD@glGetTexImage@
CONST	SEGMENT
??_C@_0O@DOIIJLAD@glGetTexImage@ DB 'glGetTexImage', 00H ; `string'
CONST	ENDS
;	COMDAT ??_C@_0M@OPOBFDCB@glGetString@
CONST	SEGMENT
??_C@_0M@OPOBFDCB@glGetString@ DB 'glGetString', 00H	; `string'
CONST	ENDS
;	COMDAT ??_C@_0O@DHHDCCLF@glGetIntegerv@
CONST	SEGMENT
??_C@_0O@DHHDCCLF@glGetIntegerv@ DB 'glGetIntegerv', 00H ; `string'
CONST	ENDS
;	COMDAT ??_C@_0M@CKCOBONE@glGetFloatv@
CONST	SEGMENT
??_C@_0M@CKCOBONE@glGetFloatv@ DB 'glGetFloatv', 00H	; `string'
CONST	ENDS
;	COMDAT ??_C@_0L@FPKAMKHB@glGetError@
CONST	SEGMENT
??_C@_0L@FPKAMKHB@glGetError@ DB 'glGetError', 00H	; `string'
CONST	ENDS
;	COMDAT ??_C@_0N@OFBMMCDH@glGetDoublev@
CONST	SEGMENT
??_C@_0N@OFBMMCDH@glGetDoublev@ DB 'glGetDoublev', 00H	; `string'
CONST	ENDS
;	COMDAT ??_C@_0O@NLMELLCJ@glGetBooleanv@
CONST	SEGMENT
??_C@_0O@NLMELLCJ@glGetBooleanv@ DB 'glGetBooleanv', 00H ; `string'
CONST	ENDS
;	COMDAT ??_C@_0N@CKFNNHOO@glReadPixels@
CONST	SEGMENT
??_C@_0N@CKFNNHOO@glReadPixels@ DB 'glReadPixels', 00H	; `string'
CONST	ENDS
;	COMDAT ??_C@_0N@HFKHBECK@glReadBuffer@
CONST	SEGMENT
??_C@_0N@HFKHBECK@glReadBuffer@ DB 'glReadBuffer', 00H	; `string'
CONST	ENDS
;	COMDAT ??_C@_0O@JCCIGLOF@glPixelStorei@
CONST	SEGMENT
??_C@_0O@JCCIGLOF@glPixelStorei@ DB 'glPixelStorei', 00H ; `string'
CONST	ENDS
;	COMDAT ??_C@_0O@BFLAHHCK@glPixelStoref@
CONST	SEGMENT
??_C@_0O@BFLAHHCK@glPixelStoref@ DB 'glPixelStoref', 00H ; `string'
CONST	ENDS
;	COMDAT ??_C@_0M@NEJABAEP@glDepthFunc@
CONST	SEGMENT
??_C@_0M@NEJABAEP@glDepthFunc@ DB 'glDepthFunc', 00H	; `string'
CONST	ENDS
;	COMDAT ??_C@_0M@BILBNGF@glStencilOp@
CONST	SEGMENT
??_C@_0M@BILBNGF@glStencilOp@ DB 'glStencilOp', 00H	; `string'
CONST	ENDS
;	COMDAT ??_C@_0O@ENNLLOLN@glStencilFunc@
CONST	SEGMENT
??_C@_0O@ENNLLOLN@glStencilFunc@ DB 'glStencilFunc', 00H ; `string'
CONST	ENDS
;	COMDAT ??_C@_09GKGMNAKG@glLogicOp@
CONST	SEGMENT
??_C@_09GKGMNAKG@glLogicOp@ DB 'glLogicOp', 00H		; `string'
CONST	ENDS
;	COMDAT ??_C@_0M@PFBKOKOH@glBlendFunc@
CONST	SEGMENT
??_C@_0M@PFBKOKOH@glBlendFunc@ DB 'glBlendFunc', 00H	; `string'
CONST	ENDS
;	COMDAT ??_C@_07COFELLJA@glFlush@
CONST	SEGMENT
??_C@_07COFELLJA@glFlush@ DB 'glFlush', 00H		; `string'
CONST	ENDS
;	COMDAT ??_C@_08DFCPOKBK@glFinish@
CONST	SEGMENT
??_C@_08DFCPOKBK@glFinish@ DB 'glFinish', 00H		; `string'
CONST	ENDS
;	COMDAT ??_C@_08OOEHEKOP@glEnable@
CONST	SEGMENT
??_C@_08OOEHEKOP@glEnable@ DB 'glEnable', 00H		; `string'
CONST	ENDS
;	COMDAT ??_C@_09MHGMIMKN@glDisable@
CONST	SEGMENT
??_C@_09MHGMIMKN@glDisable@ DB 'glDisable', 00H		; `string'
CONST	ENDS
;	COMDAT ??_C@_0M@KABMFLLN@glDepthMask@
CONST	SEGMENT
??_C@_0M@KABMFLLN@glDepthMask@ DB 'glDepthMask', 00H	; `string'
CONST	ENDS
;	COMDAT ??_C@_0M@DLGOAHPH@glColorMask@
CONST	SEGMENT
??_C@_0M@DLGOAHPH@glColorMask@ DB 'glColorMask', 00H	; `string'
CONST	ENDS
;	COMDAT ??_C@_0O@DJFHPFEP@glStencilMask@
CONST	SEGMENT
??_C@_0O@DJFHPFEP@glStencilMask@ DB 'glStencilMask', 00H ; `string'
CONST	ENDS
;	COMDAT ??_C@_0N@LJIELNG@glClearDepth@
CONST	SEGMENT
??_C@_0N@LJIELNG@glClearDepth@ DB 'glClearDepth', 00H	; `string'
CONST	ENDS
;	COMDAT ??_C@_0P@KBLPBBFP@glClearStencil@
CONST	SEGMENT
??_C@_0P@KBLPBBFP@glClearStencil@ DB 'glClearStencil', 00H ; `string'
CONST	ENDS
;	COMDAT ??_C@_0N@OGLMDNKC@glClearColor@
CONST	SEGMENT
??_C@_0N@OGLMDNKC@glClearColor@ DB 'glClearColor', 00H	; `string'
CONST	ENDS
;	COMDAT ??_C@_07IBAPPAHJ@glClear@
CONST	SEGMENT
??_C@_07IBAPPAHJ@glClear@ DB 'glClear', 00H		; `string'
CONST	ENDS
;	COMDAT ??_C@_0N@EKCLGPL@glDrawBuffer@
CONST	SEGMENT
??_C@_0N@EKCLGPL@glDrawBuffer@ DB 'glDrawBuffer', 00H	; `string'
CONST	ENDS
;	COMDAT ??_C@_0N@JBIKHLCC@glTexImage2D@
CONST	SEGMENT
??_C@_0N@JBIKHLCC@glTexImage2D@ DB 'glTexImage2D', 00H	; `string'
CONST	ENDS
;	COMDAT ??_C@_0N@JDMMMFHL@glTexImage1D@
CONST	SEGMENT
??_C@_0N@JDMMMFHL@glTexImage1D@ DB 'glTexImage1D', 00H	; `string'
CONST	ENDS
;	COMDAT ??_C@_0BB@KPLJEAAI@glTexParameteriv@
CONST	SEGMENT
??_C@_0BB@KPLJEAAI@glTexParameteriv@ DB 'glTexParameteriv', 00H ; `string'
CONST	ENDS
;	COMDAT ??_C@_0BA@KDNJAKA@glTexParameteri@
CONST	SEGMENT
??_C@_0BA@KDNJAKA@glTexParameteri@ DB 'glTexParameteri', 00H ; `string'
CONST	ENDS
;	COMDAT ??_C@_0BB@KEOFAHDF@glTexParameterfv@
CONST	SEGMENT
??_C@_0BB@KEOFAHDF@glTexParameterfv@ DB 'glTexParameterfv', 00H ; `string'
CONST	ENDS
;	COMDAT ??_C@_0BA@INKFIMGP@glTexParameterf@
CONST	SEGMENT
??_C@_0BA@INKFIMGP@glTexParameterf@ DB 'glTexParameterf', 00H ; `string'
CONST	ENDS
;	COMDAT ??_C@_09ECGPAEPL@glScissor@
CONST	SEGMENT
??_C@_09ECGPAEPL@glScissor@ DB 'glScissor', 00H		; `string'
CONST	ENDS
;	COMDAT ??_C@_0O@DKMNBFMB@glPolygonMode@
CONST	SEGMENT
??_C@_0O@DKMNBFMB@glPolygonMode@ DB 'glPolygonMode', 00H ; `string'
CONST	ENDS
;	COMDAT ??_C@_0M@EEAPMMNM@glPointSize@
CONST	SEGMENT
??_C@_0M@EEAPMMNM@glPointSize@ DB 'glPointSize', 00H	; `string'
CONST	ENDS
;	COMDAT ??_C@_0M@CFLGNFPG@glLineWidth@
CONST	SEGMENT
??_C@_0M@CFLGNFPG@glLineWidth@ DB 'glLineWidth', 00H	; `string'
CONST	ENDS
;	COMDAT ??_C@_06HEADGMBC@glHint@
CONST	SEGMENT
??_C@_06HEADGMBC@glHint@ DB 'glHint', 00H		; `string'
CONST	ENDS
;	COMDAT ??_C@_0M@ILBMDJDA@glFrontFace@
CONST	SEGMENT
??_C@_0M@ILBMDJDA@glFrontFace@ DB 'glFrontFace', 00H	; `string'
CONST	ENDS
;	COMDAT ??_C@_0L@BAPBLHME@glCullFace@
CONST	SEGMENT
??_C@_0L@BAPBLHME@glCullFace@ DB 'glCullFace', 00H	; `string'
CONST	ENDS
;	COMDAT ??_C@_0BC@FFKMKEGM@wglGetProcAddress@
CONST	SEGMENT
??_C@_0BC@FFKMKEGM@wglGetProcAddress@ DB 'wglGetProcAddress', 00H ; `string'
CONST	ENDS
;	COMDAT ??_C@_1BK@LCODAJLO@?$AAo?$AAp?$AAe?$AAn?$AAg?$AAl?$AA3?$AA2?$AA?4?$AAd?$AAl?$AAl@
CONST	SEGMENT
??_C@_1BK@LCODAJLO@?$AAo?$AAp?$AAe?$AAn?$AAg?$AAl?$AA3?$AA2?$AA?4?$AAd?$AAl?$AAl@ DB 'o'
	DB	00H, 'p', 00H, 'e', 00H, 'n', 00H, 'g', 00H, 'l', 00H, '3', 00H
	DB	'2', 00H, '.', 00H, 'd', 00H, 'l', 00H, 'l', 00H, 00H, 00H ; `string'
PUBLIC	gladLoadGLLoader
PUBLIC	sscanf_s
PUBLIC	vsscanf_s
PUBLIC	_vsscanf_s_l
PUBLIC	__local_stdio_scanf_options
max_loaded_major DD 01H DUP (?)
	ALIGN	8

gladGetProcAddressPtr DQ 01H DUP (?)
exts	DQ	01H DUP (?)
libGL	DQ	01H DUP (?)
COMM	?_OptionsStorage@?1??__local_stdio_scanf_options@@9@9:QWORD							; `__local_stdio_scanf_options'::`2'::_OptionsStorage
num_exts_i DD	01H DUP (?)
	ALIGN	8

exts_i	DQ	01H DUP (?)
_BSS	ENDS
;	COMDAT pdata
pdata	SEGMENT
$pdata$gladLoadGLLoader DD imagerel $LN112@gladLoadGL
	DD	imagerel $LN112@gladLoadGL+4112
	DD	imagerel $unwind$gladLoadGLLoader
pdata	ENDS
;	COMDAT pdata
pdata	SEGMENT
$pdata$1$gladLoadGLLoader DD imagerel $LN112@gladLoadGL+4112
	DD	imagerel $LN112@gladLoadGL+4228
	DD	imagerel $chain$1$gladLoadGLLoader
pdata	ENDS
;	COMDAT pdata
pdata	SEGMENT
$pdata$2$gladLoadGLLoader DD imagerel $LN112@gladLoadGL+4228
	DD	imagerel $LN112@gladLoadGL+4346
	DD	imagerel $chain$2$gladLoadGLLoader
pdata	ENDS
;	COMDAT pdata
pdata	SEGMENT
$pdata$find_coreGL DD imagerel find_coreGL
	DD	imagerel find_coreGL+97
	DD	imagerel $unwind$find_coreGL
pdata	ENDS
;	COMDAT pdata
pdata	SEGMENT
$pdata$1$find_coreGL DD imagerel find_coreGL+97
	DD	imagerel find_coreGL+235
	DD	imagerel $chain$1$find_coreGL
pdata	ENDS
;	COMDAT pdata
pdata	SEGMENT
$pdata$2$find_coreGL DD imagerel find_coreGL+235
	DD	imagerel find_coreGL+1063
	DD	imagerel $chain$2$find_coreGL
pdata	ENDS
;	COMDAT pdata
pdata	SEGMENT
$pdata$find_extensionsGL DD imagerel find_extensionsGL
	DD	imagerel find_extensionsGL+178
	DD	imagerel $unwind$find_extensionsGL
pdata	ENDS
;	COMDAT pdata
pdata	SEGMENT
$pdata$1$find_extensionsGL DD imagerel find_extensionsGL+178
	DD	imagerel find_extensionsGL+290
	DD	imagerel $chain$1$find_extensionsGL
pdata	ENDS
;	COMDAT pdata
pdata	SEGMENT
$pdata$2$find_extensionsGL DD imagerel find_extensionsGL+290
	DD	imagerel find_extensionsGL+377
	DD	imagerel $chain$2$find_extensionsGL
pdata	ENDS
;	COMDAT pdata
pdata	SEGMENT
$pdata$load_GL_VERSION_4_6 DD imagerel load_GL_VERSION_4_6
	DD	imagerel load_GL_VERSION_4_6+70
	DD	imagerel $unwind$load_GL_VERSION_4_6
pdata	ENDS
;	COMDAT pdata
pdata	SEGMENT
$pdata$load_GL_VERSION_4_5 DD imagerel load_GL_VERSION_4_5
	DD	imagerel load_GL_VERSION_4_5+1490
	DD	imagerel $unwind$load_GL_VERSION_4_5
pdata	ENDS
;	COMDAT pdata
pdata	SEGMENT
$pdata$load_GL_VERSION_4_4 DD imagerel load_GL_VERSION_4_4
	DD	imagerel load_GL_VERSION_4_4+130
	DD	imagerel $unwind$load_GL_VERSION_4_4
pdata	ENDS
;	COMDAT pdata
pdata	SEGMENT
$pdata$load_GL_VERSION_4_3 DD imagerel load_GL_VERSION_4_3
	DD	imagerel load_GL_VERSION_4_3+554
	DD	imagerel $unwind$load_GL_VERSION_4_3
pdata	ENDS
;	COMDAT pdata
pdata	SEGMENT
$pdata$load_GL_VERSION_4_2 DD imagerel load_GL_VERSION_4_2
	DD	imagerel load_GL_VERSION_4_2+177
	DD	imagerel $unwind$load_GL_VERSION_4_2
pdata	ENDS
;	COMDAT pdata
pdata	SEGMENT
$pdata$load_GL_VERSION_4_1 DD imagerel load_GL_VERSION_4_1
	DD	imagerel load_GL_VERSION_4_1+1094
	DD	imagerel $unwind$load_GL_VERSION_4_1
pdata	ENDS
;	COMDAT pdata
pdata	SEGMENT
$pdata$load_GL_VERSION_4_0 DD imagerel load_GL_VERSION_4_0
	DD	imagerel load_GL_VERSION_4_0+578
	DD	imagerel $unwind$load_GL_VERSION_4_0
pdata	ENDS
;	COMDAT pdata
pdata	SEGMENT
$pdata$load_GL_VERSION_3_3 DD imagerel load_GL_VERSION_3_3
	DD	imagerel load_GL_VERSION_3_3+722
	DD	imagerel $unwind$load_GL_VERSION_3_3
pdata	ENDS
;	COMDAT pdata
pdata	SEGMENT
$pdata$load_GL_VERSION_3_2 DD imagerel load_GL_VERSION_3_2
	DD	imagerel load_GL_VERSION_3_2+261
	DD	imagerel $unwind$load_GL_VERSION_3_2
pdata	ENDS
;	COMDAT pdata
pdata	SEGMENT
$pdata$load_GL_VERSION_3_1 DD imagerel load_GL_VERSION_3_1
	DD	imagerel load_GL_VERSION_3_1+206
	DD	imagerel $unwind$load_GL_VERSION_3_1
pdata	ENDS
;	COMDAT pdata
pdata	SEGMENT
$pdata$load_GL_VERSION_3_0 DD imagerel load_GL_VERSION_3_0
	DD	imagerel load_GL_VERSION_3_0+1104
	DD	imagerel $unwind$load_GL_VERSION_3_0
pdata	ENDS
;	COMDAT pdata
pdata	SEGMENT
$pdata$load_GL_VERSION_2_1 DD imagerel load_GL_VERSION_2_1
	DD	imagerel load_GL_VERSION_2_1+94
	DD	imagerel $unwind$load_GL_VERSION_2_1
pdata	ENDS
;	COMDAT pdata
pdata	SEGMENT
$pdata$load_GL_VERSION_2_0 DD imagerel load_GL_VERSION_2_0
	DD	imagerel load_GL_VERSION_2_0+1292
	DD	imagerel $unwind$load_GL_VERSION_2_0
pdata	ENDS
;	COMDAT pdata
pdata	SEGMENT
$pdata$load_GL_VERSION_1_5 DD imagerel load_GL_VERSION_1_5
	DD	imagerel load_GL_VERSION_1_5+282
	DD	imagerel $unwind$load_GL_VERSION_1_5
pdata	ENDS
;	COMDAT pdata
pdata	SEGMENT
$pdata$load_GL_VERSION_1_4 DD imagerel load_GL_VERSION_1_4
	DD	imagerel load_GL_VERSION_1_4+590
	DD	imagerel $unwind$load_GL_VERSION_1_4
pdata	ENDS
;	COMDAT pdata
pdata	SEGMENT
$pdata$load_GL_VERSION_1_3 DD imagerel load_GL_VERSION_1_3
	DD	imagerel load_GL_VERSION_1_3+585
	DD	imagerel $unwind$load_GL_VERSION_1_3
pdata	ENDS
;	COMDAT pdata
pdata	SEGMENT
$pdata$load_GL_VERSION_1_2 DD imagerel load_GL_VERSION_1_2
	DD	imagerel load_GL_VERSION_1_2+70
	DD	imagerel $unwind$load_GL_VERSION_1_2
pdata	ENDS
;	COMDAT pdata
pdata	SEGMENT
$pdata$load_GL_VERSION_1_1 DD imagerel load_GL_VERSION_1_1
	DD	imagerel load_GL_VERSION_1_1+421
	DD	imagerel $unwind$load_GL_VERSION_1_1
pdata	ENDS
;	COMDAT pdata
pdata	SEGMENT
$pdata$load_GL_VERSION_1_0 DD imagerel load_GL_VERSION_1_0
	DD	imagerel load_GL_VERSION_1_0+2910
	DD	imagerel $unwind$load_GL_VERSION_1_0
pdata	ENDS
;	COMDAT pdata
pdata	SEGMENT
$pdata$has_ext DD imagerel has_ext
	DD	imagerel has_ext+240
	DD	imagerel $unwind$has_ext
pdata	ENDS
;	COMDAT pdata
pdata	SEGMENT
$pdata$free_exts DD imagerel free_exts
	DD	imagerel free_exts+16
	DD	imagerel $unwind$free_exts
pdata	ENDS
;	COMDAT pdata
pdata	SEGMENT
$pdata$0$free_exts DD imagerel free_exts+16
	DD	imagerel free_exts+31
	DD	imagerel $chain$0$free_exts
pdata	ENDS
;	COMDAT pdata
pdata	SEGMENT
$pdata$1$free_exts DD imagerel free_exts+31
	DD	imagerel free_exts+74
	DD	imagerel $chain$1$free_exts
pdata	ENDS
;	COMDAT pdata
pdata	SEGMENT
$pdata$2$free_exts DD imagerel free_exts+74
	DD	imagerel free_exts+96
	DD	imagerel $chain$2$free_exts
pdata	ENDS
;	COMDAT pdata
pdata	SEGMENT
$pdata$3$free_exts DD imagerel free_exts+96
	DD	imagerel free_exts+101
	DD	imagerel $chain$3$free_exts
pdata	ENDS
;	COMDAT pdata
pdata	SEGMENT
$pdata$get_exts DD imagerel get_exts
	DD	imagerel get_exts+171
	DD	imagerel $unwind$get_exts
pdata	ENDS
;	COMDAT pdata
pdata	SEGMENT
$pdata$2$get_exts DD imagerel get_exts+171
	DD	imagerel get_exts+293
	DD	imagerel $chain$2$get_exts
pdata	ENDS
;	COMDAT pdata
pdata	SEGMENT
$pdata$3$get_exts DD imagerel get_exts+293
	DD	imagerel get_exts+310
	DD	imagerel $chain$3$get_exts
pdata	ENDS
;	COMDAT pdata
pdata	SEGMENT
$pdata$get_proc DD imagerel get_proc
	DD	imagerel get_proc+79
	DD	imagerel $unwind$get_proc
pdata	ENDS
;	COMDAT pdata
pdata	SEGMENT
$pdata$sscanf_s DD imagerel $LN8@sscanf_s
	DD	imagerel $LN8@sscanf_s+86
	DD	imagerel $unwind$sscanf_s
pdata	ENDS
;	COMDAT pdata
pdata	SEGMENT
$pdata$vsscanf_s DD imagerel $LN6@vsscanf_s
	DD	imagerel $LN6@vsscanf_s+85
	DD	imagerel $unwind$vsscanf_s
pdata	ENDS
;	COMDAT pdata
pdata	SEGMENT
$pdata$_vsscanf_s_l DD imagerel $LN4@vsscanf_s_
	DD	imagerel $LN4@vsscanf_s_+85
	DD	imagerel $unwind$_vsscanf_s_l
;	COMDAT xdata
xdata	SEGMENT
$unwind$_vsscanf_s_l DQ 00009640f00060f01r	; 1.30596e-308
	DQ	0700b520f0008340fr		; 5.30195e+231
xdata	ENDS
;	COMDAT xdata
xdata	SEGMENT
$unwind$vsscanf_s DQ 00009640f00060f01r		; 1.30596e-308
	DQ	0700b520f0008340fr		; 5.30195e+231
xdata	ENDS
;	COMDAT xdata
xdata	SEGMENT
$unwind$sscanf_s DQ 07012521600041601r		; 7.11078e+231
	DD	030106011H
xdata	ENDS
;	COMDAT xdata
xdata	SEGMENT
$unwind$get_proc DQ 03002320600020601r		; 1.96423e-77
xdata	ENDS
;	COMDAT xdata
xdata	SEGMENT
$chain$3$get_exts DD 021H
	DD	imagerel get_exts
	DD	imagerel get_exts+171
	DD	imagerel $unwind$get_exts
xdata	ENDS
;	COMDAT xdata
xdata	SEGMENT
$chain$2$get_exts DQ 00008640f00060f21r		; 1.16689e-308
	DQ	0000634050007540ar		; 8.62661e-309
	DD	imagerel get_exts
	DD	imagerel get_exts+171
	DD	imagerel $unwind$get_exts
xdata	ENDS
;	COMDAT xdata
xdata	SEGMENT
$unwind$get_exts DQ 00009740b00040b01r		; 1.31464e-308
	DD	0e007320bH
xdata	ENDS
;	COMDAT xdata
xdata	SEGMENT
$chain$3$free_exts DD 021H
	DD	imagerel free_exts
	DD	imagerel free_exts+16
	DD	imagerel $unwind$free_exts
xdata	ENDS
;	COMDAT xdata
xdata	SEGMENT
$chain$2$free_exts DD 021H
	DD	imagerel free_exts+16
	DD	imagerel free_exts+31
	DD	imagerel $chain$0$free_exts
xdata	ENDS
;	COMDAT xdata
xdata	SEGMENT
$chain$1$free_exts DQ 00004740500020521r	; 6.19294e-309
	DD	imagerel free_exts+16
	DD	imagerel free_exts+31
	DD	imagerel $chain$0$free_exts
xdata	ENDS
;	COMDAT xdata
xdata	SEGMENT
$chain$0$free_exts DQ 00006340500020521r	; 8.62661e-309
	DD	imagerel free_exts
	DD	imagerel free_exts+16
	DD	imagerel $unwind$free_exts
xdata	ENDS
;	COMDAT xdata
xdata	SEGMENT
$unwind$free_exts DQ 00000420400010401r		; 3.58617e-310
xdata	ENDS
;	COMDAT xdata
xdata	SEGMENT
$unwind$has_ext DQ 00006340a00040a01r		; 8.62672e-309
	DD	07006320aH
xdata	ENDS
;	COMDAT xdata
xdata	SEGMENT
$unwind$load_GL_VERSION_1_0 DQ 03002320600020601r ; 1.96423e-77
xdata	ENDS
;	COMDAT xdata
xdata	SEGMENT
$unwind$load_GL_VERSION_1_1 DQ 00000420400010401r ; 3.58617e-310
xdata	ENDS
;	COMDAT xdata
xdata	SEGMENT
$unwind$load_GL_VERSION_1_2 DQ 00000420400010401r ; 3.58617e-310
xdata	ENDS
;	COMDAT xdata
xdata	SEGMENT
$unwind$load_GL_VERSION_1_3 DQ 00000420400010401r ; 3.58617e-310
xdata	ENDS
;	COMDAT xdata
xdata	SEGMENT
$unwind$load_GL_VERSION_1_4 DQ 00000420400010401r ; 3.58617e-310
xdata	ENDS
;	COMDAT xdata
xdata	SEGMENT
$unwind$load_GL_VERSION_1_5 DQ 00000420400010401r ; 3.58617e-310
xdata	ENDS
;	COMDAT xdata
xdata	SEGMENT
$unwind$load_GL_VERSION_2_0 DQ 00000420400010401r ; 3.58617e-310
xdata	ENDS
;	COMDAT xdata
xdata	SEGMENT
$unwind$load_GL_VERSION_2_1 DQ 00000420400010401r ; 3.58617e-310
xdata	ENDS
;	COMDAT xdata
xdata	SEGMENT
$unwind$load_GL_VERSION_3_0 DQ 00000420400010401r ; 3.58617e-310
xdata	ENDS
;	COMDAT xdata
xdata	SEGMENT
$unwind$load_GL_VERSION_3_1 DQ 00000420400010401r ; 3.58617e-310
xdata	ENDS
;	COMDAT xdata
xdata	SEGMENT
$unwind$load_GL_VERSION_3_2 DQ 00000420400010401r ; 3.58617e-310
xdata	ENDS
;	COMDAT xdata
xdata	SEGMENT
$unwind$load_GL_VERSION_3_3 DQ 00000420400010401r ; 3.58617e-310
xdata	ENDS
;	COMDAT xdata
xdata	SEGMENT
$unwind$load_GL_VERSION_4_0 DQ 00000420400010401r ; 3.58617e-310
xdata	ENDS
;	COMDAT xdata
xdata	SEGMENT
$unwind$load_GL_VERSION_4_1 DQ 00000420400010401r ; 3.58617e-310
xdata	ENDS
;	COMDAT xdata
xdata	SEGMENT
$unwind$load_GL_VERSION_4_2 DQ 00000420400010401r ; 3.58617e-310
xdata	ENDS
;	COMDAT xdata
xdata	SEGMENT
$unwind$load_GL_VERSION_4_3 DQ 00000420400010401r ; 3.58617e-310
xdata	ENDS
;	COMDAT xdata
xdata	SEGMENT
$unwind$load_GL_VERSION_4_4 DQ 00000420400010401r ; 3.58617e-310
xdata	ENDS
;	COMDAT xdata
xdata	SEGMENT
$unwind$load_GL_VERSION_4_5 DQ 00000420400010401r ; 3.58617e-310
xdata	ENDS
;	COMDAT xdata
xdata	SEGMENT
$unwind$load_GL_VERSION_4_6 DQ 00000420400010401r ; 3.58617e-310
xdata	ENDS
;	COMDAT xdata
xdata	SEGMENT
$chain$2$find_extensionsGL DD 021H
	DD	imagerel find_extensionsGL
	DD	imagerel find_extensionsGL+178
	DD	imagerel $unwind$find_extensionsGL
xdata	ENDS
;	COMDAT xdata
xdata	SEGMENT
$chain$1$find_extensionsGL DQ 00007640a00040a21r ; 1.02781e-308
	DD	065405H
	DD	imagerel find_extensionsGL
	DD	imagerel find_extensionsGL+178
	DD	imagerel $unwind$find_extensionsGL
xdata	ENDS
;	COMDAT xdata
xdata	SEGMENT
$unwind$find_extensionsGL DQ 00009741000061001r	; 1.31465e-308
	DQ	0f00c321000083410r		; -5.47176e+231
xdata	ENDS
;	COMDAT xdata
xdata	SEGMENT
$chain$2$find_coreGL DD 021H
	DD	imagerel find_coreGL
	DD	imagerel find_coreGL+97
	DD	imagerel $unwind$find_coreGL
xdata	ENDS
;	COMDAT xdata
xdata	SEGMENT
$chain$1$find_coreGL DQ 0000d540a00040a21r	; 1.85353e-308
	DD	0c3405H
	DD	imagerel find_coreGL
	DD	imagerel find_coreGL+97
	DD	imagerel $unwind$find_coreGL
xdata	ENDS
;	COMDAT xdata
xdata	SEGMENT
$unwind$find_coreGL DQ 0000f741000061f19r	; 2.14906e-308
	DQ	0e00c9210000e6410r		; -4.78836e+154
	DD	imagerel __GSHandlerCheck
	DD	048H
xdata	ENDS
;	COMDAT xdata
xdata	SEGMENT
$chain$2$gladLoadGLLoader DD 021H
	DD	imagerel $LN112@gladLoadGL
	DD	imagerel $LN112@gladLoadGL+4112
	DD	imagerel $unwind$gladLoadGLLoader
xdata	ENDS
;	COMDAT xdata
xdata	SEGMENT
$chain$1$gladLoadGLLoader DQ 00009640a00040a21r	; 1.30595e-308
	DD	085405H
	DD	imagerel $LN112@gladLoadGL
	DD	imagerel $LN112@gladLoadGL+4112
	DD	imagerel $unwind$gladLoadGLLoader
xdata	ENDS
;	COMDAT xdata
xdata	SEGMENT
$unwind$gladLoadGLLoader DQ 0000a340e00060e01r	; 1.41895e-308
	DQ	07006e008f00a320er		; 4.43926e+231
END
