; Listing generated by Microsoft (R) Optimizing Compiler Version 19.43.34808.0 

include listing.inc

INCLUDELIB OLDNAMES

PUBLIC	??_C@_06NPAAKFED@Player@			; `string'
PUBLIC	??_C@_0BL@KIBBLGEK@Mouse?5button?5state?5unknown@ ; `string'
PUBLIC	?g_jumpHeight@@3MA				; g_jumpHeight
PUBLIC	?swingingForward@@3_NA				; swingingForward
PUBLIC	?g_MouseState@@3UsMouseState@@A			; g_MouseState
PUBLIC	?swingingBackward@@3_NA				; swingingBackward
PUBLIC	?jumping@@3_NA					; jumping
EXTRN	glfwGetCursorPos:PROC
EXTRN	glfwSetWindowShouldClose:PROC
EXTRN	glfwGetKey:PROC
?g_jumpHeight@@3MA DD 01H DUP (?)			; g_jumpHeight
?g_MouseState@@3UsMouseState@@A DB 014H DUP (?)		; g_MouseState
?swingingBackward@@3_NA DB 01H DUP (?)			; swingingBackward
	ALIGN	4

?jumping@@3_NA DB 01H DUP (?)				; jumping
_BSS	ENDS
;	COMDAT ??_C@_0BL@KIBBLGEK@Mouse?5button?5state?5unknown@
CONST	SEGMENT
??_C@_0BL@KIBBLGEK@Mouse?5button?5state?5unknown@ DB 'Mouse button state '
	DB	'unknown', 00H				; `string'
CONST	ENDS
;	COMDAT ??_C@_06NPAAKFED@Player@
CONST	SEGMENT
??_C@_06NPAAKFED@Player@ DB 'Player', 00H		; `string'
?swingingForward@@3_NA DB 01H				; swingingForward
?_Fake_alloc@std@@3U_Fake_allocator@1@B	ORG $+1		; std::_Fake_alloc
PUBLIC	??$?GH$0A@@glm@@YA?AU?$vec@$01H$0A@@0@AEBU10@0@Z ; glm::operator-<int,0>
PUBLIC	??$?0HHH@?$vec@$02M$0A@@glm@@QEAA@HHH@Z		; glm::vec<3,float,0>::vec<3,float,0><int,int,int>
PUBLIC	?kineReset@@YAXXZ				; kineReset
PUBLIC	?kineJump@@YAXXZ				; kineJump
PUBLIC	?kineWalkBackward@@YAXXZ			; kineWalkBackward
PUBLIC	?kineWalkForward@@YAXXZ				; kineWalkForward
PUBLIC	?key_callback@@YAXPEAUGLFWwindow@@HHHH@Z	; key_callback
PUBLIC	?scroll_callback@@YAXPEAUGLFWwindow@@NN@Z	; scroll_callback
PUBLIC	?mouse_button_callback@@YAXPEAUGLFWwindow@@HHH@Z ; mouse_button_callback
PUBLIC	?cursor_enter_callback@@YAXPEAUGLFWwindow@@H@Z	; cursor_enter_callback
PUBLIC	?cursor_position_callback@@YAXPEAUGLFWwindow@@NN@Z ; cursor_position_callback
PUBLIC	?handleKeyboardAsync@@YAXPEAUGLFWwindow@@@Z	; handleKeyboardAsync
PUBLIC	?handleMouseAsync@@YAXPEAUGLFWwindow@@@Z	; handleMouseAsync
PUBLIC	?areAllModifiersUp@@YA_NPEAUGLFWwindow@@@Z	; areAllModifiersUp
PUBLIC	?isAltDown@@YA_NPEAUGLFWwindow@@@Z		; isAltDown
PUBLIC	?isControlDown@@YA_NPEAUGLFWwindow@@@Z		; isControlDown
PUBLIC	?isShiftDown@@YA_NPEAUGLFWwindow@@@Z		; isShiftDown
PUBLIC	??0?$vec@$01H$0A@@glm@@QEAA@HH@Z		; glm::vec<2,int,0>::vec<2,int,0>
;	COMDAT pdata
pdata	SEGMENT
$pdata$?kineReset@@YAXXZ DD imagerel $LN346@kineReset
	DD	imagerel $LN346@kineReset+506
	DD	imagerel $unwind$?kineReset@@YAXXZ
pdata	ENDS
;	COMDAT pdata
pdata	SEGMENT
$pdata$?kineJump@@YAXXZ DD imagerel $LN346@kineJump
	DD	imagerel $LN346@kineJump+512
	DD	imagerel $unwind$?kineJump@@YAXXZ
pdata	ENDS
;	COMDAT pdata
pdata	SEGMENT
$pdata$?kineWalkBackward@@YAXXZ DD imagerel $LN357@kineWalkBa
	DD	imagerel $LN357@kineWalkBa+685
	DD	imagerel $unwind$?kineWalkBackward@@YAXXZ
pdata	ENDS
;	COMDAT pdata
pdata	SEGMENT
$pdata$?kineWalkForward@@YAXXZ DD imagerel $LN357@kineWalkFo
	DD	imagerel $LN357@kineWalkFo+685
	DD	imagerel $unwind$?kineWalkForward@@YAXXZ
pdata	ENDS
;	COMDAT pdata
pdata	SEGMENT
$pdata$?key_callback@@YAXPEAUGLFWwindow@@HHHH@Z DD imagerel $LN559@key_callba
	DD	imagerel $LN559@key_callba+1041
	DD	imagerel $unwind$?key_callback@@YAXPEAUGLFWwindow@@HHHH@Z
pdata	ENDS
;	COMDAT pdata
pdata	SEGMENT
$pdata$?mouse_button_callback@@YAXPEAUGLFWwindow@@HHH@Z DD imagerel $LN10@mouse_butt
	DD	imagerel $LN10@mouse_butt+83
	DD	imagerel $unwind$?mouse_button_callback@@YAXPEAUGLFWwindow@@HHH@Z
pdata	ENDS
;	COMDAT pdata
pdata	SEGMENT
$pdata$?handleKeyboardAsync@@YAXPEAUGLFWwindow@@@Z DD imagerel $LN972@handleKeyb
	DD	imagerel $LN972@handleKeyb+3072
	DD	imagerel $unwind$?handleKeyboardAsync@@YAXPEAUGLFWwindow@@@Z
pdata	ENDS
;	COMDAT pdata
pdata	SEGMENT
$pdata$?handleMouseAsync@@YAXPEAUGLFWwindow@@@Z DD imagerel $LN4@handleMous
	DD	imagerel $LN4@handleMous+52
	DD	imagerel $unwind$?handleMouseAsync@@YAXPEAUGLFWwindow@@@Z
pdata	ENDS
;	COMDAT pdata
pdata	SEGMENT
$pdata$?areAllModifiersUp@@YA_NPEAUGLFWwindow@@@Z DD imagerel $LN28@areAllModi
	DD	imagerel $LN28@areAllModi+130
	DD	imagerel $unwind$?areAllModifiersUp@@YA_NPEAUGLFWwindow@@@Z
pdata	ENDS
;	COMDAT pdata
pdata	SEGMENT
$pdata$?isAltDown@@YA_NPEAUGLFWwindow@@@Z DD imagerel $LN7@isAltDown
	DD	imagerel $LN7@isAltDown+57
	DD	imagerel $unwind$?isAltDown@@YA_NPEAUGLFWwindow@@@Z
pdata	ENDS
;	COMDAT pdata
pdata	SEGMENT
$pdata$?isControlDown@@YA_NPEAUGLFWwindow@@@Z DD imagerel $LN7@isControlD
	DD	imagerel $LN7@isControlD+57
	DD	imagerel $unwind$?isControlDown@@YA_NPEAUGLFWwindow@@@Z
pdata	ENDS
;	COMDAT pdata
pdata	SEGMENT
$pdata$?isShiftDown@@YA_NPEAUGLFWwindow@@@Z DD imagerel $LN7@isShiftDow
	DD	imagerel $LN7@isShiftDow+57
	DD	imagerel $unwind$?isShiftDown@@YA_NPEAUGLFWwindow@@@Z
;	COMDAT xdata
xdata	SEGMENT
$unwind$?isShiftDown@@YA_NPEAUGLFWwindow@@@Z DQ 03002320600020601r ; 1.96423e-77
xdata	ENDS
;	COMDAT xdata
xdata	SEGMENT
$unwind$?isControlDown@@YA_NPEAUGLFWwindow@@@Z DQ 03002320600020601r ; 1.96423e-77
xdata	ENDS
;	COMDAT xdata
xdata	SEGMENT
$unwind$?isAltDown@@YA_NPEAUGLFWwindow@@@Z DQ 03002320600020601r ; 1.96423e-77
xdata	ENDS
;	COMDAT xdata
xdata	SEGMENT
$unwind$?areAllModifiersUp@@YA_NPEAUGLFWwindow@@@Z DQ 03002320600020601r ; 1.96423e-77
xdata	ENDS
;	COMDAT xdata
xdata	SEGMENT
$unwind$?handleMouseAsync@@YAXPEAUGLFWwindow@@@Z DQ 00000820400011319r ; 7.06285e-310
	DD	imagerel __GSHandlerCheck
	DD	030H
xdata	ENDS
;	COMDAT xdata
xdata	SEGMENT
$ip2state$?handleKeyboardAsync@@YAXPEAUGLFWwindow@@@Z DQ 040020d8d00049106r ; 2.25662
	DB	00H
xdata	ENDS
;	COMDAT xdata
xdata	SEGMENT
$stateUnwindMap$?handleKeyboardAsync@@YAXPEAUGLFWwindow@@@Z DW 0c02H
	DD	imagerel ??1?$basic_string@DU?$char_traits@D@std@@V?$allocator@D@2@@std@@QEAA@XZ
	DB	0a0H
xdata	ENDS
;	COMDAT xdata
xdata	SEGMENT
$cppxdata$?handleKeyboardAsync@@YAXPEAUGLFWwindow@@@Z DB 028H
	DD	imagerel $stateUnwindMap$?handleKeyboardAsync@@YAXPEAUGLFWwindow@@@Z
	DD	imagerel $ip2state$?handleKeyboardAsync@@YAXPEAUGLFWwindow@@@Z
xdata	ENDS
;	COMDAT xdata
xdata	SEGMENT
$unwind$?handleKeyboardAsync@@YAXPEAUGLFWwindow@@@Z DQ 0000af85b001f5b11r ; 1.52559e-308
	DQ	0000cd84b000be853r		; 1.7863e-308
	DQ	0000eb83b000dc843r		; 2.04702e-308
	DQ	000109831000fa836r		; 2.30775e-308
	DQ	0001278270011882cr		; 2.56848e-308
	DQ	0002f741f00136823r		; 8.74832e-308
	DQ	0002d341f002e641fr		; 8.12252e-308
	DQ	0e012f0140028011fr		; -6.34786e+154
	DD	05010H
	DD	imagerel __CxxFrameHandler4
	DD	imagerel $cppxdata$?handleKeyboardAsync@@YAXPEAUGLFWwindow@@@Z
xdata	ENDS
;	COMDAT xdata
xdata	SEGMENT
$unwind$?mouse_button_callback@@YAXPEAUGLFWwindow@@HHH@Z DQ 00000420400010401r ; 3.58617e-310
xdata	ENDS
;	COMDAT xdata
xdata	SEGMENT
$ip2state$?key_callback@@YAXPEAUGLFWwindow@@HHHH@Z DD 02042104H
	DW	02aH
xdata	ENDS
;	COMDAT xdata
xdata	SEGMENT
$stateUnwindMap$?key_callback@@YAXPEAUGLFWwindow@@HHHH@Z DW 0c02H
	DD	imagerel ??1?$basic_string@DU?$char_traits@D@std@@V?$allocator@D@2@@std@@QEAA@XZ
	DW	0221H
xdata	ENDS
;	COMDAT xdata
xdata	SEGMENT
$cppxdata$?key_callback@@YAXPEAUGLFWwindow@@HHHH@Z DB 028H
	DD	imagerel $stateUnwindMap$?key_callback@@YAXPEAUGLFWwindow@@HHHH@Z
	DD	imagerel $ip2state$?key_callback@@YAXPEAUGLFWwindow@@HHHH@Z
xdata	ENDS
;	COMDAT xdata
xdata	SEGMENT
$unwind$?key_callback@@YAXPEAUGLFWwindow@@HHHH@Z DQ 000197420000b2011r ; 3.53976e-308
	DQ	00017342000186420r		; 3.22686e-308
	DQ	0e012f01400120120r		; -6.34786e+154
	DD	05010H
	DD	imagerel __CxxFrameHandler4
	DD	imagerel $cppxdata$?key_callback@@YAXPEAUGLFWwindow@@HHHH@Z
xdata	ENDS
;	COMDAT xdata
xdata	SEGMENT
$unwind$?kineWalkForward@@YAXXZ DQ 00013741b000a1b01r ; 2.70535e-308
	DQ	00011341b0012641br		; 2.39245e-308
	DQ	05010e012f014b21br		; 4.88506e+77
xdata	ENDS
;	COMDAT xdata
xdata	SEGMENT
$unwind$?kineWalkBackward@@YAXXZ DQ 00013741b000a1b01r ; 2.70535e-308
	DQ	00011341b0012641br		; 2.39245e-308
	DQ	05010e012f014b21br		; 4.88506e+77
xdata	ENDS
;	COMDAT xdata
xdata	SEGMENT
$unwind$?kineJump@@YAXXZ DQ 00013741b000a1b01r	; 2.70535e-308
	DQ	00011341b0012641br		; 2.39245e-308
	DQ	05010e012f014b21br		; 4.88506e+77
xdata	ENDS
;	COMDAT xdata
xdata	SEGMENT
$unwind$?kineReset@@YAXXZ DQ 00013741b000a1b01r	; 2.70535e-308
	DQ	00011341b0012641br		; 2.39245e-308
	DQ	05010e012f014b21br		; 4.88506e+77
END
