; Listing generated by Microsoft (R) Optimizing Compiler Version 19.43.34808.0 

include listing.inc

INCLUDELIB OLDNAMES

PUBLIC	??_C@_0CO@BOKPICND@Error?3?5Can?8t?5reset?5the?5deferred@ ; `string'
PUBLIC	??_C@_0O@MNOJAJJ@matProjection@			; `string'
PUBLIC	??_C@_07LDFOPJGC@matView@			; `string'
PUBLIC	??_C@_0BA@KACKAAFH@bIsSkyBoxObject@		; `string'
PUBLIC	??_C@_07NBAEAHHE@DarkSky@			; `string'
PUBLIC	??_C@_0BF@MJLAMJAB@skyBoxTextureSampler@	; `string'
PUBLIC	??_C@_0P@GOLJHCME@shadowDepthMap@		; `string'
PUBLIC	??_C@_0BE@EBMOEKMB@bShowShadowDepthMap@		; `string'
;	COMDAT ??_C@_0BE@EBMOEKMB@bShowShadowDepthMap@
CONST	SEGMENT
??_C@_0BE@EBMOEKMB@bShowShadowDepthMap@ DB 'bShowShadowDepthMap', 00H ; `string'
CONST	ENDS
;	COMDAT ??_C@_0P@GOLJHCME@shadowDepthMap@
CONST	SEGMENT
??_C@_0P@GOLJHCME@shadowDepthMap@ DB 'shadowDepthMap', 00H ; `string'
CONST	ENDS
;	COMDAT ??_C@_0BF@MJLAMJAB@skyBoxTextureSampler@
CONST	SEGMENT
??_C@_0BF@MJLAMJAB@skyBoxTextureSampler@ DB 'skyBoxTextureSampler', 00H ; `string'
CONST	ENDS
;	COMDAT ??_C@_07NBAEAHHE@DarkSky@
CONST	SEGMENT
??_C@_07NBAEAHHE@DarkSky@ DB 'DarkSky', 00H		; `string'
CONST	ENDS
;	COMDAT ??_C@_0BA@KACKAAFH@bIsSkyBoxObject@
CONST	SEGMENT
??_C@_0BA@KACKAAFH@bIsSkyBoxObject@ DB 'bIsSkyBoxObject', 00H ; `string'
CONST	ENDS
;	COMDAT ??_C@_07LDFOPJGC@matView@
CONST	SEGMENT
??_C@_07LDFOPJGC@matView@ DB 'matView', 00H		; `string'
CONST	ENDS
;	COMDAT ??_C@_0O@MNOJAJJ@matProjection@
CONST	SEGMENT
??_C@_0O@MNOJAJJ@matProjection@ DB 'matProjection', 00H	; `string'
CONST	ENDS
;	COMDAT ??_C@_0CO@BOKPICND@Error?3?5Can?8t?5reset?5the?5deferred@
CONST	SEGMENT
??_C@_0CO@BOKPICND@Error?3?5Can?8t?5reset?5the?5deferred@ DB 'Error: Can'''
	DB	't reset the deferred FBO because: ', 00H	; `string'
?_Fake_alloc@std@@3U_Fake_allocator@1@B	ORG $+1		; std::_Fake_alloc
PUBLIC	??1?$pair@$$CBV?$basic_string@DU?$char_traits@D@std@@V?$allocator@D@2@@std@@U?$vec@$03M$0A@@glm@@@std@@QEAA@XZ ; std::pair<std::basic_string<char,std::char_traits<char>,std::allocator<char> > const ,glm::vec<4,float,0> >::~pair<std::basic_string<char,std::char_traits<char>,std::allocator<char> > const ,glm::vec<4,float,0> >
PUBLIC	??_G?$pair@$$CBV?$basic_string@DU?$char_traits@D@std@@V?$allocator@D@2@@std@@U?$vec@$03M$0A@@glm@@@std@@QEAAPEAXI@Z ; std::pair<std::basic_string<char,std::char_traits<char>,std::allocator<char> > const ,glm::vec<4,float,0> >::`scalar deleting destructor'
PUBLIC	??$destroy@U?$pair@$$CBV?$basic_string@DU?$char_traits@D@std@@V?$allocator@D@2@@std@@U?$vec@$03M$0A@@glm@@@std@@@?$_Default_allocator_traits@V?$allocator@U?$_Tree_node@U?$pair@$$CBV?$basic_string@DU?$char_traits@D@std@@V?$allocator@D@2@@std@@U?$vec@$03M$0A@@glm@@@std@@PEAX@std@@@std@@@std@@SAXAEAV?$allocator@U?$_Tree_node@U?$pair@$$CBV?$basic_string@DU?$char_traits@D@std@@V?$allocator@D@2@@std@@U?$vec@$03M$0A@@glm@@@std@@PEAX@std@@@1@QEAU?$pair@$$CBV?$basic_string@DU?$char_traits@D@std@@V?$allocator@D@2@@std@@U?$vec@$03M$0A@@glm@@@1@@Z ; std::_Default_allocator_traits<std::allocator<std::_Tree_node<std::pair<std::basic_string<char,std::char_traits<char>,std::allocator<char> > const ,glm::vec<4,float,0> >,void *> > >::destroy<std::pair<std::basic_string<char,std::char_traits<char>,std::allocator<char> > const ,glm::vec<4,float,0> > >
PUBLIC	??$addressof@U?$pair@$$CBV?$basic_string@DU?$char_traits@D@std@@V?$allocator@D@2@@std@@U?$vec@$03M$0A@@glm@@@std@@@std@@YAPEAU?$pair@$$CBV?$basic_string@DU?$char_traits@D@std@@V?$allocator@D@2@@std@@U?$vec@$03M$0A@@glm@@@0@AEAU10@@Z ; std::addressof<std::pair<std::basic_string<char,std::char_traits<char>,std::allocator<char> > const ,glm::vec<4,float,0> > >
PUBLIC	??$_Destroy_in_place@PEAU?$_Tree_node@U?$pair@$$CBV?$basic_string@DU?$char_traits@D@std@@V?$allocator@D@2@@std@@U?$vec@$03M$0A@@glm@@@std@@PEAX@std@@@std@@YAXAEAPEAU?$_Tree_node@U?$pair@$$CBV?$basic_string@DU?$char_traits@D@std@@V?$allocator@D@2@@std@@U?$vec@$03M$0A@@glm@@@std@@PEAX@0@@Z ; std::_Destroy_in_place<std::_Tree_node<std::pair<std::basic_string<char,std::char_traits<char>,std::allocator<char> > const ,glm::vec<4,float,0> >,void *> *>
PUBLIC	??$_Freenode@V?$allocator@U?$_Tree_node@U?$pair@$$CBV?$basic_string@DU?$char_traits@D@std@@V?$allocator@D@2@@std@@U?$vec@$03M$0A@@glm@@@std@@PEAX@std@@@std@@@?$_Tree_node@U?$pair@$$CBV?$basic_string@DU?$char_traits@D@std@@V?$allocator@D@2@@std@@U?$vec@$03M$0A@@glm@@@std@@PEAX@std@@SAXAEAV?$allocator@U?$_Tree_node@U?$pair@$$CBV?$basic_string@DU?$char_traits@D@std@@V?$allocator@D@2@@std@@U?$vec@$03M$0A@@glm@@@std@@PEAX@std@@@1@PEAU01@@Z ; std::_Tree_node<std::pair<std::basic_string<char,std::char_traits<char>,std::allocator<char> > const ,glm::vec<4,float,0> >,void *>::_Freenode<std::allocator<std::_Tree_node<std::pair<std::basic_string<char,std::char_traits<char>,std::allocator<char> > const ,glm::vec<4,float,0> >,void *> > >
PUBLIC	??$exchange@PEAU?$_Tree_node@U?$pair@$$CBV?$basic_string@DU?$char_traits@D@std@@V?$allocator@D@2@@std@@U?$vec@$03M$0A@@glm@@@std@@PEAX@std@@AEAPEAU12@@std@@YAPEAU?$_Tree_node@U?$pair@$$CBV?$basic_string@DU?$char_traits@D@std@@V?$allocator@D@2@@std@@U?$vec@$03M$0A@@glm@@@std@@PEAX@0@AEAPEAU10@0@Z ; std::exchange<std::_Tree_node<std::pair<std::basic_string<char,std::char_traits<char>,std::allocator<char> > const ,glm::vec<4,float,0> >,void *> *,std::_Tree_node<std::pair<std::basic_string<char,std::char_traits<char>,std::allocator<char> > const ,glm::vec<4,float,0> >,void *> * &>
PUBLIC	?deallocate@?$_Default_allocator_traits@V?$allocator@U?$_Tree_node@U?$pair@$$CBV?$basic_string@DU?$char_traits@D@std@@V?$allocator@D@2@@std@@U?$vec@$03M$0A@@glm@@@std@@PEAX@std@@@std@@@std@@SAXAEAV?$allocator@U?$_Tree_node@U?$pair@$$CBV?$basic_string@DU?$char_traits@D@std@@V?$allocator@D@2@@std@@U?$vec@$03M$0A@@glm@@@std@@PEAX@std@@@2@QEAU?$_Tree_node@U?$pair@$$CBV?$basic_string@DU?$char_traits@D@std@@V?$allocator@D@2@@std@@U?$vec@$03M$0A@@glm@@@std@@PEAX@2@_K@Z ; std::_Default_allocator_traits<std::allocator<std::_Tree_node<std::pair<std::basic_string<char,std::char_traits<char>,std::allocator<char> > const ,glm::vec<4,float,0> >,void *> > >::deallocate
PUBLIC	??$_Freenode0@V?$allocator@U?$_Tree_node@U?$pair@$$CBV?$basic_string@DU?$char_traits@D@std@@V?$allocator@D@2@@std@@U?$vec@$03M$0A@@glm@@@std@@PEAX@std@@@std@@@?$_Tree_node@U?$pair@$$CBV?$basic_string@DU?$char_traits@D@std@@V?$allocator@D@2@@std@@U?$vec@$03M$0A@@glm@@@std@@PEAX@std@@SAXAEAV?$allocator@U?$_Tree_node@U?$pair@$$CBV?$basic_string@DU?$char_traits@D@std@@V?$allocator@D@2@@std@@U?$vec@$03M$0A@@glm@@@std@@PEAX@std@@@1@PEAU01@@Z ; std::_Tree_node<std::pair<std::basic_string<char,std::char_traits<char>,std::allocator<char> > const ,glm::vec<4,float,0> >,void *>::_Freenode0<std::allocator<std::_Tree_node<std::pair<std::basic_string<char,std::char_traits<char>,std::allocator<char> > const ,glm::vec<4,float,0> >,void *> > >
PUBLIC	??$_Erase_tree@V?$allocator@U?$_Tree_node@U?$pair@$$CBV?$basic_string@DU?$char_traits@D@std@@V?$allocator@D@2@@std@@U?$vec@$03M$0A@@glm@@@std@@PEAX@std@@@std@@@?$_Tree_val@U?$_Tree_simple_types@U?$pair@$$CBV?$basic_string@DU?$char_traits@D@std@@V?$allocator@D@2@@std@@U?$vec@$03M$0A@@glm@@@std@@@std@@@std@@QEAAXAEAV?$allocator@U?$_Tree_node@U?$pair@$$CBV?$basic_string@DU?$char_traits@D@std@@V?$allocator@D@2@@std@@U?$vec@$03M$0A@@glm@@@std@@PEAX@std@@@1@PEAU?$_Tree_node@U?$pair@$$CBV?$basic_string@DU?$char_traits@D@std@@V?$allocator@D@2@@std@@U?$vec@$03M$0A@@glm@@@std@@PEAX@1@@Z ; std::_Tree_val<std::_Tree_simple_types<std::pair<std::basic_string<char,std::char_traits<char>,std::allocator<char> > const ,glm::vec<4,float,0> > > >::_Erase_tree<std::allocator<std::_Tree_node<std::pair<std::basic_string<char,std::char_traits<char>,std::allocator<char> > const ,glm::vec<4,float,0> >,void *> > >
PUBLIC	??$addressof@V?$_Tree_val@U?$_Tree_simple_types@U?$pair@$$CBV?$basic_string@DU?$char_traits@D@std@@V?$allocator@D@2@@std@@U?$vec@$03M$0A@@glm@@@std@@@std@@@std@@@std@@YAPEAV?$_Tree_val@U?$_Tree_simple_types@U?$pair@$$CBV?$basic_string@DU?$char_traits@D@std@@V?$allocator@D@2@@std@@U?$vec@$03M$0A@@glm@@@std@@@std@@@0@AEAV10@@Z ; std::addressof<std::_Tree_val<std::_Tree_simple_types<std::pair<std::basic_string<char,std::char_traits<char>,std::allocator<char> > const ,glm::vec<4,float,0> > > > >
PUBLIC	??$_Erase_head@V?$allocator@U?$_Tree_node@U?$pair@$$CBV?$basic_string@DU?$char_traits@D@std@@V?$allocator@D@2@@std@@U?$vec@$03M$0A@@glm@@@std@@PEAX@std@@@std@@@?$_Tree_val@U?$_Tree_simple_types@U?$pair@$$CBV?$basic_string@DU?$char_traits@D@std@@V?$allocator@D@2@@std@@U?$vec@$03M$0A@@glm@@@std@@@std@@@std@@QEAAXAEAV?$allocator@U?$_Tree_node@U?$pair@$$CBV?$basic_string@DU?$char_traits@D@std@@V?$allocator@D@2@@std@@U?$vec@$03M$0A@@glm@@@std@@PEAX@std@@@1@@Z ; std::_Tree_val<std::_Tree_simple_types<std::pair<std::basic_string<char,std::char_traits<char>,std::allocator<char> > const ,glm::vec<4,float,0> > > >::_Erase_head<std::allocator<std::_Tree_node<std::pair<std::basic_string<char,std::char_traits<char>,std::allocator<char> > const ,glm::vec<4,float,0> >,void *> > >
PUBLIC	?_Get_first@?$_Compressed_pair@V?$allocator@U?$_Tree_node@U?$pair@$$CBV?$basic_string@DU?$char_traits@D@std@@V?$allocator@D@2@@std@@U?$vec@$03M$0A@@glm@@@std@@PEAX@std@@@std@@V?$_Tree_val@U?$_Tree_simple_types@U?$pair@$$CBV?$basic_string@DU?$char_traits@D@std@@V?$allocator@D@2@@std@@U?$vec@$03M$0A@@glm@@@std@@@std@@@2@$00@std@@QEAAAEAV?$allocator@U?$_Tree_node@U?$pair@$$CBV?$basic_string@DU?$char_traits@D@std@@V?$allocator@D@2@@std@@U?$vec@$03M$0A@@glm@@@std@@PEAX@std@@@2@XZ ; std::_Compressed_pair<std::allocator<std::_Tree_node<std::pair<std::basic_string<char,std::char_traits<char>,std::allocator<char> > const ,glm::vec<4,float,0> >,void *> >,std::_Tree_val<std::_Tree_simple_types<std::pair<std::basic_string<char,std::char_traits<char>,std::allocator<char> > const ,glm::vec<4,float,0> > > >,1>::_Get_first
PUBLIC	?_Getal@?$_Tree@V?$_Tmap_traits@V?$basic_string@DU?$char_traits@D@std@@V?$allocator@D@2@@std@@U?$vec@$03M$0A@@glm@@U?$less@V?$basic_string@DU?$char_traits@D@std@@V?$allocator@D@2@@std@@@2@V?$allocator@U?$pair@$$CBV?$basic_string@DU?$char_traits@D@std@@V?$allocator@D@2@@std@@U?$vec@$03M$0A@@glm@@@std@@@2@$0A@@std@@@std@@IEAAAEAV?$allocator@U?$_Tree_node@U?$pair@$$CBV?$basic_string@DU?$char_traits@D@std@@V?$allocator@D@2@@std@@U?$vec@$03M$0A@@glm@@@std@@PEAX@std@@@2@XZ ; std::_Tree<std::_Tmap_traits<std::basic_string<char,std::char_traits<char>,std::allocator<char> >,glm::vec<4,float,0>,std::less<std::basic_string<char,std::char_traits<char>,std::allocator<char> > >,std::allocator<std::pair<std::basic_string<char,std::char_traits<char>,std::allocator<char> > const ,glm::vec<4,float,0> > >,0> >::_Getal
PUBLIC	?_Get_scary@?$_Tree@V?$_Tmap_traits@V?$basic_string@DU?$char_traits@D@std@@V?$allocator@D@2@@std@@U?$vec@$03M$0A@@glm@@U?$less@V?$basic_string@DU?$char_traits@D@std@@V?$allocator@D@2@@std@@@2@V?$allocator@U?$pair@$$CBV?$basic_string@DU?$char_traits@D@std@@V?$allocator@D@2@@std@@U?$vec@$03M$0A@@glm@@@std@@@2@$0A@@std@@@std@@IEAAPEAV?$_Tree_val@U?$_Tree_simple_types@U?$pair@$$CBV?$basic_string@DU?$char_traits@D@std@@V?$allocator@D@2@@std@@U?$vec@$03M$0A@@glm@@@std@@@std@@@2@XZ ; std::_Tree<std::_Tmap_traits<std::basic_string<char,std::char_traits<char>,std::allocator<char> >,glm::vec<4,float,0>,std::less<std::basic_string<char,std::char_traits<char>,std::allocator<char> > >,std::allocator<std::pair<std::basic_string<char,std::char_traits<char>,std::allocator<char> > const ,glm::vec<4,float,0> > >,0> >::_Get_scary
PUBLIC	??1?$_Tree@V?$_Tmap_traits@V?$basic_string@DU?$char_traits@D@std@@V?$allocator@D@2@@std@@U?$vec@$03M$0A@@glm@@U?$less@V?$basic_string@DU?$char_traits@D@std@@V?$allocator@D@2@@std@@@2@V?$allocator@U?$pair@$$CBV?$basic_string@DU?$char_traits@D@std@@V?$allocator@D@2@@std@@U?$vec@$03M$0A@@glm@@@std@@@2@$0A@@std@@@std@@QEAA@XZ ; std::_Tree<std::_Tmap_traits<std::basic_string<char,std::char_traits<char>,std::allocator<char> >,glm::vec<4,float,0>,std::less<std::basic_string<char,std::char_traits<char>,std::allocator<char> > >,std::allocator<std::pair<std::basic_string<char,std::char_traits<char>,std::allocator<char> > const ,glm::vec<4,float,0> > >,0> >::~_Tree<std::_Tmap_traits<std::basic_string<char,std::char_traits<char>,std::allocator<char> >,glm::vec<4,float,0>,std::less<std::basic_string<char,std::char_traits<char>,std::allocator<char> > >,std::allocator<std::pair<std::basic_string<char,std::char_traits<char>,std::allocator<char> > const ,glm::vec<4,float,0> > >,0> >
PUBLIC	??1?$map@V?$basic_string@DU?$char_traits@D@std@@V?$allocator@D@2@@std@@U?$vec@$03M$0A@@glm@@U?$less@V?$basic_string@DU?$char_traits@D@std@@V?$allocator@D@2@@std@@@2@V?$allocator@U?$pair@$$CBV?$basic_string@DU?$char_traits@D@std@@V?$allocator@D@2@@std@@U?$vec@$03M$0A@@glm@@@std@@@2@@std@@QEAA@XZ ; std::map<std::basic_string<char,std::char_traits<char>,std::allocator<char> >,glm::vec<4,float,0>,std::less<std::basic_string<char,std::char_traits<char>,std::allocator<char> > >,std::allocator<std::pair<std::basic_string<char,std::char_traits<char>,std::allocator<char> > const ,glm::vec<4,float,0> > > >::~map<std::basic_string<char,std::char_traits<char>,std::allocator<char> >,glm::vec<4,float,0>,std::less<std::basic_string<char,std::char_traits<char>,std::allocator<char> > >,std::allocator<std::pair<std::basic_string<char,std::char_traits<char>,std::allocator<char> > const ,glm::vec<4,float,0> > > >
PUBLIC	??1cPhysicsObjectTypes@@QEAA@XZ			; cPhysicsObjectTypes::~cPhysicsObjectTypes
PUBLIC	??_GcPhysicsObjectTypes@@QEAAPEAXI@Z		; cPhysicsObjectTypes::`scalar deleting destructor'
PUBLIC	??$destroy@VcPhysicsObjectTypes@@@?$_Default_allocator_traits@V?$allocator@VcPhysicsObjectTypes@@@std@@@std@@SAXAEAV?$allocator@VcPhysicsObjectTypes@@@1@QEAVcPhysicsObjectTypes@@@Z ; std::_Default_allocator_traits<std::allocator<cPhysicsObjectTypes> >::destroy<cPhysicsObjectTypes>
PUBLIC	??$_Unfancy@VcPhysicsObjectTypes@@@std@@YAPEAVcPhysicsObjectTypes@@PEAV1@@Z ; std::_Unfancy<cPhysicsObjectTypes>
PUBLIC	??$perspectiveRH_NO@M@glm@@YA?AU?$mat@$03$03M$0A@@0@MMMM@Z ; glm::perspectiveRH_NO<float>
PUBLIC	??0?$allocator@VcPhysicsObjectTypes@@@std@@QEAA@XZ ; std::allocator<cPhysicsObjectTypes>::allocator<cPhysicsObjectTypes>
PUBLIC	??0?$_Vector_val@U?$_Simple_types@VcPhysicsObjectTypes@@@std@@@std@@QEAA@XZ ; std::_Vector_val<std::_Simple_types<cPhysicsObjectTypes> >::_Vector_val<std::_Simple_types<cPhysicsObjectTypes> >
PUBLIC	??0?$allocator@PEAUcParticle@@@std@@QEAA@XZ	; std::allocator<cParticle *>::allocator<cParticle *>
PUBLIC	??0?$_Vector_val@U?$_Simple_types@PEAUcParticle@@@std@@@std@@QEAA@XZ ; std::_Vector_val<std::_Simple_types<cParticle *> >::_Vector_val<std::_Simple_types<cParticle *> >
PUBLIC	??$_Destroy_range@V?$allocator@VcPhysicsObjectTypes@@@std@@@std@@YAXPEAVcPhysicsObjectTypes@@QEAV1@AEAV?$allocator@VcPhysicsObjectTypes@@@0@@Z ; std::_Destroy_range<std::allocator<cPhysicsObjectTypes> >
PUBLIC	??$?0$$V@?$_Compressed_pair@V?$allocator@VcPhysicsObjectTypes@@@std@@V?$_Vector_val@U?$_Simple_types@VcPhysicsObjectTypes@@@std@@@2@$00@std@@QEAA@U_Zero_then_variadic_args_t@1@@Z ; std::_Compressed_pair<std::allocator<cPhysicsObjectTypes>,std::_Vector_val<std::_Simple_types<cPhysicsObjectTypes> >,1>::_Compressed_pair<std::allocator<cPhysicsObjectTypes>,std::_Vector_val<std::_Simple_types<cPhysicsObjectTypes> >,1><>
PUBLIC	??$_Unfancy_maybe_null@VcPhysicsObjectTypes@@@std@@YAPEAVcPhysicsObjectTypes@@PEAV1@@Z ; std::_Unfancy_maybe_null<cPhysicsObjectTypes>
PUBLIC	??$?0$$V@?$_Compressed_pair@V?$allocator@PEAUcParticle@@@std@@V?$_Vector_val@U?$_Simple_types@PEAUcParticle@@@std@@@2@$00@std@@QEAA@U_Zero_then_variadic_args_t@1@@Z ; std::_Compressed_pair<std::allocator<cParticle *>,std::_Vector_val<std::_Simple_types<cParticle *> >,1>::_Compressed_pair<std::allocator<cParticle *>,std::_Vector_val<std::_Simple_types<cParticle *> >,1><>
PUBLIC	??$_Unfancy_maybe_null@PEAUcParticle@@@std@@YAPEAPEAUcParticle@@PEAPEAU1@@Z ; std::_Unfancy_maybe_null<cParticle *>
PUBLIC	??$perspective@M@glm@@YA?AU?$mat@$03$03M$0A@@0@MMMM@Z ; glm::perspective<float>
PUBLIC	?_Get_first@?$_Compressed_pair@V?$allocator@VcPhysicsObjectTypes@@@std@@V?$_Vector_val@U?$_Simple_types@VcPhysicsObjectTypes@@@std@@@2@$00@std@@QEAAAEAV?$allocator@VcPhysicsObjectTypes@@@2@XZ ; std::_Compressed_pair<std::allocator<cPhysicsObjectTypes>,std::_Vector_val<std::_Simple_types<cPhysicsObjectTypes> >,1>::_Get_first
PUBLIC	?deallocate@?$allocator@VcPhysicsObjectTypes@@@std@@QEAAXQEAVcPhysicsObjectTypes@@_K@Z ; std::allocator<cPhysicsObjectTypes>::deallocate
PUBLIC	?_Getal@?$vector@VcPhysicsObjectTypes@@V?$allocator@VcPhysicsObjectTypes@@@std@@@std@@AEAAAEAV?$allocator@VcPhysicsObjectTypes@@@2@XZ ; std::vector<cPhysicsObjectTypes,std::allocator<cPhysicsObjectTypes> >::_Getal
PUBLIC	?_Tidy@?$vector@VcPhysicsObjectTypes@@V?$allocator@VcPhysicsObjectTypes@@@std@@@std@@AEAAXXZ ; std::vector<cPhysicsObjectTypes,std::allocator<cPhysicsObjectTypes> >::_Tidy
PUBLIC	?_Tidy@?$vector@PEAUcParticle@@V?$allocator@PEAUcParticle@@@std@@@std@@AEAAXXZ ; std::vector<cParticle *,std::allocator<cParticle *> >::_Tidy
PUBLIC	??0?$vector@VcPhysicsObjectTypes@@V?$allocator@VcPhysicsObjectTypes@@@std@@@std@@QEAA@XZ ; std::vector<cPhysicsObjectTypes,std::allocator<cPhysicsObjectTypes> >::vector<cPhysicsObjectTypes,std::allocator<cPhysicsObjectTypes> >
PUBLIC	??1?$vector@VcPhysicsObjectTypes@@V?$allocator@VcPhysicsObjectTypes@@@std@@@std@@QEAA@XZ ; std::vector<cPhysicsObjectTypes,std::allocator<cPhysicsObjectTypes> >::~vector<cPhysicsObjectTypes,std::allocator<cPhysicsObjectTypes> >
PUBLIC	?_Unchecked_begin@?$vector@VcPhysicsObjectTypes@@V?$allocator@VcPhysicsObjectTypes@@@std@@@std@@QEAAPEAVcPhysicsObjectTypes@@XZ ; std::vector<cPhysicsObjectTypes,std::allocator<cPhysicsObjectTypes> >::_Unchecked_begin
PUBLIC	?_Unchecked_end@?$vector@VcPhysicsObjectTypes@@V?$allocator@VcPhysicsObjectTypes@@@std@@@std@@QEAAPEAVcPhysicsObjectTypes@@XZ ; std::vector<cPhysicsObjectTypes,std::allocator<cPhysicsObjectTypes> >::_Unchecked_end
PUBLIC	??0?$vector@PEAUcParticle@@V?$allocator@PEAUcParticle@@@std@@@std@@QEAA@XZ ; std::vector<cParticle *,std::allocator<cParticle *> >::vector<cParticle *,std::allocator<cParticle *> >
PUBLIC	??1?$vector@PEAUcParticle@@V?$allocator@PEAUcParticle@@@std@@@std@@QEAA@XZ ; std::vector<cParticle *,std::allocator<cParticle *> >::~vector<cParticle *,std::allocator<cParticle *> >
PUBLIC	?_Unchecked_begin@?$vector@PEAUcParticle@@V?$allocator@PEAUcParticle@@@std@@@std@@QEAAPEAPEAUcParticle@@XZ ; std::vector<cParticle *,std::allocator<cParticle *> >::_Unchecked_begin
PUBLIC	?_Unchecked_end@?$vector@PEAUcParticle@@V?$allocator@PEAUcParticle@@@std@@@std@@QEAAPEAPEAUcParticle@@XZ ; std::vector<cParticle *,std::allocator<cParticle *> >::_Unchecked_end
PUBLIC	?__autoclassinit2@?$vector@PEAUcParticle@@V?$allocator@PEAUcParticle@@@std@@@std@@QEAAX_K@Z ; std::vector<cParticle *,std::allocator<cParticle *> >::__autoclassinit2
PUBLIC	?__autoclassinit2@?$vector@VcPhysicsObjectTypes@@V?$allocator@VcPhysicsObjectTypes@@@std@@@std@@QEAAX_K@Z ; std::vector<cPhysicsObjectTypes,std::allocator<cPhysicsObjectTypes> >::__autoclassinit2
PUBLIC	?RenderScene@@YAXIU?$mat@$03$03M$0A@@glm@@0MU?$vec@$02M$0A@@2@@Z ; RenderScene
PUBLIC	?window_size_callback@@YAXPEAUGLFWwindow@@HH@Z	; window_size_callback
PUBLIC	?tan@@YAMM@Z					; tan
PUBLIC	?isObjectACloserThanObjectB@@YA_NPEAUsMesh@@0@Z	; isObjectACloserThanObjectB
;	COMDAT pdata
pdata	SEGMENT
$pdata$??1?$pair@$$CBV?$basic_string@DU?$char_traits@D@std@@V?$allocator@D@2@@std@@U?$vec@$03M$0A@@glm@@@std@@QEAA@XZ DD imagerel $LN48@pair
	DD	imagerel $LN48@pair+95
	DD	imagerel $unwind$??1?$pair@$$CBV?$basic_string@DU?$char_traits@D@std@@V?$allocator@D@2@@std@@U?$vec@$03M$0A@@glm@@@std@@QEAA@XZ
pdata	ENDS
;	COMDAT pdata
pdata	SEGMENT
$pdata$??_G?$pair@$$CBV?$basic_string@DU?$char_traits@D@std@@V?$allocator@D@2@@std@@U?$vec@$03M$0A@@glm@@@std@@QEAAPEAXI@Z DD imagerel $LN55@scalar
	DD	imagerel $LN55@scalar+98
	DD	imagerel $unwind$??_G?$pair@$$CBV?$basic_string@DU?$char_traits@D@std@@V?$allocator@D@2@@std@@U?$vec@$03M$0A@@glm@@@std@@QEAAPEAXI@Z
pdata	ENDS
;	COMDAT pdata
pdata	SEGMENT
$pdata$??$destroy@U?$pair@$$CBV?$basic_string@DU?$char_traits@D@std@@V?$allocator@D@2@@std@@U?$vec@$03M$0A@@glm@@@std@@@?$_Default_allocator_traits@V?$allocator@U?$_Tree_node@U?$pair@$$CBV?$basic_string@DU?$char_traits@D@std@@V?$allocator@D@2@@std@@U?$vec@$03M$0A@@glm@@@std@@PEAX@std@@@std@@@std@@SAXAEAV?$allocator@U?$_Tree_node@U?$pair@$$CBV?$basic_string@DU?$char_traits@D@std@@V?$allocator@D@2@@std@@U?$vec@$03M$0A@@glm@@@std@@PEAX@std@@@1@QEAU?$pair@$$CBV?$basic_string@DU?$char_traits@D@std@@V?$allocator@D@2@@std@@U?$vec@$03M$0A@@glm@@@1@@Z DD imagerel $LN58@destroy
	DD	imagerel $LN58@destroy+95
	DD	imagerel $unwind$??$destroy@U?$pair@$$CBV?$basic_string@DU?$char_traits@D@std@@V?$allocator@D@2@@std@@U?$vec@$03M$0A@@glm@@@std@@@?$_Default_allocator_traits@V?$allocator@U?$_Tree_node@U?$pair@$$CBV?$basic_string@DU?$char_traits@D@std@@V?$allocator@D@2@@std@@U?$vec@$03M$0A@@glm@@@std@@PEAX@std@@@std@@@std@@SAXAEAV?$allocator@U?$_Tree_node@U?$pair@$$CBV?$basic_string@DU?$char_traits@D@std@@V?$allocator@D@2@@std@@U?$vec@$03M$0A@@glm@@@std@@PEAX@std@@@1@QEAU?$pair@$$CBV?$basic_string@DU?$char_traits@D@std@@V?$allocator@D@2@@std@@U?$vec@$03M$0A@@glm@@@1@@Z
pdata	ENDS
;	COMDAT pdata
pdata	SEGMENT
$pdata$??$_Freenode@V?$allocator@U?$_Tree_node@U?$pair@$$CBV?$basic_string@DU?$char_traits@D@std@@V?$allocator@D@2@@std@@U?$vec@$03M$0A@@glm@@@std@@PEAX@std@@@std@@@?$_Tree_node@U?$pair@$$CBV?$basic_string@DU?$char_traits@D@std@@V?$allocator@D@2@@std@@U?$vec@$03M$0A@@glm@@@std@@PEAX@std@@SAXAEAV?$allocator@U?$_Tree_node@U?$pair@$$CBV?$basic_string@DU?$char_traits@D@std@@V?$allocator@D@2@@std@@U?$vec@$03M$0A@@glm@@@std@@PEAX@std@@@1@PEAU01@@Z DD imagerel $LN85@Freenode
	DD	imagerel $LN85@Freenode+109
	DD	imagerel $unwind$??$_Freenode@V?$allocator@U?$_Tree_node@U?$pair@$$CBV?$basic_string@DU?$char_traits@D@std@@V?$allocator@D@2@@std@@U?$vec@$03M$0A@@glm@@@std@@PEAX@std@@@std@@@?$_Tree_node@U?$pair@$$CBV?$basic_string@DU?$char_traits@D@std@@V?$allocator@D@2@@std@@U?$vec@$03M$0A@@glm@@@std@@PEAX@std@@SAXAEAV?$allocator@U?$_Tree_node@U?$pair@$$CBV?$basic_string@DU?$char_traits@D@std@@V?$allocator@D@2@@std@@U?$vec@$03M$0A@@glm@@@std@@PEAX@std@@@1@PEAU01@@Z
pdata	ENDS
;	COMDAT pdata
pdata	SEGMENT
$pdata$??$_Erase_tree@V?$allocator@U?$_Tree_node@U?$pair@$$CBV?$basic_string@DU?$char_traits@D@std@@V?$allocator@D@2@@std@@U?$vec@$03M$0A@@glm@@@std@@PEAX@std@@@std@@@?$_Tree_val@U?$_Tree_simple_types@U?$pair@$$CBV?$basic_string@DU?$char_traits@D@std@@V?$allocator@D@2@@std@@U?$vec@$03M$0A@@glm@@@std@@@std@@@std@@QEAAXAEAV?$allocator@U?$_Tree_node@U?$pair@$$CBV?$basic_string@DU?$char_traits@D@std@@V?$allocator@D@2@@std@@U?$vec@$03M$0A@@glm@@@std@@PEAX@std@@@1@PEAU?$_Tree_node@U?$pair@$$CBV?$basic_string@DU?$char_traits@D@std@@V?$allocator@D@2@@std@@U?$vec@$03M$0A@@glm@@@std@@PEAX@1@@Z DD imagerel $LN102@Erase_tree
	DD	imagerel $LN102@Erase_tree+28
	DD	imagerel $unwind$??$_Erase_tree@V?$allocator@U?$_Tree_node@U?$pair@$$CBV?$basic_string@DU?$char_traits@D@std@@V?$allocator@D@2@@std@@U?$vec@$03M$0A@@glm@@@std@@PEAX@std@@@std@@@?$_Tree_val@U?$_Tree_simple_types@U?$pair@$$CBV?$basic_string@DU?$char_traits@D@std@@V?$allocator@D@2@@std@@U?$vec@$03M$0A@@glm@@@std@@@std@@@std@@QEAAXAEAV?$allocator@U?$_Tree_node@U?$pair@$$CBV?$basic_string@DU?$char_traits@D@std@@V?$allocator@D@2@@std@@U?$vec@$03M$0A@@glm@@@std@@PEAX@std@@@1@PEAU?$_Tree_node@U?$pair@$$CBV?$basic_string@DU?$char_traits@D@std@@V?$allocator@D@2@@std@@U?$vec@$03M$0A@@glm@@@std@@PEAX@1@@Z
pdata	ENDS
;	COMDAT pdata
pdata	SEGMENT
$pdata$1$??$_Erase_tree@V?$allocator@U?$_Tree_node@U?$pair@$$CBV?$basic_string@DU?$char_traits@D@std@@V?$allocator@D@2@@std@@U?$vec@$03M$0A@@glm@@@std@@PEAX@std@@@std@@@?$_Tree_val@U?$_Tree_simple_types@U?$pair@$$CBV?$basic_string@DU?$char_traits@D@std@@V?$allocator@D@2@@std@@U?$vec@$03M$0A@@glm@@@std@@@std@@@std@@QEAAXAEAV?$allocator@U?$_Tree_node@U?$pair@$$CBV?$basic_string@DU?$char_traits@D@std@@V?$allocator@D@2@@std@@U?$vec@$03M$0A@@glm@@@std@@PEAX@std@@@1@PEAU?$_Tree_node@U?$pair@$$CBV?$basic_string@DU?$char_traits@D@std@@V?$allocator@D@2@@std@@U?$vec@$03M$0A@@glm@@@std@@PEAX@1@@Z DD imagerel $LN102@Erase_tree+28
	DD	imagerel $LN102@Erase_tree+169
	DD	imagerel $chain$1$??$_Erase_tree@V?$allocator@U?$_Tree_node@U?$pair@$$CBV?$basic_string@DU?$char_traits@D@std@@V?$allocator@D@2@@std@@U?$vec@$03M$0A@@glm@@@std@@PEAX@std@@@std@@@?$_Tree_val@U?$_Tree_simple_types@U?$pair@$$CBV?$basic_string@DU?$char_traits@D@std@@V?$allocator@D@2@@std@@U?$vec@$03M$0A@@glm@@@std@@@std@@@std@@QEAAXAEAV?$allocator@U?$_Tree_node@U?$pair@$$CBV?$basic_string@DU?$char_traits@D@std@@V?$allocator@D@2@@std@@U?$vec@$03M$0A@@glm@@@std@@PEAX@std@@@1@PEAU?$_Tree_node@U?$pair@$$CBV?$basic_string@DU?$char_traits@D@std@@V?$allocator@D@2@@std@@U?$vec@$03M$0A@@glm@@@std@@PEAX@1@@Z
pdata	ENDS
;	COMDAT pdata
pdata	SEGMENT
$pdata$2$??$_Erase_tree@V?$allocator@U?$_Tree_node@U?$pair@$$CBV?$basic_string@DU?$char_traits@D@std@@V?$allocator@D@2@@std@@U?$vec@$03M$0A@@glm@@@std@@PEAX@std@@@std@@@?$_Tree_val@U?$_Tree_simple_types@U?$pair@$$CBV?$basic_string@DU?$char_traits@D@std@@V?$allocator@D@2@@std@@U?$vec@$03M$0A@@glm@@@std@@@std@@@std@@QEAAXAEAV?$allocator@U?$_Tree_node@U?$pair@$$CBV?$basic_string@DU?$char_traits@D@std@@V?$allocator@D@2@@std@@U?$vec@$03M$0A@@glm@@@std@@PEAX@std@@@1@PEAU?$_Tree_node@U?$pair@$$CBV?$basic_string@DU?$char_traits@D@std@@V?$allocator@D@2@@std@@U?$vec@$03M$0A@@glm@@@std@@PEAX@1@@Z DD imagerel $LN102@Erase_tree+169
	DD	imagerel $LN102@Erase_tree+177
	DD	imagerel $chain$2$??$_Erase_tree@V?$allocator@U?$_Tree_node@U?$pair@$$CBV?$basic_string@DU?$char_traits@D@std@@V?$allocator@D@2@@std@@U?$vec@$03M$0A@@glm@@@std@@PEAX@std@@@std@@@?$_Tree_val@U?$_Tree_simple_types@U?$pair@$$CBV?$basic_string@DU?$char_traits@D@std@@V?$allocator@D@2@@std@@U?$vec@$03M$0A@@glm@@@std@@@std@@@std@@QEAAXAEAV?$allocator@U?$_Tree_node@U?$pair@$$CBV?$basic_string@DU?$char_traits@D@std@@V?$allocator@D@2@@std@@U?$vec@$03M$0A@@glm@@@std@@PEAX@std@@@1@PEAU?$_Tree_node@U?$pair@$$CBV?$basic_string@DU?$char_traits@D@std@@V?$allocator@D@2@@std@@U?$vec@$03M$0A@@glm@@@std@@PEAX@1@@Z
pdata	ENDS
;	COMDAT pdata
pdata	SEGMENT
$pdata$3$??$_Erase_tree@V?$allocator@U?$_Tree_node@U?$pair@$$CBV?$basic_string@DU?$char_traits@D@std@@V?$allocator@D@2@@std@@U?$vec@$03M$0A@@glm@@@std@@PEAX@std@@@std@@@?$_Tree_val@U?$_Tree_simple_types@U?$pair@$$CBV?$basic_string@DU?$char_traits@D@std@@V?$allocator@D@2@@std@@U?$vec@$03M$0A@@glm@@@std@@@std@@@std@@QEAAXAEAV?$allocator@U?$_Tree_node@U?$pair@$$CBV?$basic_string@DU?$char_traits@D@std@@V?$allocator@D@2@@std@@U?$vec@$03M$0A@@glm@@@std@@PEAX@std@@@1@PEAU?$_Tree_node@U?$pair@$$CBV?$basic_string@DU?$char_traits@D@std@@V?$allocator@D@2@@std@@U?$vec@$03M$0A@@glm@@@std@@PEAX@1@@Z DD imagerel $LN102@Erase_tree+177
	DD	imagerel $LN102@Erase_tree+184
	DD	imagerel $chain$3$??$_Erase_tree@V?$allocator@U?$_Tree_node@U?$pair@$$CBV?$basic_string@DU?$char_traits@D@std@@V?$allocator@D@2@@std@@U?$vec@$03M$0A@@glm@@@std@@PEAX@std@@@std@@@?$_Tree_val@U?$_Tree_simple_types@U?$pair@$$CBV?$basic_string@DU?$char_traits@D@std@@V?$allocator@D@2@@std@@U?$vec@$03M$0A@@glm@@@std@@@std@@@std@@QEAAXAEAV?$allocator@U?$_Tree_node@U?$pair@$$CBV?$basic_string@DU?$char_traits@D@std@@V?$allocator@D@2@@std@@U?$vec@$03M$0A@@glm@@@std@@PEAX@std@@@1@PEAU?$_Tree_node@U?$pair@$$CBV?$basic_string@DU?$char_traits@D@std@@V?$allocator@D@2@@std@@U?$vec@$03M$0A@@glm@@@std@@PEAX@1@@Z
pdata	ENDS
;	COMDAT pdata
pdata	SEGMENT
$pdata$??$_Erase_head@V?$allocator@U?$_Tree_node@U?$pair@$$CBV?$basic_string@DU?$char_traits@D@std@@V?$allocator@D@2@@std@@U?$vec@$03M$0A@@glm@@@std@@PEAX@std@@@std@@@?$_Tree_val@U?$_Tree_simple_types@U?$pair@$$CBV?$basic_string@DU?$char_traits@D@std@@V?$allocator@D@2@@std@@U?$vec@$03M$0A@@glm@@@std@@@std@@@std@@QEAAXAEAV?$allocator@U?$_Tree_node@U?$pair@$$CBV?$basic_string@DU?$char_traits@D@std@@V?$allocator@D@2@@std@@U?$vec@$03M$0A@@glm@@@std@@PEAX@std@@@1@@Z DD imagerel $LN30@Erase_head
	DD	imagerel $LN30@Erase_head+39
	DD	imagerel $unwind$??$_Erase_head@V?$allocator@U?$_Tree_node@U?$pair@$$CBV?$basic_string@DU?$char_traits@D@std@@V?$allocator@D@2@@std@@U?$vec@$03M$0A@@glm@@@std@@PEAX@std@@@std@@@?$_Tree_val@U?$_Tree_simple_types@U?$pair@$$CBV?$basic_string@DU?$char_traits@D@std@@V?$allocator@D@2@@std@@U?$vec@$03M$0A@@glm@@@std@@@std@@@std@@QEAAXAEAV?$allocator@U?$_Tree_node@U?$pair@$$CBV?$basic_string@DU?$char_traits@D@std@@V?$allocator@D@2@@std@@U?$vec@$03M$0A@@glm@@@std@@PEAX@std@@@1@@Z
pdata	ENDS
;	COMDAT pdata
pdata	SEGMENT
$pdata$??1?$_Tree@V?$_Tmap_traits@V?$basic_string@DU?$char_traits@D@std@@V?$allocator@D@2@@std@@U?$vec@$03M$0A@@glm@@U?$less@V?$basic_string@DU?$char_traits@D@std@@V?$allocator@D@2@@std@@@2@V?$allocator@U?$pair@$$CBV?$basic_string@DU?$char_traits@D@std@@V?$allocator@D@2@@std@@U?$vec@$03M$0A@@glm@@@std@@@2@$0A@@std@@@std@@QEAA@XZ DD imagerel $LN34@Tree
	DD	imagerel $LN34@Tree+42
	DD	imagerel $unwind$??1?$_Tree@V?$_Tmap_traits@V?$basic_string@DU?$char_traits@D@std@@V?$allocator@D@2@@std@@U?$vec@$03M$0A@@glm@@U?$less@V?$basic_string@DU?$char_traits@D@std@@V?$allocator@D@2@@std@@@2@V?$allocator@U?$pair@$$CBV?$basic_string@DU?$char_traits@D@std@@V?$allocator@D@2@@std@@U?$vec@$03M$0A@@glm@@@std@@@2@$0A@@std@@@std@@QEAA@XZ
pdata	ENDS
;	COMDAT pdata
pdata	SEGMENT
$pdata$??1?$map@V?$basic_string@DU?$char_traits@D@std@@V?$allocator@D@2@@std@@U?$vec@$03M$0A@@glm@@U?$less@V?$basic_string@DU?$char_traits@D@std@@V?$allocator@D@2@@std@@@2@V?$allocator@U?$pair@$$CBV?$basic_string@DU?$char_traits@D@std@@V?$allocator@D@2@@std@@U?$vec@$03M$0A@@glm@@@std@@@2@@std@@QEAA@XZ DD imagerel $LN38@map
	DD	imagerel $LN38@map+42
	DD	imagerel $unwind$??1?$map@V?$basic_string@DU?$char_traits@D@std@@V?$allocator@D@2@@std@@U?$vec@$03M$0A@@glm@@U?$less@V?$basic_string@DU?$char_traits@D@std@@V?$allocator@D@2@@std@@@2@V?$allocator@U?$pair@$$CBV?$basic_string@DU?$char_traits@D@std@@V?$allocator@D@2@@std@@U?$vec@$03M$0A@@glm@@@std@@@2@@std@@QEAA@XZ
pdata	ENDS
;	COMDAT pdata
pdata	SEGMENT
$pdata$??1cPhysicsObjectTypes@@QEAA@XZ DD imagerel $LN85@cPhysicsOb
	DD	imagerel $LN85@cPhysicsOb+131
	DD	imagerel $unwind$??1cPhysicsObjectTypes@@QEAA@XZ
pdata	ENDS
;	COMDAT pdata
pdata	SEGMENT
$pdata$??_GcPhysicsObjectTypes@@QEAAPEAXI@Z DD imagerel $LN92@scalar
	DD	imagerel $LN92@scalar+96
	DD	imagerel $unwind$??_GcPhysicsObjectTypes@@QEAAPEAXI@Z
pdata	ENDS
;	COMDAT pdata
pdata	SEGMENT
$pdata$0$??_GcPhysicsObjectTypes@@QEAAPEAXI@Z DD imagerel $LN92@scalar+96
	DD	imagerel $LN92@scalar+138
	DD	imagerel $chain$0$??_GcPhysicsObjectTypes@@QEAAPEAXI@Z
pdata	ENDS
;	COMDAT pdata
pdata	SEGMENT
$pdata$1$??_GcPhysicsObjectTypes@@QEAAPEAXI@Z DD imagerel $LN92@scalar+138
	DD	imagerel $LN92@scalar+145
	DD	imagerel $chain$1$??_GcPhysicsObjectTypes@@QEAAPEAXI@Z
pdata	ENDS
;	COMDAT pdata
pdata	SEGMENT
$pdata$??$perspectiveRH_NO@M@glm@@YA?AU?$mat@$03$03M$0A@@0@MMMM@Z DD imagerel $LN78@perspectiv
	DD	imagerel $LN78@perspectiv+198
	DD	imagerel $unwind$??$perspectiveRH_NO@M@glm@@YA?AU?$mat@$03$03M$0A@@0@MMMM@Z
pdata	ENDS
;	COMDAT pdata
pdata	SEGMENT
$pdata$??$_Destroy_range@V?$allocator@VcPhysicsObjectTypes@@@std@@@std@@YAXPEAVcPhysicsObjectTypes@@QEAV1@AEAV?$allocator@VcPhysicsObjectTypes@@@0@@Z DD imagerel $LN21@Destroy_ra
	DD	imagerel $LN21@Destroy_ra+49
	DD	imagerel $unwind$??$_Destroy_range@V?$allocator@VcPhysicsObjectTypes@@@std@@@std@@YAXPEAVcPhysicsObjectTypes@@QEAV1@AEAV?$allocator@VcPhysicsObjectTypes@@@0@@Z
pdata	ENDS
;	COMDAT pdata
pdata	SEGMENT
$pdata$??$perspective@M@glm@@YA?AU?$mat@$03$03M$0A@@0@MMMM@Z DD imagerel $LN80@perspectiv
	DD	imagerel $LN80@perspectiv+198
	DD	imagerel $unwind$??$perspective@M@glm@@YA?AU?$mat@$03$03M$0A@@0@MMMM@Z
pdata	ENDS
;	COMDAT pdata
pdata	SEGMENT
$pdata$?deallocate@?$allocator@VcPhysicsObjectTypes@@@std@@QEAAXQEAVcPhysicsObjectTypes@@_K@Z DD imagerel $LN23@deallocate
	DD	imagerel $LN23@deallocate+63
	DD	imagerel $unwind$?deallocate@?$allocator@VcPhysicsObjectTypes@@@std@@QEAAXQEAVcPhysicsObjectTypes@@_K@Z
pdata	ENDS
;	COMDAT pdata
pdata	SEGMENT
$pdata$?_Tidy@?$vector@VcPhysicsObjectTypes@@V?$allocator@VcPhysicsObjectTypes@@@std@@@std@@AEAAXXZ DD imagerel $LN48@Tidy
	DD	imagerel $LN48@Tidy+25
	DD	imagerel $unwind$?_Tidy@?$vector@VcPhysicsObjectTypes@@V?$allocator@VcPhysicsObjectTypes@@@std@@@std@@AEAAXXZ
pdata	ENDS
;	COMDAT pdata
pdata	SEGMENT
$pdata$0$?_Tidy@?$vector@VcPhysicsObjectTypes@@V?$allocator@VcPhysicsObjectTypes@@@std@@@std@@AEAAXXZ DD imagerel $LN48@Tidy+25
	DD	imagerel $LN48@Tidy+114
	DD	imagerel $chain$0$?_Tidy@?$vector@VcPhysicsObjectTypes@@V?$allocator@VcPhysicsObjectTypes@@@std@@@std@@AEAAXXZ
pdata	ENDS
;	COMDAT pdata
pdata	SEGMENT
$pdata$1$?_Tidy@?$vector@VcPhysicsObjectTypes@@V?$allocator@VcPhysicsObjectTypes@@@std@@@std@@AEAAXXZ DD imagerel $LN48@Tidy+114
	DD	imagerel $LN48@Tidy+177
	DD	imagerel $chain$1$?_Tidy@?$vector@VcPhysicsObjectTypes@@V?$allocator@VcPhysicsObjectTypes@@@std@@@std@@AEAAXXZ
pdata	ENDS
;	COMDAT pdata
pdata	SEGMENT
$pdata$?_Tidy@?$vector@PEAUcParticle@@V?$allocator@PEAUcParticle@@@std@@@std@@AEAAXXZ DD imagerel $LN31@Tidy
	DD	imagerel $LN31@Tidy+92
	DD	imagerel $unwind$?_Tidy@?$vector@PEAUcParticle@@V?$allocator@PEAUcParticle@@@std@@@std@@AEAAXXZ
pdata	ENDS
;	COMDAT pdata
pdata	SEGMENT
$pdata$??1?$vector@VcPhysicsObjectTypes@@V?$allocator@VcPhysicsObjectTypes@@@std@@@std@@QEAA@XZ DD imagerel $LN52@vector
	DD	imagerel $LN52@vector+25
	DD	imagerel $unwind$??1?$vector@VcPhysicsObjectTypes@@V?$allocator@VcPhysicsObjectTypes@@@std@@@std@@QEAA@XZ
pdata	ENDS
;	COMDAT pdata
pdata	SEGMENT
$pdata$0$??1?$vector@VcPhysicsObjectTypes@@V?$allocator@VcPhysicsObjectTypes@@@std@@@std@@QEAA@XZ DD imagerel $LN52@vector+25
	DD	imagerel $LN52@vector+114
	DD	imagerel $chain$0$??1?$vector@VcPhysicsObjectTypes@@V?$allocator@VcPhysicsObjectTypes@@@std@@@std@@QEAA@XZ
pdata	ENDS
;	COMDAT pdata
pdata	SEGMENT
$pdata$1$??1?$vector@VcPhysicsObjectTypes@@V?$allocator@VcPhysicsObjectTypes@@@std@@@std@@QEAA@XZ DD imagerel $LN52@vector+114
	DD	imagerel $LN52@vector+177
	DD	imagerel $chain$1$??1?$vector@VcPhysicsObjectTypes@@V?$allocator@VcPhysicsObjectTypes@@@std@@@std@@QEAA@XZ
pdata	ENDS
;	COMDAT pdata
pdata	SEGMENT
$pdata$??1?$vector@PEAUcParticle@@V?$allocator@PEAUcParticle@@@std@@@std@@QEAA@XZ DD imagerel $LN35@vector
	DD	imagerel $LN35@vector+92
	DD	imagerel $unwind$??1?$vector@PEAUcParticle@@V?$allocator@PEAUcParticle@@@std@@@std@@QEAA@XZ
pdata	ENDS
;	COMDAT pdata
pdata	SEGMENT
$pdata$?RenderScene@@YAXIU?$mat@$03$03M$0A@@glm@@0MU?$vec@$02M$0A@@2@@Z DD imagerel $LN1385@RenderScen
	DD	imagerel $LN1385@RenderScen+4952
	DD	imagerel $unwind$?RenderScene@@YAXIU?$mat@$03$03M$0A@@glm@@0MU?$vec@$02M$0A@@2@@Z
pdata	ENDS
;	COMDAT pdata
pdata	SEGMENT
$pdata$?window_size_callback@@YAXPEAUGLFWwindow@@HH@Z DD imagerel $LN90@window_siz
	DD	imagerel $LN90@window_siz+300
	DD	imagerel $unwind$?window_size_callback@@YAXPEAUGLFWwindow@@HH@Z
pdata	ENDS
;	COMDAT pdata
pdata	SEGMENT
$pdata$?isObjectACloserThanObjectB@@YA_NPEAUsMesh@@0@Z DD imagerel $LN110@isObjectAC
	DD	imagerel $LN110@isObjectAC+250
	DD	imagerel $unwind$?isObjectACloserThanObjectB@@YA_NPEAUsMesh@@0@Z
;	COMDAT xdata
xdata	SEGMENT
$unwind$?isObjectACloserThanObjectB@@YA_NPEAUsMesh@@0@Z DQ 00003987200097201r ; 5.00014e-309
	DQ	00005784600048859r		; 7.60672e-309
	DQ	00000e20400066829r		; 1.22779e-309
xdata	ENDS
;	COMDAT xdata
xdata	SEGMENT
$ip2state$?window_size_callback@@YAXPEAUGLFWwindow@@HH@Z DD 0f402aa04H
	DB	00H
xdata	ENDS
;	COMDAT xdata
xdata	SEGMENT
$stateUnwindMap$?window_size_callback@@YAXPEAUGLFWwindow@@HH@Z DW 0a02H
	DD	imagerel ??1?$basic_string@DU?$char_traits@D@std@@V?$allocator@D@2@@std@@QEAA@XZ
	DB	040H
xdata	ENDS
;	COMDAT xdata
xdata	SEGMENT
$cppxdata$?window_size_callback@@YAXPEAUGLFWwindow@@HH@Z DB 028H
	DD	imagerel $stateUnwindMap$?window_size_callback@@YAXPEAUGLFWwindow@@HH@Z
	DD	imagerel $ip2state$?window_size_callback@@YAXPEAUGLFWwindow@@HH@Z
xdata	ENDS
;	COMDAT xdata
xdata	SEGMENT
$unwind$?window_size_callback@@YAXPEAUGLFWwindow@@HH@Z DQ 0000d640f00061e19r ; 1.86223e-308
	DQ	0700b920f000c340fr		; 5.35047e+231
	DD	imagerel __GSHandlerCheck_EH4
	DD	imagerel $cppxdata$?window_size_callback@@YAXPEAUGLFWwindow@@HH@Z
	DD	042H
xdata	ENDS
;	COMDAT xdata
xdata	SEGMENT
$ip2state$?RenderScene@@YAXIU?$mat@$03$03M$0A@@glm@@0MU?$vec@$02M$0A@@2@@Z DQ 00fd5020f0900dc0er ; 2.11431e-232
	DQ	0650a03590603a504r		; 5.27059e+178
	DD	0861081cH
	DB	00H
xdata	ENDS
;	COMDAT xdata
xdata	SEGMENT
$stateUnwindMap$?RenderScene@@YAXIU?$mat@$03$03M$0A@@glm@@0MU?$vec@$02M$0A@@2@@Z DW 0a0aH
	DD	imagerel ??1?$vector@VcPhysicsObjectTypes@@V?$allocator@VcPhysicsObjectTypes@@@std@@@std@@QEAA@XZ
	DW	0741H
	DB	03aH
	DD	imagerel ??1?$vector@PEAUcParticle@@V?$allocator@PEAUcParticle@@@std@@@std@@QEAA@XZ
	DW	06e1H
	DB	03aH
	DD	imagerel ??1?$vector@PEAUsMesh@@V?$allocator@PEAUsMesh@@@std@@@std@@QEAA@XZ
	DW	0621H
	DB	03aH
	DD	imagerel ??1?$vector@PEAUsMesh@@V?$allocator@PEAUsMesh@@@std@@@std@@QEAA@XZ
	DW	05c1H
	DB	03aH
	DD	imagerel ??1?$vector@PEAUsMesh@@V?$allocator@PEAUsMesh@@@std@@@std@@QEAA@XZ
	DW	0681H
xdata	ENDS
;	COMDAT xdata
xdata	SEGMENT
$cppxdata$?RenderScene@@YAXIU?$mat@$03$03M$0A@@glm@@0MU?$vec@$02M$0A@@2@@Z DB 028H
	DD	imagerel $stateUnwindMap$?RenderScene@@YAXIU?$mat@$03$03M$0A@@glm@@0MU?$vec@$02M$0A@@2@@Z
	DD	imagerel $ip2state$?RenderScene@@YAXIU?$mat@$03$03M$0A@@glm@@0MU?$vec@$02M$0A@@2@@Z
xdata	ENDS
;	COMDAT xdata
xdata	SEGMENT
$unwind$?RenderScene@@YAXIU?$mat@$03$03M$0A@@glm@@0MU?$vec@$02M$0A@@2@@Z DQ 00024c84a00195b19r ; 5.78029e-308
	DQ	00026a83a0025b842r		; 6.30172e-308
	DQ	00028882d00279832r		; 6.82317e-308
	DQ	0002a682400297828r		; 7.34463e-308
	DQ	00056012000613420r		; 4.89614e-307
	DQ	0c00cd00ee010f012r		; -3.60159
	DQ	0000050086009700ar		; 4.34762e-310
	DD	imagerel __GSHandlerCheck_EH4
	DD	imagerel $cppxdata$?RenderScene@@YAXIU?$mat@$03$03M$0A@@glm@@0MU?$vec@$02M$0A@@2@@Z
	DD	0232H
xdata	ENDS
;	COMDAT xdata
xdata	SEGMENT
$unwind$??1?$vector@PEAUcParticle@@V?$allocator@PEAUcParticle@@@std@@@std@@QEAA@XZ DQ 03002320600020601r ; 1.96423e-77
xdata	ENDS
;	COMDAT xdata
xdata	SEGMENT
$chain$1$??1?$vector@VcPhysicsObjectTypes@@V?$allocator@VcPhysicsObjectTypes@@@std@@@std@@QEAA@XZ DD 021H
	DD	imagerel $LN52@vector
	DD	imagerel $LN52@vector+25
	DD	imagerel $unwind$??1?$vector@VcPhysicsObjectTypes@@V?$allocator@VcPhysicsObjectTypes@@@std@@@std@@QEAA@XZ
xdata	ENDS
;	COMDAT xdata
xdata	SEGMENT
$chain$0$??1?$vector@VcPhysicsObjectTypes@@V?$allocator@VcPhysicsObjectTypes@@@std@@@std@@QEAA@XZ DQ 00007740500020521r ; 1.0365e-308
	DD	imagerel $LN52@vector
	DD	imagerel $LN52@vector+25
	DD	imagerel $unwind$??1?$vector@VcPhysicsObjectTypes@@V?$allocator@VcPhysicsObjectTypes@@@std@@@std@@QEAA@XZ
xdata	ENDS
;	COMDAT xdata
xdata	SEGMENT
$unwind$??1?$vector@VcPhysicsObjectTypes@@V?$allocator@VcPhysicsObjectTypes@@@std@@@std@@QEAA@XZ DQ 00008340a00040a01r ; 1.14081e-308
	DD	06006320aH
xdata	ENDS
;	COMDAT xdata
xdata	SEGMENT
$unwind$?_Tidy@?$vector@PEAUcParticle@@V?$allocator@PEAUcParticle@@@std@@@std@@AEAAXXZ DQ 03002320600020601r ; 1.96423e-77
xdata	ENDS
;	COMDAT xdata
xdata	SEGMENT
$chain$1$?_Tidy@?$vector@VcPhysicsObjectTypes@@V?$allocator@VcPhysicsObjectTypes@@@std@@@std@@AEAAXXZ DD 021H
	DD	imagerel $LN48@Tidy
	DD	imagerel $LN48@Tidy+25
	DD	imagerel $unwind$?_Tidy@?$vector@VcPhysicsObjectTypes@@V?$allocator@VcPhysicsObjectTypes@@@std@@@std@@AEAAXXZ
xdata	ENDS
;	COMDAT xdata
xdata	SEGMENT
$chain$0$?_Tidy@?$vector@VcPhysicsObjectTypes@@V?$allocator@VcPhysicsObjectTypes@@@std@@@std@@AEAAXXZ DQ 00007740500020521r ; 1.0365e-308
	DD	imagerel $LN48@Tidy
	DD	imagerel $LN48@Tidy+25
	DD	imagerel $unwind$?_Tidy@?$vector@VcPhysicsObjectTypes@@V?$allocator@VcPhysicsObjectTypes@@@std@@@std@@AEAAXXZ
xdata	ENDS
;	COMDAT xdata
xdata	SEGMENT
$unwind$?_Tidy@?$vector@VcPhysicsObjectTypes@@V?$allocator@VcPhysicsObjectTypes@@@std@@@std@@AEAAXXZ DQ 00008340a00040a01r ; 1.14081e-308
	DD	06006320aH
xdata	ENDS
;	COMDAT xdata
xdata	SEGMENT
$unwind$?deallocate@?$allocator@VcPhysicsObjectTypes@@@std@@QEAAXQEAVcPhysicsObjectTypes@@_K@Z DQ 00000420400010401r ; 3.58617e-310
xdata	ENDS
;	COMDAT xdata
xdata	SEGMENT
$unwind$??$perspective@M@glm@@YA?AU?$mat@$03$03M$0A@@0@MMMM@Z DQ 00002781e00061e01r ; 3.43386e-309
	DQ	03002720600036816r		; 1.99122e-77
xdata	ENDS
;	COMDAT xdata
xdata	SEGMENT
$unwind$??$_Destroy_range@V?$allocator@VcPhysicsObjectTypes@@@std@@@std@@YAXPEAVcPhysicsObjectTypes@@QEAV1@AEAV?$allocator@VcPhysicsObjectTypes@@@0@@Z DQ 00006340f00040f01r ; 8.62683e-309
	DD	0700b320fH
xdata	ENDS
;	COMDAT xdata
xdata	SEGMENT
$unwind$??$perspectiveRH_NO@M@glm@@YA?AU?$mat@$03$03M$0A@@0@MMMM@Z DQ 00002781e00061e01r ; 3.43386e-309
	DQ	03002720600036816r		; 1.99122e-77
xdata	ENDS
;	COMDAT xdata
xdata	SEGMENT
$chain$1$??_GcPhysicsObjectTypes@@QEAAPEAXI@Z DD 021H
	DD	imagerel $LN92@scalar
	DD	imagerel $LN92@scalar+96
	DD	imagerel $unwind$??_GcPhysicsObjectTypes@@QEAAPEAXI@Z
xdata	ENDS
;	COMDAT xdata
xdata	SEGMENT
$chain$0$??_GcPhysicsObjectTypes@@QEAAPEAXI@Z DQ 00007340500020521r ; 1.00173e-308
	DD	imagerel $LN92@scalar
	DD	imagerel $LN92@scalar+96
	DD	imagerel $unwind$??_GcPhysicsObjectTypes@@QEAAPEAXI@Z
xdata	ENDS
;	COMDAT xdata
xdata	SEGMENT
$unwind$??_GcPhysicsObjectTypes@@QEAAPEAXI@Z DQ 07002320600020601r ; 3.53109e+231
xdata	ENDS
;	COMDAT xdata
xdata	SEGMENT
$unwind$??1cPhysicsObjectTypes@@QEAA@XZ DQ 03002320600020601r ; 1.96423e-77
xdata	ENDS
;	COMDAT xdata
xdata	SEGMENT
$unwind$??1?$map@V?$basic_string@DU?$char_traits@D@std@@V?$allocator@D@2@@std@@U?$vec@$03M$0A@@glm@@U?$less@V?$basic_string@DU?$char_traits@D@std@@V?$allocator@D@2@@std@@@2@V?$allocator@U?$pair@$$CBV?$basic_string@DU?$char_traits@D@std@@V?$allocator@D@2@@std@@U?$vec@$03M$0A@@glm@@@std@@@2@@std@@QEAA@XZ DQ 03002320600020601r ; 1.96423e-77
xdata	ENDS
;	COMDAT xdata
xdata	SEGMENT
$unwind$??1?$_Tree@V?$_Tmap_traits@V?$basic_string@DU?$char_traits@D@std@@V?$allocator@D@2@@std@@U?$vec@$03M$0A@@glm@@U?$less@V?$basic_string@DU?$char_traits@D@std@@V?$allocator@D@2@@std@@@2@V?$allocator@U?$pair@$$CBV?$basic_string@DU?$char_traits@D@std@@V?$allocator@D@2@@std@@U?$vec@$03M$0A@@glm@@@std@@@2@$0A@@std@@@std@@QEAA@XZ DQ 03002320600020601r ; 1.96423e-77
xdata	ENDS
;	COMDAT xdata
xdata	SEGMENT
$unwind$??$_Erase_head@V?$allocator@U?$_Tree_node@U?$pair@$$CBV?$basic_string@DU?$char_traits@D@std@@V?$allocator@D@2@@std@@U?$vec@$03M$0A@@glm@@@std@@PEAX@std@@@std@@@?$_Tree_val@U?$_Tree_simple_types@U?$pair@$$CBV?$basic_string@DU?$char_traits@D@std@@V?$allocator@D@2@@std@@U?$vec@$03M$0A@@glm@@@std@@@std@@@std@@QEAAXAEAV?$allocator@U?$_Tree_node@U?$pair@$$CBV?$basic_string@DU?$char_traits@D@std@@V?$allocator@D@2@@std@@U?$vec@$03M$0A@@glm@@@std@@PEAX@std@@@1@@Z DQ 03002320600020601r ; 1.96423e-77
xdata	ENDS
;	COMDAT xdata
xdata	SEGMENT
$chain$3$??$_Erase_tree@V?$allocator@U?$_Tree_node@U?$pair@$$CBV?$basic_string@DU?$char_traits@D@std@@V?$allocator@D@2@@std@@U?$vec@$03M$0A@@glm@@@std@@PEAX@std@@@std@@@?$_Tree_val@U?$_Tree_simple_types@U?$pair@$$CBV?$basic_string@DU?$char_traits@D@std@@V?$allocator@D@2@@std@@U?$vec@$03M$0A@@glm@@@std@@@std@@@std@@QEAAXAEAV?$allocator@U?$_Tree_node@U?$pair@$$CBV?$basic_string@DU?$char_traits@D@std@@V?$allocator@D@2@@std@@U?$vec@$03M$0A@@glm@@@std@@PEAX@std@@@1@PEAU?$_Tree_node@U?$pair@$$CBV?$basic_string@DU?$char_traits@D@std@@V?$allocator@D@2@@std@@U?$vec@$03M$0A@@glm@@@std@@PEAX@1@@Z DQ 00004e40000040021r ; 6.80125e-309
	DD	053400H
	DD	imagerel $LN102@Erase_tree
	DD	imagerel $LN102@Erase_tree+28
	DD	imagerel $unwind$??$_Erase_tree@V?$allocator@U?$_Tree_node@U?$pair@$$CBV?$basic_string@DU?$char_traits@D@std@@V?$allocator@D@2@@std@@U?$vec@$03M$0A@@glm@@@std@@PEAX@std@@@std@@@?$_Tree_val@U?$_Tree_simple_types@U?$pair@$$CBV?$basic_string@DU?$char_traits@D@std@@V?$allocator@D@2@@std@@U?$vec@$03M$0A@@glm@@@std@@@std@@@std@@QEAAXAEAV?$allocator@U?$_Tree_node@U?$pair@$$CBV?$basic_string@DU?$char_traits@D@std@@V?$allocator@D@2@@std@@U?$vec@$03M$0A@@glm@@@std@@PEAX@std@@@1@PEAU?$_Tree_node@U?$pair@$$CBV?$basic_string@DU?$char_traits@D@std@@V?$allocator@D@2@@std@@U?$vec@$03M$0A@@glm@@@std@@PEAX@1@@Z
xdata	ENDS
;	COMDAT xdata
xdata	SEGMENT
$chain$2$??$_Erase_tree@V?$allocator@U?$_Tree_node@U?$pair@$$CBV?$basic_string@DU?$char_traits@D@std@@V?$allocator@D@2@@std@@U?$vec@$03M$0A@@glm@@@std@@PEAX@std@@@std@@@?$_Tree_val@U?$_Tree_simple_types@U?$pair@$$CBV?$basic_string@DU?$char_traits@D@std@@V?$allocator@D@2@@std@@U?$vec@$03M$0A@@glm@@@std@@@std@@@std@@QEAAXAEAV?$allocator@U?$_Tree_node@U?$pair@$$CBV?$basic_string@DU?$char_traits@D@std@@V?$allocator@D@2@@std@@U?$vec@$03M$0A@@glm@@@std@@PEAX@std@@@1@PEAU?$_Tree_node@U?$pair@$$CBV?$basic_string@DU?$char_traits@D@std@@V?$allocator@D@2@@std@@U?$vec@$03M$0A@@glm@@@std@@PEAX@1@@Z DD 021H
	DD	imagerel $LN102@Erase_tree
	DD	imagerel $LN102@Erase_tree+28
	DD	imagerel $unwind$??$_Erase_tree@V?$allocator@U?$_Tree_node@U?$pair@$$CBV?$basic_string@DU?$char_traits@D@std@@V?$allocator@D@2@@std@@U?$vec@$03M$0A@@glm@@@std@@PEAX@std@@@std@@@?$_Tree_val@U?$_Tree_simple_types@U?$pair@$$CBV?$basic_string@DU?$char_traits@D@std@@V?$allocator@D@2@@std@@U?$vec@$03M$0A@@glm@@@std@@@std@@@std@@QEAAXAEAV?$allocator@U?$_Tree_node@U?$pair@$$CBV?$basic_string@DU?$char_traits@D@std@@V?$allocator@D@2@@std@@U?$vec@$03M$0A@@glm@@@std@@PEAX@std@@@1@PEAU?$_Tree_node@U?$pair@$$CBV?$basic_string@DU?$char_traits@D@std@@V?$allocator@D@2@@std@@U?$vec@$03M$0A@@glm@@@std@@PEAX@1@@Z
xdata	ENDS
;	COMDAT xdata
xdata	SEGMENT
$chain$1$??$_Erase_tree@V?$allocator@U?$_Tree_node@U?$pair@$$CBV?$basic_string@DU?$char_traits@D@std@@V?$allocator@D@2@@std@@U?$vec@$03M$0A@@glm@@@std@@PEAX@std@@@std@@@?$_Tree_val@U?$_Tree_simple_types@U?$pair@$$CBV?$basic_string@DU?$char_traits@D@std@@V?$allocator@D@2@@std@@U?$vec@$03M$0A@@glm@@@std@@@std@@@std@@QEAAXAEAV?$allocator@U?$_Tree_node@U?$pair@$$CBV?$basic_string@DU?$char_traits@D@std@@V?$allocator@D@2@@std@@U?$vec@$03M$0A@@glm@@@std@@PEAX@std@@@1@PEAU?$_Tree_node@U?$pair@$$CBV?$basic_string@DU?$char_traits@D@std@@V?$allocator@D@2@@std@@U?$vec@$03M$0A@@glm@@@std@@PEAX@1@@Z DQ 00004e40a00040a21r ; 6.80146e-309
	DD	053405H
	DD	imagerel $LN102@Erase_tree
	DD	imagerel $LN102@Erase_tree+28
	DD	imagerel $unwind$??$_Erase_tree@V?$allocator@U?$_Tree_node@U?$pair@$$CBV?$basic_string@DU?$char_traits@D@std@@V?$allocator@D@2@@std@@U?$vec@$03M$0A@@glm@@@std@@PEAX@std@@@std@@@?$_Tree_val@U?$_Tree_simple_types@U?$pair@$$CBV?$basic_string@DU?$char_traits@D@std@@V?$allocator@D@2@@std@@U?$vec@$03M$0A@@glm@@@std@@@std@@@std@@QEAAXAEAV?$allocator@U?$_Tree_node@U?$pair@$$CBV?$basic_string@DU?$char_traits@D@std@@V?$allocator@D@2@@std@@U?$vec@$03M$0A@@glm@@@std@@PEAX@std@@@1@PEAU?$_Tree_node@U?$pair@$$CBV?$basic_string@DU?$char_traits@D@std@@V?$allocator@D@2@@std@@U?$vec@$03M$0A@@glm@@@std@@PEAX@1@@Z
xdata	ENDS
;	COMDAT xdata
xdata	SEGMENT
$unwind$??$_Erase_tree@V?$allocator@U?$_Tree_node@U?$pair@$$CBV?$basic_string@DU?$char_traits@D@std@@V?$allocator@D@2@@std@@U?$vec@$03M$0A@@glm@@@std@@PEAX@std@@@std@@@?$_Tree_val@U?$_Tree_simple_types@U?$pair@$$CBV?$basic_string@DU?$char_traits@D@std@@V?$allocator@D@2@@std@@U?$vec@$03M$0A@@glm@@@std@@@std@@@std@@QEAAXAEAV?$allocator@U?$_Tree_node@U?$pair@$$CBV?$basic_string@DU?$char_traits@D@std@@V?$allocator@D@2@@std@@U?$vec@$03M$0A@@glm@@@std@@PEAX@std@@@1@PEAU?$_Tree_node@U?$pair@$$CBV?$basic_string@DU?$char_traits@D@std@@V?$allocator@D@2@@std@@U?$vec@$03M$0A@@glm@@@std@@PEAX@1@@Z DQ 07004520800040801r ; 3.94348e+231
	DD	050026003H
xdata	ENDS
;	COMDAT xdata
xdata	SEGMENT
$unwind$??$_Freenode@V?$allocator@U?$_Tree_node@U?$pair@$$CBV?$basic_string@DU?$char_traits@D@std@@V?$allocator@D@2@@std@@U?$vec@$03M$0A@@glm@@@std@@PEAX@std@@@std@@@?$_Tree_node@U?$pair@$$CBV?$basic_string@DU?$char_traits@D@std@@V?$allocator@D@2@@std@@U?$vec@$03M$0A@@glm@@@std@@PEAX@std@@SAXAEAV?$allocator@U?$_Tree_node@U?$pair@$$CBV?$basic_string@DU?$char_traits@D@std@@V?$allocator@D@2@@std@@U?$vec@$03M$0A@@glm@@@std@@PEAX@std@@@1@PEAU01@@Z DQ 03002320600020601r ; 1.96423e-77
xdata	ENDS
;	COMDAT xdata
xdata	SEGMENT
$unwind$??$destroy@U?$pair@$$CBV?$basic_string@DU?$char_traits@D@std@@V?$allocator@D@2@@std@@U?$vec@$03M$0A@@glm@@@std@@@?$_Default_allocator_traits@V?$allocator@U?$_Tree_node@U?$pair@$$CBV?$basic_string@DU?$char_traits@D@std@@V?$allocator@D@2@@std@@U?$vec@$03M$0A@@glm@@@std@@PEAX@std@@@std@@@std@@SAXAEAV?$allocator@U?$_Tree_node@U?$pair@$$CBV?$basic_string@DU?$char_traits@D@std@@V?$allocator@D@2@@std@@U?$vec@$03M$0A@@glm@@@std@@PEAX@std@@@1@QEAU?$pair@$$CBV?$basic_string@DU?$char_traits@D@std@@V?$allocator@D@2@@std@@U?$vec@$03M$0A@@glm@@@1@@Z DQ 03002320600020601r ; 1.96423e-77
xdata	ENDS
;	COMDAT xdata
xdata	SEGMENT
$unwind$??_G?$pair@$$CBV?$basic_string@DU?$char_traits@D@std@@V?$allocator@D@2@@std@@U?$vec@$03M$0A@@glm@@@std@@QEAAPEAXI@Z DQ 03002320600020601r ; 1.96423e-77
xdata	ENDS
;	COMDAT xdata
xdata	SEGMENT
$unwind$??1?$pair@$$CBV?$basic_string@DU?$char_traits@D@std@@V?$allocator@D@2@@std@@U?$vec@$03M$0A@@glm@@@std@@QEAA@XZ DQ 03002320600020601r ; 1.96423e-77
END
