; Listing generated by Microsoft (R) Optimizing Compiler Version 19.43.34808.0 

include listing.inc

INCLUDELIB OLDNAMES

PUBLIC	??_C@_09LNJJPDBC@texture00@			; `string'
PUBLIC	??_C@_09KEICMCFD@texture01@			; `string'
PUBLIC	??_C@_09IPKPJBJA@texture02@			; `string'
PUBLIC	??_C@_09JGLEKANB@texture03@			; `string'
PUBLIC	??_C@_0BA@KPEPKMDB@texRatio_0_to_3@		; `string'
PUBLIC	??_C@_0O@LCIGPMLM@bUseNormalMap@		; `string'
PUBLIC	??_C@_0O@DFGFNJEM@textNormalMap@		; `string'
PUBLIC	??_C@_0BD@COPJMPHG@bUseStencilTexture@		; `string'
PUBLIC	??_C@_0M@EGFMFGNG@bDoNotLight@			; `string'
PUBLIC	??_C@_0BE@CFIFMDFB@bUseTextureAsColour@		; `string'
PUBLIC	??_C@_08CLAIGNKF@matModel@			; `string'
PUBLIC	??_C@_0BB@FGLGAGFP@bUseObjectColour@		; `string'
PUBLIC	??_C@_0N@CJNFHJLP@objectColour@			; `string'
PUBLIC	??_C@_0M@DMGIHNPL@eyeLocation@			; `string'
PUBLIC	??_C@_05HFLMHPLI@bXray@				; `string'
PUBLIC	??_C@_0BN@HPBLEIBA@wholeObjectTransparencyAlpha@ ; `string'
PUBLIC	??_C@_0DE@FGHLAJPD@assets?1models?1Sphere_radius_1_x@ ; `string'
PUBLIC	??_C@_0N@GCMINDPA@Debug_Sphere@			; `string'
PUBLIC	?pDebugSphere@@3PEAUsMesh@@EA			; pDebugSphere
	ALIGN	8

?pDebugSphere@@3PEAUsMesh@@EA DQ 01H DUP (?)		; pDebugSphere
_BSS	ENDS
;	COMDAT ??_C@_0N@GCMINDPA@Debug_Sphere@
CONST	SEGMENT
??_C@_0N@GCMINDPA@Debug_Sphere@ DB 'Debug_Sphere', 00H	; `string'
CONST	ENDS
;	COMDAT ??_C@_0DE@FGHLAJPD@assets?1models?1Sphere_radius_1_x@
CONST	SEGMENT
??_C@_0DE@FGHLAJPD@assets?1models?1Sphere_radius_1_x@ DB 'assets/models/S'
	DB	'phere_radius_1_xyz_N_uv_16_faces.ply', 00H	; `string'
CONST	ENDS
;	COMDAT ??_C@_0BN@HPBLEIBA@wholeObjectTransparencyAlpha@
CONST	SEGMENT
??_C@_0BN@HPBLEIBA@wholeObjectTransparencyAlpha@ DB 'wholeObjectTranspare'
	DB	'ncyAlpha', 00H				; `string'
CONST	ENDS
;	COMDAT ??_C@_05HFLMHPLI@bXray@
CONST	SEGMENT
??_C@_05HFLMHPLI@bXray@ DB 'bXray', 00H			; `string'
CONST	ENDS
;	COMDAT ??_C@_0M@DMGIHNPL@eyeLocation@
CONST	SEGMENT
??_C@_0M@DMGIHNPL@eyeLocation@ DB 'eyeLocation', 00H	; `string'
CONST	ENDS
;	COMDAT ??_C@_0N@CJNFHJLP@objectColour@
CONST	SEGMENT
??_C@_0N@CJNFHJLP@objectColour@ DB 'objectColour', 00H	; `string'
CONST	ENDS
;	COMDAT ??_C@_0BB@FGLGAGFP@bUseObjectColour@
CONST	SEGMENT
??_C@_0BB@FGLGAGFP@bUseObjectColour@ DB 'bUseObjectColour', 00H ; `string'
CONST	ENDS
;	COMDAT ??_C@_08CLAIGNKF@matModel@
CONST	SEGMENT
??_C@_08CLAIGNKF@matModel@ DB 'matModel', 00H		; `string'
CONST	ENDS
;	COMDAT ??_C@_0BE@CFIFMDFB@bUseTextureAsColour@
CONST	SEGMENT
??_C@_0BE@CFIFMDFB@bUseTextureAsColour@ DB 'bUseTextureAsColour', 00H ; `string'
CONST	ENDS
;	COMDAT ??_C@_0M@EGFMFGNG@bDoNotLight@
CONST	SEGMENT
??_C@_0M@EGFMFGNG@bDoNotLight@ DB 'bDoNotLight', 00H	; `string'
CONST	ENDS
;	COMDAT ??_C@_0BD@COPJMPHG@bUseStencilTexture@
CONST	SEGMENT
??_C@_0BD@COPJMPHG@bUseStencilTexture@ DB 'bUseStencilTexture', 00H ; `string'
CONST	ENDS
;	COMDAT ??_C@_0O@DFGFNJEM@textNormalMap@
CONST	SEGMENT
??_C@_0O@DFGFNJEM@textNormalMap@ DB 'textNormalMap', 00H ; `string'
CONST	ENDS
;	COMDAT ??_C@_0O@LCIGPMLM@bUseNormalMap@
CONST	SEGMENT
??_C@_0O@LCIGPMLM@bUseNormalMap@ DB 'bUseNormalMap', 00H ; `string'
CONST	ENDS
;	COMDAT ??_C@_0BA@KPEPKMDB@texRatio_0_to_3@
CONST	SEGMENT
??_C@_0BA@KPEPKMDB@texRatio_0_to_3@ DB 'texRatio_0_to_3', 00H ; `string'
CONST	ENDS
;	COMDAT ??_C@_09JGLEKANB@texture03@
CONST	SEGMENT
??_C@_09JGLEKANB@texture03@ DB 'texture03', 00H		; `string'
CONST	ENDS
;	COMDAT ??_C@_09IPKPJBJA@texture02@
CONST	SEGMENT
??_C@_09IPKPJBJA@texture02@ DB 'texture02', 00H		; `string'
CONST	ENDS
;	COMDAT ??_C@_09KEICMCFD@texture01@
CONST	SEGMENT
??_C@_09KEICMCFD@texture01@ DB 'texture01', 00H		; `string'
CONST	ENDS
;	COMDAT ??_C@_09LNJJPDBC@texture00@
CONST	SEGMENT
??_C@_09LNJJPDBC@texture00@ DB 'texture00', 00H		; `string'
?_Fake_alloc@std@@3U_Fake_allocator@1@B	ORG $+1		; std::_Fake_alloc
PUBLIC	??$forward@AEAPEAPEAUsMesh@@@std@@YAAEAPEAPEAUsMesh@@AEAPEAPEAU1@@Z ; std::forward<sMesh * * &>
PUBLIC	??$_Med3_unchecked@PEAPEAUsMesh@@P6A_NPEAU1@0@Z@std@@YAXPEAPEAUsMesh@@00P6A_NPEAU1@1@Z@Z ; std::_Med3_unchecked<sMesh * *,bool (__cdecl*)(sMesh *,sMesh *)>
PUBLIC	??$_Pop_heap_hole_unchecked@PEAPEAUsMesh@@PEAU1@P6A_NPEAU1@0@Z@std@@YAXPEAPEAUsMesh@@00$$QEAPEAU1@P6A_NPEAU1@2@Z@Z ; std::_Pop_heap_hole_unchecked<sMesh * *,sMesh *,bool (__cdecl*)(sMesh *,sMesh *)>
PUBLIC	??$_Push_heap_by_index@PEAPEAUsMesh@@PEAU1@P6A_NPEAU1@0@Z@std@@YAXPEAPEAUsMesh@@_J1$$QEAPEAU1@P6A_NPEAU1@3@Z@Z ; std::_Push_heap_by_index<sMesh * *,sMesh *,bool (__cdecl*)(sMesh *,sMesh *)>
PUBLIC	??$_Copy_backward_memmove@PEAPEAUsMesh@@PEAPEAU1@@std@@YAPEAPEAUsMesh@@PEAPEAU1@00@Z ; std::_Copy_backward_memmove<sMesh * *,sMesh * *>
PUBLIC	??$?0AEAPEAPEAUsMesh@@AEAPEAPEAU0@$0A@@?$pair@PEAPEAUsMesh@@PEAPEAU1@@std@@QEAA@AEAPEAPEAUsMesh@@0@Z ; std::pair<sMesh * *,sMesh * *>::pair<sMesh * *,sMesh * *><sMesh * * &,sMesh * * &,0>
PUBLIC	??$swap@PEAUsMesh@@$0A@@std@@YAXAEAPEAUsMesh@@0@Z ; std::swap<sMesh *,0>
PUBLIC	??$_Next_iter@PEAPEAUsMesh@@@std@@YAPEAPEAUsMesh@@PEAPEAU1@@Z ; std::_Next_iter<sMesh * *>
PUBLIC	??$_Guess_median_unchecked@PEAPEAUsMesh@@P6A_NPEAU1@0@Z@std@@YAXPEAPEAUsMesh@@00P6A_NPEAU1@1@Z@Z ; std::_Guess_median_unchecked<sMesh * *,bool (__cdecl*)(sMesh *,sMesh *)>
PUBLIC	??$_Prev_iter@PEAPEAUsMesh@@@std@@YAPEAPEAUsMesh@@PEAPEAU1@@Z ; std::_Prev_iter<sMesh * *>
PUBLIC	??$_Pop_heap_unchecked@PEAPEAUsMesh@@P6A_NPEAU1@0@Z@std@@YAXPEAPEAUsMesh@@0P6A_NPEAU1@1@Z@Z ; std::_Pop_heap_unchecked<sMesh * *,bool (__cdecl*)(sMesh *,sMesh *)>
PUBLIC	??$_Pop_heap_hole_by_index@PEAPEAUsMesh@@PEAU1@P6A_NPEAU1@0@Z@std@@YAXPEAPEAUsMesh@@_J1$$QEAPEAU1@P6A_NPEAU1@3@Z@Z ; std::_Pop_heap_hole_by_index<sMesh * *,sMesh *,bool (__cdecl*)(sMesh *,sMesh *)>
PUBLIC	??$_Move_backward_unchecked@PEAPEAUsMesh@@PEAPEAU1@@std@@YAPEAPEAUsMesh@@PEAPEAU1@00@Z ; std::_Move_backward_unchecked<sMesh * *,sMesh * *>
PUBLIC	??$_Partition_by_median_guess_unchecked@PEAPEAUsMesh@@P6A_NPEAU1@0@Z@std@@YA?AU?$pair@PEAPEAUsMesh@@PEAPEAU1@@0@PEAPEAUsMesh@@0P6A_NPEAU2@1@Z@Z ; std::_Partition_by_median_guess_unchecked<sMesh * *,bool (__cdecl*)(sMesh *,sMesh *)>
PUBLIC	??$_Sort_heap_unchecked@PEAPEAUsMesh@@P6A_NPEAU1@0@Z@std@@YAXPEAPEAUsMesh@@0P6A_NPEAU1@1@Z@Z ; std::_Sort_heap_unchecked<sMesh * *,bool (__cdecl*)(sMesh *,sMesh *)>
PUBLIC	??$_Make_heap_unchecked@PEAPEAUsMesh@@P6A_NPEAU1@0@Z@std@@YAXPEAPEAUsMesh@@0P6A_NPEAU1@1@Z@Z ; std::_Make_heap_unchecked<sMesh * *,bool (__cdecl*)(sMesh *,sMesh *)>
PUBLIC	??$_Insertion_sort_unchecked@PEAPEAUsMesh@@P6A_NPEAU1@0@Z@std@@YAPEAPEAUsMesh@@QEAPEAU1@0P6A_NPEAU1@1@Z@Z ; std::_Insertion_sort_unchecked<sMesh * *,bool (__cdecl*)(sMesh *,sMesh *)>
PUBLIC	??$_Sort_unchecked@PEAPEAUsMesh@@P6A_NPEAU1@0@Z@std@@YAXPEAPEAUsMesh@@0_JP6A_NPEAU1@2@Z@Z ; std::_Sort_unchecked<sMesh * *,bool (__cdecl*)(sMesh *,sMesh *)>
PUBLIC	??$_Adl_verify_range@V?$_Vector_iterator@V?$_Vector_val@U?$_Simple_types@PEAUsMesh@@@std@@@std@@@std@@V12@@std@@YAXAEBV?$_Vector_iterator@V?$_Vector_val@U?$_Simple_types@PEAUsMesh@@@std@@@std@@@0@0@Z ; std::_Adl_verify_range<std::_Vector_iterator<std::_Vector_val<std::_Simple_types<sMesh *> > >,std::_Vector_iterator<std::_Vector_val<std::_Simple_types<sMesh *> > > >
PUBLIC	??0?$allocator@PEAUsMesh@@@std@@QEAA@XZ		; std::allocator<sMesh *>::allocator<sMesh *>
PUBLIC	??0?$_Vector_val@U?$_Simple_types@PEAUsMesh@@@std@@@std@@QEAA@XZ ; std::_Vector_val<std::_Simple_types<sMesh *> >::_Vector_val<std::_Simple_types<sMesh *> >
PUBLIC	?_Unwrapped@?$_Vector_iterator@V?$_Vector_val@U?$_Simple_types@PEAUsMesh@@@std@@@std@@@std@@QEBAPEAPEAUsMesh@@XZ ; std::_Vector_iterator<std::_Vector_val<std::_Simple_types<sMesh *> > >::_Unwrapped
PUBLIC	??$_Unfancy_maybe_null@UsLODInfo@sMesh@@@std@@YAPEAUsLODInfo@sMesh@@PEAU12@@Z ; std::_Unfancy_maybe_null<sMesh::sLODInfo>
PUBLIC	??$?0$$V@?$_Compressed_pair@V?$allocator@PEAUsMesh@@@std@@V?$_Vector_val@U?$_Simple_types@PEAUsMesh@@@std@@@2@$00@std@@QEAA@U_Zero_then_variadic_args_t@1@@Z ; std::_Compressed_pair<std::allocator<sMesh *>,std::_Vector_val<std::_Simple_types<sMesh *> >,1>::_Compressed_pair<std::allocator<sMesh *>,std::_Vector_val<std::_Simple_types<sMesh *> >,1><>
PUBLIC	??$addressof@V?$_Vector_val@U?$_Simple_types@PEAUsMesh@@@std@@@std@@@std@@YAPEAV?$_Vector_val@U?$_Simple_types@PEAUsMesh@@@std@@@0@AEAV10@@Z ; std::addressof<std::_Vector_val<std::_Simple_types<sMesh *> > >
PUBLIC	??$_Unfancy_maybe_null@PEAUsMesh@@@std@@YAPEAPEAUsMesh@@PEAPEAU1@@Z ; std::_Unfancy_maybe_null<sMesh *>
PUBLIC	??$_Pass_fn@P6A_NPEAUsMesh@@0@Z@std@@YA?A_PAEAP6A_NPEAUsMesh@@0@Z@Z ; std::_Pass_fn<bool (__cdecl*)(sMesh *,sMesh *)>
PUBLIC	??$_Get_unwrapped@AEBV?$_Vector_iterator@V?$_Vector_val@U?$_Simple_types@PEAUsMesh@@@std@@@std@@@std@@@std@@YA?A_TAEBV?$_Vector_iterator@V?$_Vector_val@U?$_Simple_types@PEAUsMesh@@@std@@@std@@@0@@Z ; std::_Get_unwrapped<std::_Vector_iterator<std::_Vector_val<std::_Simple_types<sMesh *> > > const &>
PUBLIC	??$sort@V?$_Vector_iterator@V?$_Vector_val@U?$_Simple_types@PEAUsMesh@@@std@@@std@@@std@@P6A_NPEAUsMesh@@0@Z@std@@YAXV?$_Vector_iterator@V?$_Vector_val@U?$_Simple_types@PEAUsMesh@@@std@@@std@@@0@0P6A_NPEAUsMesh@@1@Z@Z ; std::sort<std::_Vector_iterator<std::_Vector_val<std::_Simple_types<sMesh *> > >,bool (__cdecl*)(sMesh *,sMesh *)>
PUBLIC	?_Tidy@?$vector@PEAUsMesh@@V?$allocator@PEAUsMesh@@@std@@@std@@AEAAXXZ ; std::vector<sMesh *,std::allocator<sMesh *> >::_Tidy
PUBLIC	??0?$_Vector_const_iterator@V?$_Vector_val@U?$_Simple_types@PEAUsMesh@@@std@@@std@@@std@@QEAA@PEAPEAUsMesh@@PEBU_Container_base0@1@@Z ; std::_Vector_const_iterator<std::_Vector_val<std::_Simple_types<sMesh *> > >::_Vector_const_iterator<std::_Vector_val<std::_Simple_types<sMesh *> > >
PUBLIC	??0?$_Vector_iterator@V?$_Vector_val@U?$_Simple_types@PEAUsMesh@@@std@@@std@@@std@@QEAA@PEAPEAUsMesh@@PEBU_Container_base0@1@@Z ; std::_Vector_iterator<std::_Vector_val<std::_Simple_types<sMesh *> > >::_Vector_iterator<std::_Vector_val<std::_Simple_types<sMesh *> > >
PUBLIC	?_Unchecked_begin@?$vector@UsLODInfo@sMesh@@V?$allocator@UsLODInfo@sMesh@@@std@@@std@@QEAAPEAUsLODInfo@sMesh@@XZ ; std::vector<sMesh::sLODInfo,std::allocator<sMesh::sLODInfo> >::_Unchecked_begin
PUBLIC	?_Unchecked_end@?$vector@UsLODInfo@sMesh@@V?$allocator@UsLODInfo@sMesh@@@std@@@std@@QEAAPEAUsLODInfo@sMesh@@XZ ; std::vector<sMesh::sLODInfo,std::allocator<sMesh::sLODInfo> >::_Unchecked_end
PUBLIC	?empty@?$vector@UsLODInfo@sMesh@@V?$allocator@UsLODInfo@sMesh@@@std@@@std@@QEBA_NXZ ; std::vector<sMesh::sLODInfo,std::allocator<sMesh::sLODInfo> >::empty
PUBLIC	??0?$vector@PEAUsMesh@@V?$allocator@PEAUsMesh@@@std@@@std@@QEAA@XZ ; std::vector<sMesh *,std::allocator<sMesh *> >::vector<sMesh *,std::allocator<sMesh *> >
PUBLIC	??1?$vector@PEAUsMesh@@V?$allocator@PEAUsMesh@@@std@@@std@@QEAA@XZ ; std::vector<sMesh *,std::allocator<sMesh *> >::~vector<sMesh *,std::allocator<sMesh *> >
PUBLIC	?begin@?$vector@PEAUsMesh@@V?$allocator@PEAUsMesh@@@std@@@std@@QEAA?AV?$_Vector_iterator@V?$_Vector_val@U?$_Simple_types@PEAUsMesh@@@std@@@std@@@2@XZ ; std::vector<sMesh *,std::allocator<sMesh *> >::begin
PUBLIC	?end@?$vector@PEAUsMesh@@V?$allocator@PEAUsMesh@@@std@@@std@@QEAA?AV?$_Vector_iterator@V?$_Vector_val@U?$_Simple_types@PEAUsMesh@@@std@@@std@@@2@XZ ; std::vector<sMesh *,std::allocator<sMesh *> >::end
PUBLIC	?_Unchecked_begin@?$vector@PEAUsMesh@@V?$allocator@PEAUsMesh@@@std@@@std@@QEAAPEAPEAUsMesh@@XZ ; std::vector<sMesh *,std::allocator<sMesh *> >::_Unchecked_begin
PUBLIC	?_Unchecked_end@?$vector@PEAUsMesh@@V?$allocator@PEAUsMesh@@@std@@@std@@QEAAPEAPEAUsMesh@@XZ ; std::vector<sMesh *,std::allocator<sMesh *> >::_Unchecked_end
PUBLIC	?empty@?$vector@PEAUsMesh@@V?$allocator@PEAUsMesh@@@std@@@std@@QEBA_NXZ ; std::vector<sMesh *,std::allocator<sMesh *> >::empty
PUBLIC	?size@?$vector@PEAUsMesh@@V?$allocator@PEAUsMesh@@@std@@@std@@QEBA_KXZ ; std::vector<sMesh *,std::allocator<sMesh *> >::size
PUBLIC	??A?$vector@PEAUsMesh@@V?$allocator@PEAUsMesh@@@std@@@std@@QEAAAEAPEAUsMesh@@_K@Z ; std::vector<sMesh *,std::allocator<sMesh *> >::operator[]
PUBLIC	?DrawDebugSphere@@YAXU?$vec@$02M$0A@@glm@@U?$vec@$03M$0A@@2@MI@Z ; DrawDebugSphere
PUBLIC	?__autoclassinit2@?$vector@PEAUsMesh@@V?$allocator@PEAUsMesh@@@std@@@std@@QEAAX_K@Z ; std::vector<sMesh *,std::allocator<sMesh *> >::__autoclassinit2
PUBLIC	?DrawMesh@@YAXPEAUsMesh@@U?$mat@$03$03M$0A@@glm@@I_N@Z ; DrawMesh
PUBLIC	?SetUpTextures@@YAXPEAUsMesh@@I@Z		; SetUpTextures
;	COMDAT pdata
pdata	SEGMENT
$pdata$??$_Med3_unchecked@PEAPEAUsMesh@@P6A_NPEAU1@0@Z@std@@YAXPEAPEAUsMesh@@00P6A_NPEAU1@1@Z@Z DD imagerel $LN22@Med3_unche
	DD	imagerel $LN22@Med3_unche+122
	DD	imagerel $unwind$??$_Med3_unchecked@PEAPEAUsMesh@@P6A_NPEAU1@0@Z@std@@YAXPEAPEAUsMesh@@00P6A_NPEAU1@1@Z@Z
pdata	ENDS
;	COMDAT pdata
pdata	SEGMENT
$pdata$??$_Push_heap_by_index@PEAPEAUsMesh@@PEAU1@P6A_NPEAU1@0@Z@std@@YAXPEAPEAUsMesh@@_J1$$QEAPEAU1@P6A_NPEAU1@3@Z@Z DD imagerel $LN18@Push_heap_
	DD	imagerel $LN18@Push_heap_+30
	DD	imagerel $unwind$??$_Push_heap_by_index@PEAPEAUsMesh@@PEAU1@P6A_NPEAU1@0@Z@std@@YAXPEAPEAUsMesh@@_J1$$QEAPEAU1@P6A_NPEAU1@3@Z@Z
pdata	ENDS
;	COMDAT pdata
pdata	SEGMENT
$pdata$1$??$_Push_heap_by_index@PEAPEAUsMesh@@PEAU1@P6A_NPEAU1@0@Z@std@@YAXPEAPEAUsMesh@@_J1$$QEAPEAU1@P6A_NPEAU1@3@Z@Z DD imagerel $LN18@Push_heap_+30
	DD	imagerel $LN18@Push_heap_+116
	DD	imagerel $chain$1$??$_Push_heap_by_index@PEAPEAUsMesh@@PEAU1@P6A_NPEAU1@0@Z@std@@YAXPEAPEAUsMesh@@_J1$$QEAPEAU1@P6A_NPEAU1@3@Z@Z
pdata	ENDS
;	COMDAT pdata
pdata	SEGMENT
$pdata$3$??$_Push_heap_by_index@PEAPEAUsMesh@@PEAU1@P6A_NPEAU1@0@Z@std@@YAXPEAPEAUsMesh@@_J1$$QEAPEAU1@P6A_NPEAU1@3@Z@Z DD imagerel $LN18@Push_heap_+116
	DD	imagerel $LN18@Push_heap_+125
	DD	imagerel $chain$3$??$_Push_heap_by_index@PEAPEAUsMesh@@PEAU1@P6A_NPEAU1@0@Z@std@@YAXPEAPEAUsMesh@@_J1$$QEAPEAU1@P6A_NPEAU1@3@Z@Z
pdata	ENDS
;	COMDAT pdata
pdata	SEGMENT
$pdata$4$??$_Push_heap_by_index@PEAPEAUsMesh@@PEAU1@P6A_NPEAU1@0@Z@std@@YAXPEAPEAUsMesh@@_J1$$QEAPEAU1@P6A_NPEAU1@3@Z@Z DD imagerel $LN18@Push_heap_+125
	DD	imagerel $LN18@Push_heap_+146
	DD	imagerel $chain$4$??$_Push_heap_by_index@PEAPEAUsMesh@@PEAU1@P6A_NPEAU1@0@Z@std@@YAXPEAPEAUsMesh@@_J1$$QEAPEAU1@P6A_NPEAU1@3@Z@Z
pdata	ENDS
;	COMDAT pdata
pdata	SEGMENT
$pdata$??$_Guess_median_unchecked@PEAPEAUsMesh@@P6A_NPEAU1@0@Z@std@@YAXPEAPEAUsMesh@@00P6A_NPEAU1@1@Z@Z DD imagerel $LN105@Guess_medi
	DD	imagerel $LN105@Guess_medi+47
	DD	imagerel $unwind$??$_Guess_median_unchecked@PEAPEAUsMesh@@P6A_NPEAU1@0@Z@std@@YAXPEAPEAUsMesh@@00P6A_NPEAU1@1@Z@Z
pdata	ENDS
;	COMDAT pdata
pdata	SEGMENT
$pdata$1$??$_Guess_median_unchecked@PEAPEAUsMesh@@P6A_NPEAU1@0@Z@std@@YAXPEAPEAUsMesh@@00P6A_NPEAU1@1@Z@Z DD imagerel $LN105@Guess_medi+47
	DD	imagerel $LN105@Guess_medi+65
	DD	imagerel $chain$1$??$_Guess_median_unchecked@PEAPEAUsMesh@@P6A_NPEAU1@0@Z@std@@YAXPEAPEAUsMesh@@00P6A_NPEAU1@1@Z@Z
pdata	ENDS
;	COMDAT pdata
pdata	SEGMENT
$pdata$2$??$_Guess_median_unchecked@PEAPEAUsMesh@@P6A_NPEAU1@0@Z@std@@YAXPEAPEAUsMesh@@00P6A_NPEAU1@1@Z@Z DD imagerel $LN105@Guess_medi+65
	DD	imagerel $LN105@Guess_medi+356
	DD	imagerel $chain$2$??$_Guess_median_unchecked@PEAPEAUsMesh@@P6A_NPEAU1@0@Z@std@@YAXPEAPEAUsMesh@@00P6A_NPEAU1@1@Z@Z
pdata	ENDS
;	COMDAT pdata
pdata	SEGMENT
$pdata$3$??$_Guess_median_unchecked@PEAPEAUsMesh@@P6A_NPEAU1@0@Z@std@@YAXPEAPEAUsMesh@@00P6A_NPEAU1@1@Z@Z DD imagerel $LN105@Guess_medi+356
	DD	imagerel $LN105@Guess_medi+428
	DD	imagerel $chain$3$??$_Guess_median_unchecked@PEAPEAUsMesh@@P6A_NPEAU1@0@Z@std@@YAXPEAPEAUsMesh@@00P6A_NPEAU1@1@Z@Z
pdata	ENDS
;	COMDAT pdata
pdata	SEGMENT
$pdata$4$??$_Guess_median_unchecked@PEAPEAUsMesh@@P6A_NPEAU1@0@Z@std@@YAXPEAPEAUsMesh@@00P6A_NPEAU1@1@Z@Z DD imagerel $LN105@Guess_medi+428
	DD	imagerel $LN105@Guess_medi+523
	DD	imagerel $chain$4$??$_Guess_median_unchecked@PEAPEAUsMesh@@P6A_NPEAU1@0@Z@std@@YAXPEAPEAUsMesh@@00P6A_NPEAU1@1@Z@Z
pdata	ENDS
;	COMDAT pdata
pdata	SEGMENT
$pdata$??$_Pop_heap_unchecked@PEAPEAUsMesh@@P6A_NPEAU1@0@Z@std@@YAXPEAPEAUsMesh@@0P6A_NPEAU1@1@Z@Z DD imagerel $LN7@Pop_heap_u
	DD	imagerel $LN7@Pop_heap_u+71
	DD	imagerel $unwind$??$_Pop_heap_unchecked@PEAPEAUsMesh@@P6A_NPEAU1@0@Z@std@@YAXPEAPEAUsMesh@@0P6A_NPEAU1@1@Z@Z
pdata	ENDS
;	COMDAT pdata
pdata	SEGMENT
$pdata$??$_Pop_heap_hole_by_index@PEAPEAUsMesh@@PEAU1@P6A_NPEAU1@0@Z@std@@YAXPEAPEAUsMesh@@_J1$$QEAPEAU1@P6A_NPEAU1@3@Z@Z DD imagerel $LN30@Pop_heap_h
	DD	imagerel $LN30@Pop_heap_h+25
	DD	imagerel $unwind$??$_Pop_heap_hole_by_index@PEAPEAUsMesh@@PEAU1@P6A_NPEAU1@0@Z@std@@YAXPEAPEAUsMesh@@_J1$$QEAPEAU1@P6A_NPEAU1@3@Z@Z
pdata	ENDS
;	COMDAT pdata
pdata	SEGMENT
$pdata$1$??$_Pop_heap_hole_by_index@PEAPEAUsMesh@@PEAU1@P6A_NPEAU1@0@Z@std@@YAXPEAPEAUsMesh@@_J1$$QEAPEAU1@P6A_NPEAU1@3@Z@Z DD imagerel $LN30@Pop_heap_h+25
	DD	imagerel $LN30@Pop_heap_h+124
	DD	imagerel $chain$1$??$_Pop_heap_hole_by_index@PEAPEAUsMesh@@PEAU1@P6A_NPEAU1@0@Z@std@@YAXPEAPEAUsMesh@@_J1$$QEAPEAU1@P6A_NPEAU1@3@Z@Z
pdata	ENDS
;	COMDAT pdata
pdata	SEGMENT
$pdata$2$??$_Pop_heap_hole_by_index@PEAPEAUsMesh@@PEAU1@P6A_NPEAU1@0@Z@std@@YAXPEAPEAUsMesh@@_J1$$QEAPEAU1@P6A_NPEAU1@3@Z@Z DD imagerel $LN30@Pop_heap_h+124
	DD	imagerel $LN30@Pop_heap_h+160
	DD	imagerel $chain$2$??$_Pop_heap_hole_by_index@PEAPEAUsMesh@@PEAU1@P6A_NPEAU1@0@Z@std@@YAXPEAPEAUsMesh@@_J1$$QEAPEAU1@P6A_NPEAU1@3@Z@Z
pdata	ENDS
;	COMDAT pdata
pdata	SEGMENT
$pdata$3$??$_Pop_heap_hole_by_index@PEAPEAUsMesh@@PEAU1@P6A_NPEAU1@0@Z@std@@YAXPEAPEAUsMesh@@_J1$$QEAPEAU1@P6A_NPEAU1@3@Z@Z DD imagerel $LN30@Pop_heap_h+160
	DD	imagerel $LN30@Pop_heap_h+247
	DD	imagerel $chain$3$??$_Pop_heap_hole_by_index@PEAPEAUsMesh@@PEAU1@P6A_NPEAU1@0@Z@std@@YAXPEAPEAUsMesh@@_J1$$QEAPEAU1@P6A_NPEAU1@3@Z@Z
pdata	ENDS
;	COMDAT pdata
pdata	SEGMENT
$pdata$??$_Partition_by_median_guess_unchecked@PEAPEAUsMesh@@P6A_NPEAU1@0@Z@std@@YA?AU?$pair@PEAPEAUsMesh@@PEAPEAU1@@0@PEAPEAUsMesh@@0P6A_NPEAU2@1@Z@Z DD imagerel $LN115@Partition_
	DD	imagerel $LN115@Partition_+468
	DD	imagerel $unwind$??$_Partition_by_median_guess_unchecked@PEAPEAUsMesh@@P6A_NPEAU1@0@Z@std@@YA?AU?$pair@PEAPEAUsMesh@@PEAPEAU1@@0@PEAPEAUsMesh@@0P6A_NPEAU2@1@Z@Z
pdata	ENDS
;	COMDAT pdata
pdata	SEGMENT
$pdata$??$_Sort_heap_unchecked@PEAPEAUsMesh@@P6A_NPEAU1@0@Z@std@@YAXPEAPEAUsMesh@@0P6A_NPEAU1@1@Z@Z DD imagerel $LN18@Sort_heap_
	DD	imagerel $LN18@Sort_heap_+32
	DD	imagerel $unwind$??$_Sort_heap_unchecked@PEAPEAUsMesh@@P6A_NPEAU1@0@Z@std@@YAXPEAPEAUsMesh@@0P6A_NPEAU1@1@Z@Z
pdata	ENDS
;	COMDAT pdata
pdata	SEGMENT
$pdata$1$??$_Sort_heap_unchecked@PEAPEAUsMesh@@P6A_NPEAU1@0@Z@std@@YAXPEAPEAUsMesh@@0P6A_NPEAU1@1@Z@Z DD imagerel $LN18@Sort_heap_+32
	DD	imagerel $LN18@Sort_heap_+136
	DD	imagerel $chain$1$??$_Sort_heap_unchecked@PEAPEAUsMesh@@P6A_NPEAU1@0@Z@std@@YAXPEAPEAUsMesh@@0P6A_NPEAU1@1@Z@Z
pdata	ENDS
;	COMDAT pdata
pdata	SEGMENT
$pdata$2$??$_Sort_heap_unchecked@PEAPEAUsMesh@@P6A_NPEAU1@0@Z@std@@YAXPEAPEAUsMesh@@0P6A_NPEAU1@1@Z@Z DD imagerel $LN18@Sort_heap_+136
	DD	imagerel $LN18@Sort_heap_+147
	DD	imagerel $chain$2$??$_Sort_heap_unchecked@PEAPEAUsMesh@@P6A_NPEAU1@0@Z@std@@YAXPEAPEAUsMesh@@0P6A_NPEAU1@1@Z@Z
pdata	ENDS
;	COMDAT pdata
pdata	SEGMENT
$pdata$??$_Make_heap_unchecked@PEAPEAUsMesh@@P6A_NPEAU1@0@Z@std@@YAXPEAPEAUsMesh@@0P6A_NPEAU1@1@Z@Z DD imagerel $LN13@Make_heap_
	DD	imagerel $LN13@Make_heap_+111
	DD	imagerel $unwind$??$_Make_heap_unchecked@PEAPEAUsMesh@@P6A_NPEAU1@0@Z@std@@YAXPEAPEAUsMesh@@0P6A_NPEAU1@1@Z@Z
pdata	ENDS
;	COMDAT pdata
pdata	SEGMENT
$pdata$??$_Insertion_sort_unchecked@PEAPEAUsMesh@@P6A_NPEAU1@0@Z@std@@YAPEAPEAUsMesh@@QEAPEAU1@0P6A_NPEAU1@1@Z@Z DD imagerel $LN36@Insertion_
	DD	imagerel $LN36@Insertion_+28
	DD	imagerel $unwind$??$_Insertion_sort_unchecked@PEAPEAUsMesh@@P6A_NPEAU1@0@Z@std@@YAPEAPEAUsMesh@@QEAPEAU1@0P6A_NPEAU1@1@Z@Z
pdata	ENDS
;	COMDAT pdata
pdata	SEGMENT
$pdata$1$??$_Insertion_sort_unchecked@PEAPEAUsMesh@@P6A_NPEAU1@0@Z@std@@YAPEAPEAUsMesh@@QEAPEAU1@0P6A_NPEAU1@1@Z@Z DD imagerel $LN36@Insertion_+28
	DD	imagerel $LN36@Insertion_+54
	DD	imagerel $chain$1$??$_Insertion_sort_unchecked@PEAPEAUsMesh@@P6A_NPEAU1@0@Z@std@@YAPEAPEAUsMesh@@QEAPEAU1@0P6A_NPEAU1@1@Z@Z
pdata	ENDS
;	COMDAT pdata
pdata	SEGMENT
$pdata$4$??$_Insertion_sort_unchecked@PEAPEAUsMesh@@P6A_NPEAU1@0@Z@std@@YAPEAPEAUsMesh@@QEAPEAU1@0P6A_NPEAU1@1@Z@Z DD imagerel $LN36@Insertion_+54
	DD	imagerel $LN36@Insertion_+197
	DD	imagerel $chain$4$??$_Insertion_sort_unchecked@PEAPEAUsMesh@@P6A_NPEAU1@0@Z@std@@YAPEAPEAUsMesh@@QEAPEAU1@0P6A_NPEAU1@1@Z@Z
pdata	ENDS
;	COMDAT pdata
pdata	SEGMENT
$pdata$5$??$_Insertion_sort_unchecked@PEAPEAUsMesh@@P6A_NPEAU1@0@Z@std@@YAPEAPEAUsMesh@@QEAPEAU1@0P6A_NPEAU1@1@Z@Z DD imagerel $LN36@Insertion_+197
	DD	imagerel $LN36@Insertion_+220
	DD	imagerel $chain$5$??$_Insertion_sort_unchecked@PEAPEAUsMesh@@P6A_NPEAU1@0@Z@std@@YAPEAPEAUsMesh@@QEAPEAU1@0P6A_NPEAU1@1@Z@Z
pdata	ENDS
;	COMDAT pdata
pdata	SEGMENT
$pdata$6$??$_Insertion_sort_unchecked@PEAPEAUsMesh@@P6A_NPEAU1@0@Z@std@@YAPEAPEAUsMesh@@QEAPEAU1@0P6A_NPEAU1@1@Z@Z DD imagerel $LN36@Insertion_+220
	DD	imagerel $LN36@Insertion_+233
	DD	imagerel $chain$6$??$_Insertion_sort_unchecked@PEAPEAUsMesh@@P6A_NPEAU1@0@Z@std@@YAPEAPEAUsMesh@@QEAPEAU1@0P6A_NPEAU1@1@Z@Z
pdata	ENDS
;	COMDAT pdata
pdata	SEGMENT
$pdata$??$_Sort_unchecked@PEAPEAUsMesh@@P6A_NPEAU1@0@Z@std@@YAXPEAPEAUsMesh@@0_JP6A_NPEAU1@2@Z@Z DD imagerel $LN79@Sort_unche
	DD	imagerel $LN79@Sort_unche+191
	DD	imagerel $unwind$??$_Sort_unchecked@PEAPEAUsMesh@@P6A_NPEAU1@0@Z@std@@YAXPEAPEAUsMesh@@0_JP6A_NPEAU1@2@Z@Z
pdata	ENDS
;	COMDAT pdata
pdata	SEGMENT
$pdata$1$??$_Sort_unchecked@PEAPEAUsMesh@@P6A_NPEAU1@0@Z@std@@YAXPEAPEAUsMesh@@0_JP6A_NPEAU1@2@Z@Z DD imagerel $LN79@Sort_unche+191
	DD	imagerel $LN79@Sort_unche+271
	DD	imagerel $chain$1$??$_Sort_unchecked@PEAPEAUsMesh@@P6A_NPEAU1@0@Z@std@@YAXPEAPEAUsMesh@@0_JP6A_NPEAU1@2@Z@Z
pdata	ENDS
;	COMDAT pdata
pdata	SEGMENT
$pdata$2$??$_Sort_unchecked@PEAPEAUsMesh@@P6A_NPEAU1@0@Z@std@@YAXPEAPEAUsMesh@@0_JP6A_NPEAU1@2@Z@Z DD imagerel $LN79@Sort_unche+271
	DD	imagerel $LN79@Sort_unche+445
	DD	imagerel $chain$2$??$_Sort_unchecked@PEAPEAUsMesh@@P6A_NPEAU1@0@Z@std@@YAXPEAPEAUsMesh@@0_JP6A_NPEAU1@2@Z@Z
pdata	ENDS
;	COMDAT pdata
pdata	SEGMENT
$pdata$3$??$_Sort_unchecked@PEAPEAUsMesh@@P6A_NPEAU1@0@Z@std@@YAXPEAPEAUsMesh@@0_JP6A_NPEAU1@2@Z@Z DD imagerel $LN79@Sort_unche+445
	DD	imagerel $LN79@Sort_unche+511
	DD	imagerel $chain$3$??$_Sort_unchecked@PEAPEAUsMesh@@P6A_NPEAU1@0@Z@std@@YAXPEAPEAUsMesh@@0_JP6A_NPEAU1@2@Z@Z
pdata	ENDS
;	COMDAT pdata
pdata	SEGMENT
$pdata$4$??$_Sort_unchecked@PEAPEAUsMesh@@P6A_NPEAU1@0@Z@std@@YAXPEAPEAUsMesh@@0_JP6A_NPEAU1@2@Z@Z DD imagerel $LN79@Sort_unche+511
	DD	imagerel $LN79@Sort_unche+516
	DD	imagerel $chain$4$??$_Sort_unchecked@PEAPEAUsMesh@@P6A_NPEAU1@0@Z@std@@YAXPEAPEAUsMesh@@0_JP6A_NPEAU1@2@Z@Z
pdata	ENDS
;	COMDAT pdata
pdata	SEGMENT
$pdata$5$??$_Sort_unchecked@PEAPEAUsMesh@@P6A_NPEAU1@0@Z@std@@YAXPEAPEAUsMesh@@0_JP6A_NPEAU1@2@Z@Z DD imagerel $LN79@Sort_unche+516
	DD	imagerel $LN79@Sort_unche+529
	DD	imagerel $chain$5$??$_Sort_unchecked@PEAPEAUsMesh@@P6A_NPEAU1@0@Z@std@@YAXPEAPEAUsMesh@@0_JP6A_NPEAU1@2@Z@Z
pdata	ENDS
;	COMDAT pdata
pdata	SEGMENT
$pdata$?_Tidy@?$vector@PEAUsMesh@@V?$allocator@PEAUsMesh@@@std@@@std@@AEAAXXZ DD imagerel $LN31@Tidy
	DD	imagerel $LN31@Tidy+92
	DD	imagerel $unwind$?_Tidy@?$vector@PEAUsMesh@@V?$allocator@PEAUsMesh@@@std@@@std@@AEAAXXZ
pdata	ENDS
;	COMDAT pdata
pdata	SEGMENT
$pdata$??1?$vector@PEAUsMesh@@V?$allocator@PEAUsMesh@@@std@@@std@@QEAA@XZ DD imagerel $LN35@vector
	DD	imagerel $LN35@vector+92
	DD	imagerel $unwind$??1?$vector@PEAUsMesh@@V?$allocator@PEAUsMesh@@@std@@@std@@QEAA@XZ
pdata	ENDS
;	COMDAT pdata
pdata	SEGMENT
$pdata$?DrawDebugSphere@@YAXU?$vec@$02M$0A@@glm@@U?$vec@$03M$0A@@2@MI@Z DD imagerel $LN44@DrawDebugS
	DD	imagerel $LN44@DrawDebugS+389
	DD	imagerel $unwind$?DrawDebugSphere@@YAXU?$vec@$02M$0A@@glm@@U?$vec@$03M$0A@@2@MI@Z
pdata	ENDS
;	COMDAT pdata
pdata	SEGMENT
$pdata$?dtor$0@?0??DrawDebugSphere@@YAXU?$vec@$02M$0A@@glm@@U?$vec@$03M$0A@@2@MI@Z@4HA DD imagerel ?dtor$0@?0??DrawDebugSphere@@YAXU?$vec@$02M$0A@@glm@@U?$vec@$03M$0A@@2@MI@Z@4HA
	DD	imagerel ?dtor$0@?0??DrawDebugSphere@@YAXU?$vec@$02M$0A@@glm@@U?$vec@$03M$0A@@2@MI@Z@4HA+32
	DD	imagerel $unwind$?dtor$0@?0??DrawDebugSphere@@YAXU?$vec@$02M$0A@@glm@@U?$vec@$03M$0A@@2@MI@Z@4HA
pdata	ENDS
;	COMDAT pdata
pdata	SEGMENT
$pdata$?DrawMesh@@YAXPEAUsMesh@@U?$mat@$03$03M$0A@@glm@@I_N@Z DD imagerel $LN635@DrawMesh
	DD	imagerel $LN635@DrawMesh+2797
	DD	imagerel $unwind$?DrawMesh@@YAXPEAUsMesh@@U?$mat@$03$03M$0A@@glm@@I_N@Z
pdata	ENDS
;	COMDAT pdata
pdata	SEGMENT
$pdata$?SetUpTextures@@YAXPEAUsMesh@@I@Z DD imagerel $LN115@SetUpTextu
	DD	imagerel $LN115@SetUpTextu+664
	DD	imagerel $unwind$?SetUpTextures@@YAXPEAUsMesh@@I@Z
;	COMDAT xdata
xdata	SEGMENT
$unwind$?SetUpTextures@@YAXPEAUsMesh@@I@Z DQ 00013541200081201r ; 2.68794e-308
	DQ	0e00eb21200123412r		; -5.14451e+154
	DD	0600b700cH
xdata	ENDS
;	COMDAT xdata
xdata	SEGMENT
$ip2state$?DrawMesh@@YAXPEAUsMesh@@U?$mat@$03$03M$0A@@glm@@I_N@Z DQ 0b10208250010c90er ; -1.27571e-72
	DQ	0055d08d606e40404r		; 7.81014e-283
	DD	04a106H
xdata	ENDS
;	COMDAT xdata
xdata	SEGMENT
$stateUnwindMap$?DrawMesh@@YAXPEAUsMesh@@U?$mat@$03$03M$0A@@glm@@I_N@Z DW 0a08H
	DD	imagerel ??1?$basic_string@DU?$char_traits@D@std@@V?$allocator@D@2@@std@@QEAA@XZ
	DW	05c1H
	DB	03aH
	DD	imagerel ??1sModelDrawInfo@@QEAA@XZ
	DW	0381H
	DB	03aH
	DD	imagerel ??1?$vector@PEAUsMesh@@V?$allocator@PEAUsMesh@@@std@@@std@@QEAA@XZ
	DW	0281H
	DB	03aH
	DD	imagerel ??1?$vector@PEAUsMesh@@V?$allocator@PEAUsMesh@@@std@@@std@@QEAA@XZ
	DW	0201H
xdata	ENDS
;	COMDAT xdata
xdata	SEGMENT
$cppxdata$?DrawMesh@@YAXPEAUsMesh@@U?$mat@$03$03M$0A@@glm@@I_N@Z DB 028H
	DD	imagerel $stateUnwindMap$?DrawMesh@@YAXPEAUsMesh@@U?$mat@$03$03M$0A@@glm@@I_N@Z
	DD	imagerel $ip2state$?DrawMesh@@YAXPEAUsMesh@@U?$mat@$03$03M$0A@@glm@@I_N@Z
xdata	ENDS
;	COMDAT xdata
xdata	SEGMENT
$unwind$?DrawMesh@@YAXPEAUsMesh@@U?$mat@$03$03M$0A@@glm@@I_N@Z DQ 0002a8829000f3a19r ; 7.37942e-308
	DQ	000633420002b7824r		; 8.54589e-307
	DQ	0e010f01200580120r		; -5.67746e+154
	DQ	06009700ac00cd00er		; 4.26329e+154
	DD	05008H
	DD	imagerel __GSHandlerCheck_EH4
	DD	imagerel $cppxdata$?DrawMesh@@YAXPEAUsMesh@@U?$mat@$03$03M$0A@@glm@@I_N@Z
	DD	0292H
xdata	ENDS
;	COMDAT xdata
xdata	SEGMENT
$unwind$?dtor$0@?0??DrawDebugSphere@@YAXU?$vec@$02M$0A@@glm@@U?$vec@$03M$0A@@2@MI@Z@4HA DQ 05002320600020601r ; 2.6336e+77
xdata	ENDS
;	COMDAT xdata
xdata	SEGMENT
$ip2state$?DrawDebugSphere@@YAXU?$vec@$02M$0A@@glm@@U?$vec@$03M$0A@@2@MI@Z DD 020006a06H
	DW	03a02H
	DB	00H
xdata	ENDS
;	COMDAT xdata
xdata	SEGMENT
$stateUnwindMap$?DrawDebugSphere@@YAXU?$vec@$02M$0A@@glm@@U?$vec@$03M$0A@@2@MI@Z DW 0e02H
	DD	imagerel ?dtor$0@?0??DrawDebugSphere@@YAXU?$vec@$02M$0A@@glm@@U?$vec@$03M$0A@@2@MI@Z@4HA
xdata	ENDS
;	COMDAT xdata
xdata	SEGMENT
$cppxdata$?DrawDebugSphere@@YAXU?$vec@$02M$0A@@glm@@U?$vec@$03M$0A@@2@MI@Z DB 028H
	DD	imagerel $stateUnwindMap$?DrawDebugSphere@@YAXU?$vec@$02M$0A@@glm@@U?$vec@$03M$0A@@2@MI@Z
	DD	imagerel $ip2state$?DrawDebugSphere@@YAXU?$vec@$02M$0A@@glm@@U?$vec@$03M$0A@@2@MI@Z
xdata	ENDS
;	COMDAT xdata
xdata	SEGMENT
$unwind$?DrawDebugSphere@@YAXU?$vec@$02M$0A@@glm@@U?$vec@$03M$0A@@2@MI@Z DQ 00006681400081411r ; 8.90941e-309
	DQ	00011340f0012640fr		; 2.39242e-308
	DD	0700bd20fH
	DD	imagerel __CxxFrameHandler4
	DD	imagerel $cppxdata$?DrawDebugSphere@@YAXU?$vec@$02M$0A@@glm@@U?$vec@$03M$0A@@2@MI@Z
xdata	ENDS
;	COMDAT xdata
xdata	SEGMENT
$unwind$??1?$vector@PEAUsMesh@@V?$allocator@PEAUsMesh@@@std@@@std@@QEAA@XZ DQ 03002320600020601r ; 1.96423e-77
xdata	ENDS
;	COMDAT xdata
xdata	SEGMENT
$unwind$?_Tidy@?$vector@PEAUsMesh@@V?$allocator@PEAUsMesh@@@std@@@std@@AEAAXXZ DQ 03002320600020601r ; 1.96423e-77
xdata	ENDS
;	COMDAT xdata
xdata	SEGMENT
$chain$5$??$_Sort_unchecked@PEAPEAUsMesh@@P6A_NPEAU1@0@Z@std@@YAXPEAPEAUsMesh@@0_JP6A_NPEAU1@2@Z@Z DD 021H
	DD	imagerel $LN79@Sort_unche
	DD	imagerel $LN79@Sort_unche+191
	DD	imagerel $unwind$??$_Sort_unchecked@PEAPEAUsMesh@@P6A_NPEAU1@0@Z@std@@YAXPEAPEAUsMesh@@0_JP6A_NPEAU1@2@Z@Z
xdata	ENDS
;	COMDAT xdata
xdata	SEGMENT
$chain$4$??$_Sort_unchecked@PEAPEAUsMesh@@P6A_NPEAU1@0@Z@std@@YAXPEAPEAUsMesh@@0_JP6A_NPEAU1@2@Z@Z DQ 0000ac40000020021r ; 1.49714e-308
	DD	imagerel $LN79@Sort_unche
	DD	imagerel $LN79@Sort_unche+191
	DD	imagerel $unwind$??$_Sort_unchecked@PEAPEAUsMesh@@P6A_NPEAU1@0@Z@std@@YAXPEAPEAUsMesh@@0_JP6A_NPEAU1@2@Z@Z
xdata	ENDS
;	COMDAT xdata
xdata	SEGMENT
$chain$3$??$_Sort_unchecked@PEAPEAUsMesh@@P6A_NPEAU1@0@Z@std@@YAXPEAPEAUsMesh@@0_JP6A_NPEAU1@2@Z@Z DQ 00009f40000040021r ; 1.38415e-308
	DD	0ac400H
	DD	imagerel $LN79@Sort_unche
	DD	imagerel $LN79@Sort_unche+191
	DD	imagerel $unwind$??$_Sort_unchecked@PEAPEAUsMesh@@P6A_NPEAU1@0@Z@std@@YAXPEAPEAUsMesh@@0_JP6A_NPEAU1@2@Z@Z
xdata	ENDS
;	COMDAT xdata
xdata	SEGMENT
$chain$2$??$_Sort_unchecked@PEAPEAUsMesh@@P6A_NPEAU1@0@Z@std@@YAXPEAPEAUsMesh@@0_JP6A_NPEAU1@2@Z@Z DD 021H
	DD	imagerel $LN79@Sort_unche
	DD	imagerel $LN79@Sort_unche+191
	DD	imagerel $unwind$??$_Sort_unchecked@PEAPEAUsMesh@@P6A_NPEAU1@0@Z@std@@YAXPEAPEAUsMesh@@0_JP6A_NPEAU1@2@Z@Z
xdata	ENDS
;	COMDAT xdata
xdata	SEGMENT
$chain$1$??$_Sort_unchecked@PEAPEAUsMesh@@P6A_NPEAU1@0@Z@std@@YAXPEAPEAUsMesh@@0_JP6A_NPEAU1@2@Z@Z DQ 00009f41a00041a21r ; 1.38421e-308
	DD	0ac405H
	DD	imagerel $LN79@Sort_unche
	DD	imagerel $LN79@Sort_unche+191
	DD	imagerel $unwind$??$_Sort_unchecked@PEAPEAUsMesh@@P6A_NPEAU1@0@Z@std@@YAXPEAPEAUsMesh@@0_JP6A_NPEAU1@2@Z@Z
xdata	ENDS
;	COMDAT xdata
xdata	SEGMENT
$unwind$??$_Sort_unchecked@PEAPEAUsMesh@@P6A_NPEAU1@0@Z@std@@YAXPEAPEAUsMesh@@0_JP6A_NPEAU1@2@Z@Z DQ 0e009a20d00070d01r ; -4.29603e+154
	DQ	0500360047005d007r		; 2.80435e+77
	DD	03002H
xdata	ENDS
;	COMDAT xdata
xdata	SEGMENT
$chain$6$??$_Insertion_sort_unchecked@PEAPEAUsMesh@@P6A_NPEAU1@0@Z@std@@YAPEAPEAUsMesh@@QEAPEAU1@0P6A_NPEAU1@1@Z@Z DD 021H
	DD	imagerel $LN36@Insertion_
	DD	imagerel $LN36@Insertion_+28
	DD	imagerel $unwind$??$_Insertion_sort_unchecked@PEAPEAUsMesh@@P6A_NPEAU1@0@Z@std@@YAPEAPEAUsMesh@@QEAPEAU1@0P6A_NPEAU1@1@Z@Z
xdata	ENDS
;	COMDAT xdata
xdata	SEGMENT
$chain$5$??$_Insertion_sort_unchecked@PEAPEAUsMesh@@P6A_NPEAU1@0@Z@std@@YAPEAPEAUsMesh@@QEAPEAU1@0P6A_NPEAU1@1@Z@Z DD 021H
	DD	imagerel $LN36@Insertion_+28
	DD	imagerel $LN36@Insertion_+54
	DD	imagerel $chain$1$??$_Insertion_sort_unchecked@PEAPEAUsMesh@@P6A_NPEAU1@0@Z@std@@YAPEAPEAUsMesh@@QEAPEAU1@0P6A_NPEAU1@1@Z@Z
xdata	ENDS
;	COMDAT xdata
xdata	SEGMENT
$chain$4$??$_Insertion_sort_unchecked@PEAPEAUsMesh@@P6A_NPEAU1@0@Z@std@@YAPEAPEAUsMesh@@QEAPEAU1@0P6A_NPEAU1@1@Z@Z DQ 00004e40f00060f21r ; 6.80157e-309
	DQ	0000d34050007640ar		; 1.83613e-308
	DD	imagerel $LN36@Insertion_+28
	DD	imagerel $LN36@Insertion_+54
	DD	imagerel $chain$1$??$_Insertion_sort_unchecked@PEAPEAUsMesh@@P6A_NPEAU1@0@Z@std@@YAPEAPEAUsMesh@@QEAPEAU1@0P6A_NPEAU1@1@Z@Z
xdata	ENDS
;	COMDAT xdata
xdata	SEGMENT
$chain$1$??$_Insertion_sort_unchecked@PEAPEAUsMesh@@P6A_NPEAU1@0@Z@std@@YAPEAPEAUsMesh@@QEAPEAU1@0P6A_NPEAU1@1@Z@Z DQ 00005d40a00040a21r ; 8.10522e-309
	DD	067405H
	DD	imagerel $LN36@Insertion_
	DD	imagerel $LN36@Insertion_+28
	DD	imagerel $unwind$??$_Insertion_sort_unchecked@PEAPEAUsMesh@@P6A_NPEAU1@0@Z@std@@YAPEAPEAUsMesh@@QEAPEAU1@0P6A_NPEAU1@1@Z@Z
xdata	ENDS
;	COMDAT xdata
xdata	SEGMENT
$unwind$??$_Insertion_sort_unchecked@PEAPEAUsMesh@@P6A_NPEAU1@0@Z@std@@YAPEAPEAUsMesh@@QEAPEAU1@0P6A_NPEAU1@1@Z@Z DQ 0f006720a00040a01r ; -4.35587e+231
	DD	05002c004H
xdata	ENDS
;	COMDAT xdata
xdata	SEGMENT
$unwind$??$_Make_heap_unchecked@PEAPEAUsMesh@@P6A_NPEAU1@0@Z@std@@YAXPEAPEAUsMesh@@0P6A_NPEAU1@1@Z@Z DQ 0000b641400081401r ; 1.5841e-308
	DQ	000093414000a5414r		; 1.27989e-308
	DD	070105214H
xdata	ENDS
;	COMDAT xdata
xdata	SEGMENT
$chain$2$??$_Sort_heap_unchecked@PEAPEAUsMesh@@P6A_NPEAU1@0@Z@std@@YAXPEAPEAUsMesh@@0P6A_NPEAU1@1@Z@Z DD 021H
	DD	imagerel $LN18@Sort_heap_
	DD	imagerel $LN18@Sort_heap_+32
	DD	imagerel $unwind$??$_Sort_heap_unchecked@PEAPEAUsMesh@@P6A_NPEAU1@0@Z@std@@YAXPEAPEAUsMesh@@0P6A_NPEAU1@1@Z@Z
xdata	ENDS
;	COMDAT xdata
xdata	SEGMENT
$chain$1$??$_Sort_heap_unchecked@PEAPEAUsMesh@@P6A_NPEAU1@0@Z@std@@YAXPEAPEAUsMesh@@0P6A_NPEAU1@1@Z@Z DQ 0000a640e00040e21r ; 1.44502e-308
	DD	093405H
	DD	imagerel $LN18@Sort_heap_
	DD	imagerel $LN18@Sort_heap_+32
	DD	imagerel $unwind$??$_Sort_heap_unchecked@PEAPEAUsMesh@@P6A_NPEAU1@0@Z@std@@YAXPEAPEAUsMesh@@0P6A_NPEAU1@1@Z@Z
xdata	ENDS
;	COMDAT xdata
xdata	SEGMENT
$unwind$??$_Sort_heap_unchecked@PEAPEAUsMesh@@P6A_NPEAU1@0@Z@std@@YAXPEAPEAUsMesh@@0P6A_NPEAU1@1@Z@Z DQ 0000b540a00040a01r ; 1.57539e-308
	DD	07006520aH
xdata	ENDS
;	COMDAT xdata
xdata	SEGMENT
$unwind$??$_Partition_by_median_guess_unchecked@PEAPEAUsMesh@@P6A_NPEAU1@0@Z@std@@YA?AU?$pair@PEAPEAUsMesh@@PEAPEAU1@@0@PEAPEAUsMesh@@0P6A_NPEAU2@1@Z@Z DQ 0000d6421000c2101r ; 1.86227e-308
	DQ	0000b3421000c5421r		; 1.55806e-308
	DQ	0d019e01bf01d3221r		; -7.49042e+77
	DD	07015c017H
xdata	ENDS
;	COMDAT xdata
xdata	SEGMENT
$chain$3$??$_Pop_heap_hole_by_index@PEAPEAUsMesh@@PEAU1@P6A_NPEAU1@0@Z@std@@YAXPEAPEAUsMesh@@_J1$$QEAPEAU1@P6A_NPEAU1@3@Z@Z DD 021H
	DD	imagerel $LN30@Pop_heap_h
	DD	imagerel $LN30@Pop_heap_h+25
	DD	imagerel $unwind$??$_Pop_heap_hole_by_index@PEAPEAUsMesh@@PEAU1@P6A_NPEAU1@0@Z@std@@YAXPEAPEAUsMesh@@_J1$$QEAPEAU1@P6A_NPEAU1@3@Z@Z
xdata	ENDS
;	COMDAT xdata
xdata	SEGMENT
$chain$2$??$_Pop_heap_hole_by_index@PEAPEAUsMesh@@PEAU1@P6A_NPEAU1@0@Z@std@@YAXPEAPEAUsMesh@@_J1$$QEAPEAU1@P6A_NPEAU1@3@Z@Z DQ 0000bd40000020021r ; 1.6449e-308
	DD	imagerel $LN30@Pop_heap_h
	DD	imagerel $LN30@Pop_heap_h+25
	DD	imagerel $unwind$??$_Pop_heap_hole_by_index@PEAPEAUsMesh@@PEAU1@P6A_NPEAU1@0@Z@std@@YAXPEAPEAUsMesh@@_J1$$QEAPEAU1@P6A_NPEAU1@3@Z@Z
xdata	ENDS
;	COMDAT xdata
xdata	SEGMENT
$chain$1$??$_Pop_heap_hole_by_index@PEAPEAUsMesh@@PEAU1@P6A_NPEAU1@0@Z@std@@YAXPEAPEAUsMesh@@_J1$$QEAPEAU1@P6A_NPEAU1@3@Z@Z DQ 0000bd41000041021r ; 1.64494e-308
	DD	0a5405H
	DD	imagerel $LN30@Pop_heap_h
	DD	imagerel $LN30@Pop_heap_h+25
	DD	imagerel $unwind$??$_Pop_heap_hole_by_index@PEAPEAUsMesh@@PEAU1@P6A_NPEAU1@0@Z@std@@YAXPEAPEAUsMesh@@_J1$$QEAPEAU1@P6A_NPEAU1@3@Z@Z
xdata	ENDS
;	COMDAT xdata
xdata	SEGMENT
$unwind$??$_Pop_heap_hole_by_index@PEAPEAUsMesh@@PEAU1@P6A_NPEAU1@0@Z@std@@YAXPEAPEAUsMesh@@_J1$$QEAPEAU1@P6A_NPEAU1@3@Z@Z DQ 0000c341100081101r ; 1.69709e-308
	DQ	0c009e00bf00d3211r		; -3.2344
	DD	060067007H
xdata	ENDS
;	COMDAT xdata
xdata	SEGMENT
$unwind$??$_Pop_heap_unchecked@PEAPEAUsMesh@@P6A_NPEAU1@0@Z@std@@YAXPEAPEAUsMesh@@0P6A_NPEAU1@1@Z@Z DQ 00000620400010401r ; 5.32451e-310
xdata	ENDS
;	COMDAT xdata
xdata	SEGMENT
$chain$4$??$_Guess_median_unchecked@PEAPEAUsMesh@@P6A_NPEAU1@0@Z@std@@YAXPEAPEAUsMesh@@00P6A_NPEAU1@1@Z@Z DD 021H
	DD	imagerel $LN105@Guess_medi
	DD	imagerel $LN105@Guess_medi+47
	DD	imagerel $unwind$??$_Guess_median_unchecked@PEAPEAUsMesh@@P6A_NPEAU1@0@Z@std@@YAXPEAPEAUsMesh@@00P6A_NPEAU1@1@Z@Z
xdata	ENDS
;	COMDAT xdata
xdata	SEGMENT
$chain$3$??$_Guess_median_unchecked@PEAPEAUsMesh@@P6A_NPEAU1@0@Z@std@@YAXPEAPEAUsMesh@@00P6A_NPEAU1@1@Z@Z DD 021H
	DD	imagerel $LN105@Guess_medi+47
	DD	imagerel $LN105@Guess_medi+65
	DD	imagerel $chain$1$??$_Guess_median_unchecked@PEAPEAUsMesh@@P6A_NPEAU1@0@Z@std@@YAXPEAPEAUsMesh@@00P6A_NPEAU1@1@Z@Z
xdata	ENDS
;	COMDAT xdata
xdata	SEGMENT
$chain$2$??$_Guess_median_unchecked@PEAPEAUsMesh@@P6A_NPEAU1@0@Z@std@@YAXPEAPEAUsMesh@@00P6A_NPEAU1@1@Z@Z DQ 0000af40500020521r ; 1.52323e-308
	DD	imagerel $LN105@Guess_medi+47
	DD	imagerel $LN105@Guess_medi+65
	DD	imagerel $chain$1$??$_Guess_median_unchecked@PEAPEAUsMesh@@P6A_NPEAU1@0@Z@std@@YAXPEAPEAUsMesh@@00P6A_NPEAU1@1@Z@Z
xdata	ENDS
;	COMDAT xdata
xdata	SEGMENT
$chain$1$??$_Guess_median_unchecked@PEAPEAUsMesh@@P6A_NPEAU1@0@Z@std@@YAXPEAPEAUsMesh@@00P6A_NPEAU1@1@Z@Z DQ 00009e40e00040e21r ; 1.37549e-308
	DD	08c405H
	DD	imagerel $LN105@Guess_medi
	DD	imagerel $LN105@Guess_medi+47
	DD	imagerel $unwind$??$_Guess_median_unchecked@PEAPEAUsMesh@@P6A_NPEAU1@0@Z@std@@YAXPEAPEAUsMesh@@00P6A_NPEAU1@1@Z@Z
xdata	ENDS
;	COMDAT xdata
xdata	SEGMENT
$unwind$??$_Guess_median_unchecked@PEAPEAUsMesh@@P6A_NPEAU1@0@Z@std@@YAXPEAPEAUsMesh@@00P6A_NPEAU1@1@Z@Z DQ 0000b340c00060c01r ; 1.55801e-308
	DQ	0500660077008320cr		; 3.23858e+77
xdata	ENDS
;	COMDAT xdata
xdata	SEGMENT
$chain$4$??$_Push_heap_by_index@PEAPEAUsMesh@@PEAU1@P6A_NPEAU1@0@Z@std@@YAXPEAPEAUsMesh@@_J1$$QEAPEAU1@P6A_NPEAU1@3@Z@Z DD 021H
	DD	imagerel $LN18@Push_heap_
	DD	imagerel $LN18@Push_heap_+30
	DD	imagerel $unwind$??$_Push_heap_by_index@PEAPEAUsMesh@@PEAU1@P6A_NPEAU1@0@Z@std@@YAXPEAPEAUsMesh@@_J1$$QEAPEAU1@P6A_NPEAU1@3@Z@Z
xdata	ENDS
;	COMDAT xdata
xdata	SEGMENT
$chain$3$??$_Push_heap_by_index@PEAPEAUsMesh@@PEAU1@P6A_NPEAU1@0@Z@std@@YAXPEAPEAUsMesh@@_J1$$QEAPEAU1@P6A_NPEAU1@3@Z@Z DQ 00009f40000040021r ; 1.38415e-308
	DD	087400H
	DD	imagerel $LN18@Push_heap_
	DD	imagerel $LN18@Push_heap_+30
	DD	imagerel $unwind$??$_Push_heap_by_index@PEAPEAUsMesh@@PEAU1@P6A_NPEAU1@0@Z@std@@YAXPEAPEAUsMesh@@_J1$$QEAPEAU1@P6A_NPEAU1@3@Z@Z
xdata	ENDS
;	COMDAT xdata
xdata	SEGMENT
$chain$1$??$_Push_heap_by_index@PEAPEAUsMesh@@PEAU1@P6A_NPEAU1@0@Z@std@@YAXPEAPEAUsMesh@@_J1$$QEAPEAU1@P6A_NPEAU1@3@Z@Z DQ 00009f40a00040a21r ; 1.38417e-308
	DD	087405H
	DD	imagerel $LN18@Push_heap_
	DD	imagerel $LN18@Push_heap_+30
	DD	imagerel $unwind$??$_Push_heap_by_index@PEAPEAUsMesh@@PEAU1@P6A_NPEAU1@0@Z@std@@YAXPEAPEAUsMesh@@_J1$$QEAPEAU1@P6A_NPEAU1@3@Z@Z
xdata	ENDS
;	COMDAT xdata
xdata	SEGMENT
$unwind$??$_Push_heap_by_index@PEAPEAUsMesh@@PEAU1@P6A_NPEAU1@0@Z@std@@YAXPEAPEAUsMesh@@_J1$$QEAPEAU1@P6A_NPEAU1@3@Z@Z DQ 0000a340d00060d01r ; 1.41895e-308
	DQ	050066007e009320dr		; 3.23858e+77
xdata	ENDS
;	COMDAT xdata
xdata	SEGMENT
$unwind$??$_Med3_unchecked@PEAPEAUsMesh@@P6A_NPEAU1@0@Z@std@@YAXPEAPEAUsMesh@@00P6A_NPEAU1@1@Z@Z DQ 00008641400081401r ; 1.1669e-308
	DQ	00006341400075414r		; 8.62693e-309
	DD	070103214H
END
