; Listing generated by Microsoft (R) Optimizing Compiler Version 19.43.34808.0 

include listing.inc

INCLUDELIB OLDNAMES

PUBLIC	?g_pPhysX@@3PEAVcPhysXWraper@@EA		; g_pPhysX
PUBLIC	?g_numLODTrisDrawnThisFrame@@3IA		; g_numLODTrisDrawnThisFrame
PUBLIC	?g_pTextures@@3PEAVcBasicTextureManager@@EA	; g_pTextures
PUBLIC	?g_pParticles@@3PEAVcParticleEmitter_2@@EA	; g_pParticles
PUBLIC	?g_pFBO_G_Buffer@@3PEAVcFBO_deferred@@EA	; g_pFBO_G_Buffer
PUBLIC	??_C@_04LOAJBDKD@true@				; `string'
PUBLIC	??_C@_0L@DCCGFMBN@Error?3?5?$CFs?6@		; `string'
PUBLIC	??_C@_01PKGAHCOL@?$CJ@				; `string'
PUBLIC	??_C@_02KEGNLNML@?0?5@				; `string'
PUBLIC	??_C@_01ODHLEDKK@?$CI@				; `string'
PUBLIC	??_C@_0BO@JKMHNAP@Spidey?5Gets?5the?5Scooby?5Snacks@ ; `string'
PUBLIC	??_C@_0BN@GONHDNAO@assets?1shaders?1vertex01?4glsl@ ; `string'
PUBLIC	??_C@_0CG@FFDBHMGN@assets?1shaders?1geom_pass_throug@ ; `string'
PUBLIC	??_C@_0BP@NNDMOKLC@assets?1shaders?1fragment01?4glsl@ ; `string'
PUBLIC	??_C@_08BPKANHFK@shader01@			; `string'
PUBLIC	??_C@_0P@OLDEAGJP@Error?5shader?3?5@		; `string'
PUBLIC	??_C@_0BA@MKAOCJPG@Shader?5built?5OK@		; `string'
PUBLIC	??_C@_0DF@LODGJDP@assets?1models?1Simple_MeshLab_te@ ; `string'
PUBLIC	??_C@_09PFCHIMEP@127?40?40?41@			; `string'
PUBLIC	??_C@_0CH@LPJPIDEF@Can?8t?5create?5light?5shadowmap?5be@ ; `string'
PUBLIC	??_C@_0BE@GJLBHMFB@Loading?5textures?4?4?4@	; `string'
PUBLIC	??_C@_0DA@CNPBFGAH@ERROR?3?5Can?8t?5init?5deferred?5FBO?5@ ; `string'
PUBLIC	??_C@_0BI@BDKDDLBD@Deferred?5FBO?5init?$CI?$CJ?5OK?4@ ; `string'
PUBLIC	??_C@_1BA@GIHLHEJH@?$AAT?$AAh?$AAr?$AAe?$AAa?$AAd?$AA?$DP@ ; `string'
PUBLIC	??_C@_1GC@LJAAOFCD@?$AAW?$AAo?$AAu?$AAl?$AAd?$AA?5?$AAy?$AAo?$AAu?$AA?5?$AAl?$AAi?$AAk?$AAe?$AA?5@ ; `string'
PUBLIC	??_C@_0BB@GFDIPMHB@renderPassNumber@		; `string'
PUBLIC	??_C@_03LGOGDKEL@?5?$HM?5@			; `string'
PUBLIC	??_C@_0BH@JBOJECFH@Get?5the?5Scooby?5Snacks?$CB@ ; `string'
PUBLIC	??_C@_06CJPMNLAP@?5FPS?3?5@			; `string'
PUBLIC	??_C@_19NNHMCLFE@?$AAS?$AAA?$AAV?$AAE@		; `string'
PUBLIC	??_C@_1FG@PFMFAJCA@?$AAW?$AAo?$AAu?$AAl?$AAd?$AA?5?$AAy?$AAo?$AAu?$AA?5?$AAl?$AAi?$AAk?$AAe?$AA?5@ ; `string'
PUBLIC	??_C@_0N@IBNMIIAC@meshInfo?4txt@		; `string'
PUBLIC	??_C@_0N@LILJFLC@Light_Sphere@			; `string'
PUBLIC	??_C@_0M@HKHELENG@Position?5?9?5@		; `string'
PUBLIC	??_C@_03MMEIOMHE@x?3?5@				; `string'
PUBLIC	??_C@_03HEPEILBB@y?3?5@				; `string'
PUBLIC	??_C@_03GGEBCEPP@z?3?5@				; `string'
PUBLIC	??_C@_0M@MPELJDCI@Rotation?5?9?5@		; `string'
PUBLIC	??_C@_08KELBPNI@Scale?5?9?5@			; `string'
PUBLIC	??_C@_02PHMGELLB@?6?6@				; `string'
PUBLIC	??_C@_0O@IPHAGACE@Saved?5Meshes?$CB@		; `string'
PUBLIC	??_C@_0P@ENCPCKAD@Cancelled?5Save@		; `string'
PUBLIC	??_C@_19LIDMLGEF@?$AAL?$AAO?$AAA?$AAD@		; `string'
PUBLIC	??_C@_1FG@KPBAHGKB@?$AAW?$AAo?$AAu?$AAl?$AAd?$AA?5?$AAy?$AAo?$AAu?$AA?5?$AAl?$AAi?$AAk?$AAe?$AA?5@ ; `string'
PUBLIC	??_C@_0P@GHBGGOGH@Loaded?5Meshes?$CB@		; `string'
PUBLIC	??_C@_0P@EPDCNJNH@Cancelled?5Load@		; `string'
PUBLIC	??_C@_1FI@JHNPMICL@?$AAW?$AAo?$AAu?$AAl?$AAd?$AA?5?$AAy?$AAo?$AAu?$AA?5?$AAl?$AAi?$AAk?$AAe?$AA?5@ ; `string'
PUBLIC	??_C@_0O@GFPMHPKD@lightInfo?4txt@		; `string'
PUBLIC	??_C@_05BGOFFEGG@Point@				; `string'
PUBLIC	??_C@_04CFIJCNIK@Spot@				; `string'
PUBLIC	??_C@_0M@FBOAGEAO@Directional@			; `string'
PUBLIC	??_C@_03MPPIHBHJ@OFF@				; `string'
PUBLIC	??_C@_02BFICIOJL@ON@				; `string'
PUBLIC	??_C@_06NNDPPBIB@Light?5@			; `string'
PUBLIC	??_C@_08LEFIHLIN@Linear?3?5@			; `string'
PUBLIC	??_C@_0M@MBOFPJPK@Quadratic?3?5@		; `string'
PUBLIC	??_C@_0O@PEJIHKLJ@Saved?5Lights?$CB@		; `string'
PUBLIC	??_C@_0P@BMPOHEPK@Loaded?5Lights?$CB@		; `string'
PUBLIC	??_C@_0P@CGHBHIKI@cameraInfo?4txt@		; `string'
PUBLIC	??_C@_0BI@OOKJEMHJ@Camera?5Position?5Loaded?$CB@ ; `string'
PUBLIC	??_C@_0P@DCIIJPDH@loadMeshes?4txt@		; `string'
PUBLIC	??_C@_0P@FHMPCAIL@drawMeshes?4txt@		; `string'
PUBLIC	??_C@_0BA@CIDOPIFF@assets?1textures@		; `string'
PUBLIC	??_C@_0BM@NJMJCFFH@Grey_Brick_Wall_Texture?4bmp@ ; `string'
PUBLIC	??_C@_0BE@HKMLJJKI@wall_texture_01?4bmp@	; `string'
PUBLIC	??_C@_0BE@PMFPOLAG@wall_texture_02?4bmp@	; `string'
PUBLIC	??_C@_0BK@OGFFMMLH@wood_floor_texture_01?4bmp@	; `string'
PUBLIC	??_C@_0BH@MNGGPMLA@ceiling_texture_01?4bmp@	; `string'
PUBLIC	??_C@_0BH@BDNGEEHP@chandelier_texture?4bmp@	; `string'
PUBLIC	??_C@_0BD@GJBOEHEE@window_texture?4bmp@		; `string'
PUBLIC	??_C@_0BC@PDIOADIH@window_cutout?4bmp@		; `string'
PUBLIC	??_C@_0BB@LLJFBPNP@door_texture?4bmp@		; `string'
PUBLIC	??_C@_0BH@GJFODEPN@wall_light_texture?4bmp@	; `string'
PUBLIC	??_C@_0BJ@HJFPOOCN@light_switch_texture?4bmp@	; `string'
PUBLIC	??_C@_0BE@IAGIHFKM@cabinet_texture?4bmp@	; `string'
PUBLIC	??_C@_0BC@BPPLOMBI@grass_texture?4bmp@		; `string'
PUBLIC	??_C@_0BK@IEAFOFKE@low_poly_tree_texture?4bmp@	; `string'
PUBLIC	??_C@_0BB@KIKKNAMO@dirt_texture?4bmp@		; `string'
PUBLIC	??_C@_0BB@FKJCEAMJ@vase_texture?4bmp@		; `string'
PUBLIC	??_C@_0BH@FNBLFMBO@basketball_texture?4bmp@	; `string'
PUBLIC	??_C@_0BG@EMPDIPIN@scratches_texture?4bmp@	; `string'
PUBLIC	??_C@_0BC@DCNEOFOE@money_texture?4bmp@		; `string'
PUBLIC	??_C@_0P@JBNFMBFD@tv_texture?4bmp@		; `string'
PUBLIC	??_C@_0BD@LDAGDAML@dua?9lipa?9promo?4bmp@	; `string'
PUBLIC	??_C@_0BB@JJGIBFC@Puzzle_parts?4bmp@		; `string'
PUBLIC	??_C@_0CP@HFKLMKKG@Non?9uniform?5concrete?5wall?50512?9@ ; `string'
PUBLIC	??_C@_0DG@PBKMFDCO@shape?9element?9splattered?9textur@ ; `string'
PUBLIC	??_C@_0CC@FDMEDAHG@dirty?9metal?9texture_1048?94784?4b@ ; `string'
PUBLIC	??_C@_0CO@HFADEKI@bad_bunny_1920x1080_24bit_black@ ; `string'
PUBLIC	??_C@_0BH@HOPBHDEH@SurprisedChildFace?4bmp@	; `string'
PUBLIC	??_C@_0BJ@HHMGGFMD@Chinese_Flag_Texture?4bmp@	; `string'
PUBLIC	??_C@_0BA@DHIHKFEJ@solid_black?4bmp@		; `string'
PUBLIC	??_C@_0EE@OIAHKGDD@assets?1models?1Wooden?5barrel?5?$CIha@ ; `string'
PUBLIC	??_C@_0BE@EIJLEEKP@assets?1models?1Stool@	; `string'
PUBLIC	??_C@_0BL@LANICDAF@Stool_AlbedoSmoothness?4bmp@	; `string'
PUBLIC	??_C@_0BB@NBODHJJN@Stool_Normal?4bmp@		; `string'
PUBLIC	??_C@_0BM@LFAOFODM@assets?1models?1House?1Texture@ ; `string'
PUBLIC	??_C@_0BO@PPHGCAAP@assets?1models?1Forest?1Textures@ ; `string'
PUBLIC	??_C@_09HCNPPKJH@Grass?4bmp@			; `string'
PUBLIC	??_C@_0EO@BFNDLGJL@assets?1models?1FBX_Wooden_assets@ ; `string'
PUBLIC	??_C@_0EO@HFLDHAPA@assets?1models?1FBX_Wooden_assets@ ; `string'
PUBLIC	??_C@_0CO@MPBPEBPE@assets?1models?1Fireplace?1firePla@ ; `string'
PUBLIC	??_C@_0DO@DOAKDKJP@assets?1models?1Chandelier?1benevi@ ; `string'
PUBLIC	??_C@_0CI@CMMOGPHP@assets?1models?1Candle?1Candle_Tex@ ; `string'
PUBLIC	??_C@_0BJ@INBLCHCH@assets?1textures?1CubeMaps@	; `string'
PUBLIC	??_C@_0BH@BLMNAGHG@DarkStormyBack2048?4bmp@	; `string'
PUBLIC	??_C@_0BI@INHILGB@DarkStormyFront2048?4bmp@	; `string'
PUBLIC	??_C@_0BF@LFPGMIOC@DarkStormyUp2048?4bmp@	; `string'
PUBLIC	??_C@_0BH@KKBPHGLI@DarkStormyDown2048?4bmp@	; `string'
PUBLIC	??_C@_0BI@MKLOJNNC@DarkStormyRight2048?4bmp@	; `string'
PUBLIC	??_C@_0BH@EFNPEHJO@DarkStormyLeft2048?4bmp@	; `string'
PUBLIC	??_C@_0BH@GFNKPOBC@Loaded?5dark?5sky?5skybox@	; `string'
PUBLIC	??_C@_0CN@PKCBLCAM@ERROR?3?5Didn?8t?5load?5dark?5sky?5sky@ ; `string'
PUBLIC	?g_pTerrainPathChooser@@3PEAVcTerrainPathChooser@@EA ; g_pTerrainPathChooser
PUBLIC	?_OptionsStorage@?1??__local_stdio_printf_options@@9@4_KA ; `__local_stdio_printf_options'::`2'::_OptionsStorage
PUBLIC	?cs_particleThread@@3U_RTL_CRITICAL_SECTION@@A	; cs_particleThread
PUBLIC	?g_useThreads@@3_NA				; g_useThreads
PUBLIC	?deltaTime@@3NA					; deltaTime
PUBLIC	?g_pMeshManager@@3PEAVcVAOManager@@EA		; g_pMeshManager
PUBLIC	?g_pPhysicEngine@@3PEAVcPhysics@@EA		; g_pPhysicEngine
EXTRN	__imp_?eof@ios_base@std@@QEBA_NXZ:PROC
EXTRN	glfwWindowShouldClose:PROC
EXTRN	glfwSetErrorCallback:PROC
EXTRN	__imp__Xtime_get_ticks:PROC
EXTRN	glfwSetWindowSizeCallback:PROC
EXTRN	glfwSetWindowFocusCallback:PROC
EXTRN	__imp_MessageBoxW:PROC
EXTRN	glfwSetCursorPosCallback:PROC
EXTRN	glfwGetProcAddress:PROC
EXTRN	glfwSetWindowTitle:PROC
EXTRN	glfwDestroyWindow:PROC
EXTRN	glfwMakeContextCurrent:PROC
EXTRN	__imp___stdio_common_vfprintf:PROC
EXTRN	glfwCreateWindow:PROC
EXTRN	glfwSetScrollCallback:PROC
EXTRN	glfwSetKeyCallback:PROC
EXTRN	glfwInit:PROC
EXTRN	glfwPollEvents:PROC
EXTRN	glfwSetMouseButtonCallback:PROC
EXTRN	glfwTerminate:PROC
EXTRN	glfwGetFramebufferSize:PROC
EXTRN	__imp___acrt_iob_func:PROC
EXTRN	glfwGetTime:PROC
EXTRN	glfwSwapInterval:PROC
EXTRN	__imp_exit:PROC
EXTRN	glfwSwapBuffers:PROC
	ALIGN	8

?g_pPhysX@@3PEAVcPhysXWraper@@EA DQ 01H DUP (?)		; g_pPhysX
?g_numLODTrisDrawnThisFrame@@3IA DD 01H DUP (?)		; g_numLODTrisDrawnThisFrame
	ALIGN	8

?g_pTextures@@3PEAVcBasicTextureManager@@EA DQ 01H DUP (?) ; g_pTextures
?g_pParticles@@3PEAVcParticleEmitter_2@@EA DQ 01H DUP (?) ; g_pParticles
?g_pFBO_G_Buffer@@3PEAVcFBO_deferred@@EA DQ 01H DUP (?)	; g_pFBO_G_Buffer
?g_pTerrainPathChooser@@3PEAVcTerrainPathChooser@@EA DQ 01H DUP (?) ; g_pTerrainPathChooser
_BSS	ENDS
;	COMDAT ?_OptionsStorage@?1??__local_stdio_printf_options@@9@4_KA
_BSS	SEGMENT
?_OptionsStorage@?1??__local_stdio_printf_options@@9@4_KA DQ 01H DUP (?) ; `__local_stdio_printf_options'::`2'::_OptionsStorage
?cs_particleThread@@3U_RTL_CRITICAL_SECTION@@A DB 028H DUP (?) ; cs_particleThread
?deltaTime@@3NA DQ 01H DUP (?)				; deltaTime
?g_pMeshManager@@3PEAVcVAOManager@@EA DQ 01H DUP (?)	; g_pMeshManager
?g_pPhysicEngine@@3PEAVcPhysics@@EA DQ 01H DUP (?)	; g_pPhysicEngine
_BSS	ENDS
;	COMDAT ??_C@_0CN@PKCBLCAM@ERROR?3?5Didn?8t?5load?5dark?5sky?5sky@
CONST	SEGMENT
??_C@_0CN@PKCBLCAM@ERROR?3?5Didn?8t?5load?5dark?5sky?5sky@ DB 'ERROR: Did'
	DB	'n''t load dark sky skybox because: ', 00H	; `string'
CONST	ENDS
;	COMDAT ??_C@_0BH@GFNKPOBC@Loaded?5dark?5sky?5skybox@
CONST	SEGMENT
??_C@_0BH@GFNKPOBC@Loaded?5dark?5sky?5skybox@ DB 'Loaded dark sky skybox', 00H ; `string'
CONST	ENDS
;	COMDAT ??_C@_0BH@EFNPEHJO@DarkStormyLeft2048?4bmp@
CONST	SEGMENT
??_C@_0BH@EFNPEHJO@DarkStormyLeft2048?4bmp@ DB 'DarkStormyLeft2048.bmp', 00H ; `string'
CONST	ENDS
;	COMDAT ??_C@_0BI@MKLOJNNC@DarkStormyRight2048?4bmp@
CONST	SEGMENT
??_C@_0BI@MKLOJNNC@DarkStormyRight2048?4bmp@ DB 'DarkStormyRight2048.bmp', 00H ; `string'
CONST	ENDS
;	COMDAT ??_C@_0BH@KKBPHGLI@DarkStormyDown2048?4bmp@
CONST	SEGMENT
??_C@_0BH@KKBPHGLI@DarkStormyDown2048?4bmp@ DB 'DarkStormyDown2048.bmp', 00H ; `string'
CONST	ENDS
;	COMDAT ??_C@_0BF@LFPGMIOC@DarkStormyUp2048?4bmp@
CONST	SEGMENT
??_C@_0BF@LFPGMIOC@DarkStormyUp2048?4bmp@ DB 'DarkStormyUp2048.bmp', 00H ; `string'
CONST	ENDS
;	COMDAT ??_C@_0BI@INHILGB@DarkStormyFront2048?4bmp@
CONST	SEGMENT
??_C@_0BI@INHILGB@DarkStormyFront2048?4bmp@ DB 'DarkStormyFront2048.bmp', 00H ; `string'
CONST	ENDS
;	COMDAT ??_C@_0BH@BLMNAGHG@DarkStormyBack2048?4bmp@
CONST	SEGMENT
??_C@_0BH@BLMNAGHG@DarkStormyBack2048?4bmp@ DB 'DarkStormyBack2048.bmp', 00H ; `string'
CONST	ENDS
;	COMDAT ??_C@_0BJ@INBLCHCH@assets?1textures?1CubeMaps@
CONST	SEGMENT
??_C@_0BJ@INBLCHCH@assets?1textures?1CubeMaps@ DB 'assets/textures/CubeMa'
	DB	'ps', 00H					; `string'
CONST	ENDS
;	COMDAT ??_C@_0CI@CMMOGPHP@assets?1models?1Candle?1Candle_Tex@
CONST	SEGMENT
??_C@_0CI@CMMOGPHP@assets?1models?1Candle?1Candle_Tex@ DB 'assets/models/'
	DB	'Candle/Candle_Textures_2K', 00H		; `string'
CONST	ENDS
;	COMDAT ??_C@_0DO@DOAKDKJP@assets?1models?1Chandelier?1benevi@
CONST	SEGMENT
??_C@_0DO@DOAKDKJP@assets?1models?1Chandelier?1benevi@ DB 'assets/models/'
	DB	'Chandelier/beneviento-house-chandelier/textures', 00H ; `string'
CONST	ENDS
;	COMDAT ??_C@_0CO@MPBPEBPE@assets?1models?1Fireplace?1firePla@
CONST	SEGMENT
??_C@_0CO@MPBPEBPE@assets?1models?1Fireplace?1firePla@ DB 'assets/models/'
	DB	'Fireplace/firePlaceSet_textures', 00H	; `string'
CONST	ENDS
;	COMDAT ??_C@_0EO@HFLDHAPA@assets?1models?1FBX_Wooden_assets@
CONST	SEGMENT
??_C@_0EO@HFLDHAPA@assets?1models?1FBX_Wooden_assets@ DB 'assets/models/F'
	DB	'BX_Wooden_assets/Textures_wooden_asset/Chair/Textures/2K/Clea'
	DB	'n', 00H					; `string'
CONST	ENDS
;	COMDAT ??_C@_0EO@BFNDLGJL@assets?1models?1FBX_Wooden_assets@
CONST	SEGMENT
??_C@_0EO@BFNDLGJL@assets?1models?1FBX_Wooden_assets@ DB 'assets/models/F'
	DB	'BX_Wooden_assets/Textures_wooden_asset/Table/Textures/2K/Clea'
	DB	'n', 00H					; `string'
CONST	ENDS
;	COMDAT ??_C@_09HCNPPKJH@Grass?4bmp@
CONST	SEGMENT
??_C@_09HCNPPKJH@Grass?4bmp@ DB 'Grass.bmp', 00H	; `string'
CONST	ENDS
;	COMDAT ??_C@_0BO@PPHGCAAP@assets?1models?1Forest?1Textures@
CONST	SEGMENT
??_C@_0BO@PPHGCAAP@assets?1models?1Forest?1Textures@ DB 'assets/models/Fo'
	DB	'rest/Textures', 00H				; `string'
CONST	ENDS
;	COMDAT ??_C@_0BM@LFAOFODM@assets?1models?1House?1Texture@
CONST	SEGMENT
??_C@_0BM@LFAOFODM@assets?1models?1House?1Texture@ DB 'assets/models/Hous'
	DB	'e/Texture', 00H				; `string'
CONST	ENDS
;	COMDAT ??_C@_0BB@NBODHJJN@Stool_Normal?4bmp@
CONST	SEGMENT
??_C@_0BB@NBODHJJN@Stool_Normal?4bmp@ DB 'Stool_Normal.bmp', 00H ; `string'
CONST	ENDS
;	COMDAT ??_C@_0BL@LANICDAF@Stool_AlbedoSmoothness?4bmp@
CONST	SEGMENT
??_C@_0BL@LANICDAF@Stool_AlbedoSmoothness?4bmp@ DB 'Stool_AlbedoSmoothnes'
	DB	's.bmp', 00H					; `string'
CONST	ENDS
;	COMDAT ??_C@_0BE@EIJLEEKP@assets?1models?1Stool@
CONST	SEGMENT
??_C@_0BE@EIJLEEKP@assets?1models?1Stool@ DB 'assets/models/Stool', 00H ; `string'
CONST	ENDS
;	COMDAT ??_C@_0EE@OIAHKGDD@assets?1models?1Wooden?5barrel?5?$CIha@
CONST	SEGMENT
??_C@_0EE@OIAHKGDD@assets?1models?1Wooden?5barrel?5?$CIha@ DB 'assets/mod'
	DB	'els/Wooden barrel (has normal map)/Barrel_textures/barrel', 00H ; `string'
CONST	ENDS
;	COMDAT ??_C@_0BA@DHIHKFEJ@solid_black?4bmp@
CONST	SEGMENT
??_C@_0BA@DHIHKFEJ@solid_black?4bmp@ DB 'solid_black.bmp', 00H ; `string'
CONST	ENDS
;	COMDAT ??_C@_0BJ@HHMGGFMD@Chinese_Flag_Texture?4bmp@
CONST	SEGMENT
??_C@_0BJ@HHMGGFMD@Chinese_Flag_Texture?4bmp@ DB 'Chinese_Flag_Texture.bm'
	DB	'p', 00H					; `string'
CONST	ENDS
;	COMDAT ??_C@_0BH@HOPBHDEH@SurprisedChildFace?4bmp@
CONST	SEGMENT
??_C@_0BH@HOPBHDEH@SurprisedChildFace?4bmp@ DB 'SurprisedChildFace.bmp', 00H ; `string'
CONST	ENDS
;	COMDAT ??_C@_0CO@HFADEKI@bad_bunny_1920x1080_24bit_black@
CONST	SEGMENT
??_C@_0CO@HFADEKI@bad_bunny_1920x1080_24bit_black@ DB 'bad_bunny_1920x108'
	DB	'0_24bit_black_and_white.bmp', 00H		; `string'
CONST	ENDS
;	COMDAT ??_C@_0CC@FDMEDAHG@dirty?9metal?9texture_1048?94784?4b@
CONST	SEGMENT
??_C@_0CC@FDMEDAHG@dirty?9metal?9texture_1048?94784?4b@ DB 'dirty-metal-t'
	DB	'exture_1048-4784.bmp', 00H			; `string'
CONST	ENDS
;	COMDAT ??_C@_0DG@PBKMFDCO@shape?9element?9splattered?9textur@
CONST	SEGMENT
??_C@_0DG@PBKMFDCO@shape?9element?9splattered?9textur@ DB 'shape-element-'
	DB	'splattered-texture-stroke_1194-8223.bmp', 00H ; `string'
CONST	ENDS
;	COMDAT ??_C@_0CP@HFKLMKKG@Non?9uniform?5concrete?5wall?50512?9@
CONST	SEGMENT
??_C@_0CP@HFKLMKKG@Non?9uniform?5concrete?5wall?50512?9@ DB 'Non-uniform '
	DB	'concrete wall 0512-3-1024x1024.bmp', 00H	; `string'
CONST	ENDS
;	COMDAT ??_C@_0BB@JJGIBFC@Puzzle_parts?4bmp@
CONST	SEGMENT
??_C@_0BB@JJGIBFC@Puzzle_parts?4bmp@ DB 'Puzzle_parts.bmp', 00H ; `string'
CONST	ENDS
;	COMDAT ??_C@_0BD@LDAGDAML@dua?9lipa?9promo?4bmp@
CONST	SEGMENT
??_C@_0BD@LDAGDAML@dua?9lipa?9promo?4bmp@ DB 'dua-lipa-promo.bmp', 00H ; `string'
CONST	ENDS
;	COMDAT ??_C@_0P@JBNFMBFD@tv_texture?4bmp@
CONST	SEGMENT
??_C@_0P@JBNFMBFD@tv_texture?4bmp@ DB 'tv_texture.bmp', 00H ; `string'
CONST	ENDS
;	COMDAT ??_C@_0BC@DCNEOFOE@money_texture?4bmp@
CONST	SEGMENT
??_C@_0BC@DCNEOFOE@money_texture?4bmp@ DB 'money_texture.bmp', 00H ; `string'
CONST	ENDS
;	COMDAT ??_C@_0BG@EMPDIPIN@scratches_texture?4bmp@
CONST	SEGMENT
??_C@_0BG@EMPDIPIN@scratches_texture?4bmp@ DB 'scratches_texture.bmp', 00H ; `string'
CONST	ENDS
;	COMDAT ??_C@_0BH@FNBLFMBO@basketball_texture?4bmp@
CONST	SEGMENT
??_C@_0BH@FNBLFMBO@basketball_texture?4bmp@ DB 'basketball_texture.bmp', 00H ; `string'
CONST	ENDS
;	COMDAT ??_C@_0BB@FKJCEAMJ@vase_texture?4bmp@
CONST	SEGMENT
??_C@_0BB@FKJCEAMJ@vase_texture?4bmp@ DB 'vase_texture.bmp', 00H ; `string'
CONST	ENDS
;	COMDAT ??_C@_0BB@KIKKNAMO@dirt_texture?4bmp@
CONST	SEGMENT
??_C@_0BB@KIKKNAMO@dirt_texture?4bmp@ DB 'dirt_texture.bmp', 00H ; `string'
CONST	ENDS
;	COMDAT ??_C@_0BK@IEAFOFKE@low_poly_tree_texture?4bmp@
CONST	SEGMENT
??_C@_0BK@IEAFOFKE@low_poly_tree_texture?4bmp@ DB 'low_poly_tree_texture.'
	DB	'bmp', 00H					; `string'
CONST	ENDS
;	COMDAT ??_C@_0BC@BPPLOMBI@grass_texture?4bmp@
CONST	SEGMENT
??_C@_0BC@BPPLOMBI@grass_texture?4bmp@ DB 'grass_texture.bmp', 00H ; `string'
CONST	ENDS
;	COMDAT ??_C@_0BE@IAGIHFKM@cabinet_texture?4bmp@
CONST	SEGMENT
??_C@_0BE@IAGIHFKM@cabinet_texture?4bmp@ DB 'cabinet_texture.bmp', 00H ; `string'
CONST	ENDS
;	COMDAT ??_C@_0BJ@HJFPOOCN@light_switch_texture?4bmp@
CONST	SEGMENT
??_C@_0BJ@HJFPOOCN@light_switch_texture?4bmp@ DB 'light_switch_texture.bm'
	DB	'p', 00H					; `string'
CONST	ENDS
;	COMDAT ??_C@_0BH@GJFODEPN@wall_light_texture?4bmp@
CONST	SEGMENT
??_C@_0BH@GJFODEPN@wall_light_texture?4bmp@ DB 'wall_light_texture.bmp', 00H ; `string'
CONST	ENDS
;	COMDAT ??_C@_0BB@LLJFBPNP@door_texture?4bmp@
CONST	SEGMENT
??_C@_0BB@LLJFBPNP@door_texture?4bmp@ DB 'door_texture.bmp', 00H ; `string'
CONST	ENDS
;	COMDAT ??_C@_0BC@PDIOADIH@window_cutout?4bmp@
CONST	SEGMENT
??_C@_0BC@PDIOADIH@window_cutout?4bmp@ DB 'window_cutout.bmp', 00H ; `string'
CONST	ENDS
;	COMDAT ??_C@_0BD@GJBOEHEE@window_texture?4bmp@
CONST	SEGMENT
??_C@_0BD@GJBOEHEE@window_texture?4bmp@ DB 'window_texture.bmp', 00H ; `string'
CONST	ENDS
;	COMDAT ??_C@_0BH@BDNGEEHP@chandelier_texture?4bmp@
CONST	SEGMENT
??_C@_0BH@BDNGEEHP@chandelier_texture?4bmp@ DB 'chandelier_texture.bmp', 00H ; `string'
CONST	ENDS
;	COMDAT ??_C@_0BH@MNGGPMLA@ceiling_texture_01?4bmp@
CONST	SEGMENT
??_C@_0BH@MNGGPMLA@ceiling_texture_01?4bmp@ DB 'ceiling_texture_01.bmp', 00H ; `string'
CONST	ENDS
;	COMDAT ??_C@_0BK@OGFFMMLH@wood_floor_texture_01?4bmp@
CONST	SEGMENT
??_C@_0BK@OGFFMMLH@wood_floor_texture_01?4bmp@ DB 'wood_floor_texture_01.'
	DB	'bmp', 00H					; `string'
CONST	ENDS
;	COMDAT ??_C@_0BE@PMFPOLAG@wall_texture_02?4bmp@
CONST	SEGMENT
??_C@_0BE@PMFPOLAG@wall_texture_02?4bmp@ DB 'wall_texture_02.bmp', 00H ; `string'
CONST	ENDS
;	COMDAT ??_C@_0BE@HKMLJJKI@wall_texture_01?4bmp@
CONST	SEGMENT
??_C@_0BE@HKMLJJKI@wall_texture_01?4bmp@ DB 'wall_texture_01.bmp', 00H ; `string'
CONST	ENDS
;	COMDAT ??_C@_0BM@NJMJCFFH@Grey_Brick_Wall_Texture?4bmp@
CONST	SEGMENT
??_C@_0BM@NJMJCFFH@Grey_Brick_Wall_Texture?4bmp@ DB 'Grey_Brick_Wall_Text'
	DB	'ure.bmp', 00H				; `string'
CONST	ENDS
;	COMDAT ??_C@_0BA@CIDOPIFF@assets?1textures@
CONST	SEGMENT
??_C@_0BA@CIDOPIFF@assets?1textures@ DB 'assets/textures', 00H ; `string'
CONST	ENDS
;	COMDAT ??_C@_0P@FHMPCAIL@drawMeshes?4txt@
CONST	SEGMENT
??_C@_0P@FHMPCAIL@drawMeshes?4txt@ DB 'drawMeshes.txt', 00H ; `string'
CONST	ENDS
;	COMDAT ??_C@_0P@DCIIJPDH@loadMeshes?4txt@
CONST	SEGMENT
??_C@_0P@DCIIJPDH@loadMeshes?4txt@ DB 'loadMeshes.txt', 00H ; `string'
CONST	ENDS
;	COMDAT ??_C@_0BI@OOKJEMHJ@Camera?5Position?5Loaded?$CB@
CONST	SEGMENT
??_C@_0BI@OOKJEMHJ@Camera?5Position?5Loaded?$CB@ DB 'Camera Position Load'
	DB	'ed!', 00H					; `string'
CONST	ENDS
;	COMDAT ??_C@_0P@CGHBHIKI@cameraInfo?4txt@
CONST	SEGMENT
??_C@_0P@CGHBHIKI@cameraInfo?4txt@ DB 'cameraInfo.txt', 00H ; `string'
CONST	ENDS
;	COMDAT ??_C@_0P@BMPOHEPK@Loaded?5Lights?$CB@
CONST	SEGMENT
??_C@_0P@BMPOHEPK@Loaded?5Lights?$CB@ DB 'Loaded Lights!', 00H ; `string'
CONST	ENDS
;	COMDAT ??_C@_0O@PEJIHKLJ@Saved?5Lights?$CB@
CONST	SEGMENT
??_C@_0O@PEJIHKLJ@Saved?5Lights?$CB@ DB 'Saved Lights!', 00H ; `string'
CONST	ENDS
;	COMDAT ??_C@_0M@MBOFPJPK@Quadratic?3?5@
CONST	SEGMENT
??_C@_0M@MBOFPJPK@Quadratic?3?5@ DB 'Quadratic: ', 00H	; `string'
CONST	ENDS
;	COMDAT ??_C@_08LEFIHLIN@Linear?3?5@
CONST	SEGMENT
??_C@_08LEFIHLIN@Linear?3?5@ DB 'Linear: ', 00H		; `string'
CONST	ENDS
;	COMDAT ??_C@_06NNDPPBIB@Light?5@
CONST	SEGMENT
??_C@_06NNDPPBIB@Light?5@ DB 'Light ', 00H		; `string'
CONST	ENDS
;	COMDAT ??_C@_02BFICIOJL@ON@
CONST	SEGMENT
??_C@_02BFICIOJL@ON@ DB 'ON', 00H			; `string'
CONST	ENDS
;	COMDAT ??_C@_03MPPIHBHJ@OFF@
CONST	SEGMENT
??_C@_03MPPIHBHJ@OFF@ DB 'OFF', 00H			; `string'
CONST	ENDS
;	COMDAT ??_C@_0M@FBOAGEAO@Directional@
CONST	SEGMENT
??_C@_0M@FBOAGEAO@Directional@ DB 'Directional', 00H	; `string'
CONST	ENDS
;	COMDAT ??_C@_04CFIJCNIK@Spot@
CONST	SEGMENT
??_C@_04CFIJCNIK@Spot@ DB 'Spot', 00H			; `string'
CONST	ENDS
;	COMDAT ??_C@_05BGOFFEGG@Point@
CONST	SEGMENT
??_C@_05BGOFFEGG@Point@ DB 'Point', 00H			; `string'
CONST	ENDS
;	COMDAT ??_C@_0O@GFPMHPKD@lightInfo?4txt@
CONST	SEGMENT
??_C@_0O@GFPMHPKD@lightInfo?4txt@ DB 'lightInfo.txt', 00H ; `string'
CONST	ENDS
;	COMDAT ??_C@_1FI@JHNPMICL@?$AAW?$AAo?$AAu?$AAl?$AAd?$AA?5?$AAy?$AAo?$AAu?$AA?5?$AAl?$AAi?$AAk?$AAe?$AA?5@
CONST	SEGMENT
??_C@_1FI@JHNPMICL@?$AAW?$AAo?$AAu?$AAl?$AAd?$AA?5?$AAy?$AAo?$AAu?$AA?5?$AAl?$AAi?$AAk?$AAe?$AA?5@ DB 'W'
	DB	00H, 'o', 00H, 'u', 00H, 'l', 00H, 'd', 00H, ' ', 00H, 'y', 00H
	DB	'o', 00H, 'u', 00H, ' ', 00H, 'l', 00H, 'i', 00H, 'k', 00H, 'e'
	DB	00H, ' ', 00H, 't', 00H, 'o', 00H, ' ', 00H, 's', 00H, 'a', 00H
	DB	'v', 00H, 'e', 00H, ' ', 00H, 't', 00H, 'h', 00H, 'e', 00H, ' '
	DB	00H, 'l', 00H, 'i', 00H, 'g', 00H, 'h', 00H, 't', 00H, ' ', 00H
	DB	'l', 00H, 'o', 00H, 'c', 00H, 'a', 00H, 't', 00H, 'i', 00H, 'o'
	DB	00H, 'n', 00H, 's', 00H, '?', 00H, 00H, 00H	; `string'
CONST	ENDS
;	COMDAT ??_C@_0P@EPDCNJNH@Cancelled?5Load@
CONST	SEGMENT
??_C@_0P@EPDCNJNH@Cancelled?5Load@ DB 'Cancelled Load', 00H ; `string'
CONST	ENDS
;	COMDAT ??_C@_0P@GHBGGOGH@Loaded?5Meshes?$CB@
CONST	SEGMENT
??_C@_0P@GHBGGOGH@Loaded?5Meshes?$CB@ DB 'Loaded Meshes!', 00H ; `string'
CONST	ENDS
;	COMDAT ??_C@_1FG@KPBAHGKB@?$AAW?$AAo?$AAu?$AAl?$AAd?$AA?5?$AAy?$AAo?$AAu?$AA?5?$AAl?$AAi?$AAk?$AAe?$AA?5@
CONST	SEGMENT
??_C@_1FG@KPBAHGKB@?$AAW?$AAo?$AAu?$AAl?$AAd?$AA?5?$AAy?$AAo?$AAu?$AA?5?$AAl?$AAi?$AAk?$AAe?$AA?5@ DB 'W'
	DB	00H, 'o', 00H, 'u', 00H, 'l', 00H, 'd', 00H, ' ', 00H, 'y', 00H
	DB	'o', 00H, 'u', 00H, ' ', 00H, 'l', 00H, 'i', 00H, 'k', 00H, 'e'
	DB	00H, ' ', 00H, 't', 00H, 'o', 00H, ' ', 00H, 'l', 00H, 'o', 00H
	DB	'a', 00H, 'd', 00H, ' ', 00H, 't', 00H, 'h', 00H, 'e', 00H, ' '
	DB	00H, 'm', 00H, 'e', 00H, 's', 00H, 'h', 00H, ' ', 00H, 'l', 00H
	DB	'o', 00H, 'c', 00H, 'a', 00H, 't', 00H, 'i', 00H, 'o', 00H, 'n'
	DB	00H, 's', 00H, '?', 00H, 00H, 00H		; `string'
CONST	ENDS
;	COMDAT ??_C@_19LIDMLGEF@?$AAL?$AAO?$AAA?$AAD@
CONST	SEGMENT
??_C@_19LIDMLGEF@?$AAL?$AAO?$AAA?$AAD@ DB 'L', 00H, 'O', 00H, 'A', 00H, 'D'
	DB	00H, 00H, 00H				; `string'
CONST	ENDS
;	COMDAT ??_C@_0P@ENCPCKAD@Cancelled?5Save@
CONST	SEGMENT
??_C@_0P@ENCPCKAD@Cancelled?5Save@ DB 'Cancelled Save', 00H ; `string'
CONST	ENDS
;	COMDAT ??_C@_0O@IPHAGACE@Saved?5Meshes?$CB@
CONST	SEGMENT
??_C@_0O@IPHAGACE@Saved?5Meshes?$CB@ DB 'Saved Meshes!', 00H ; `string'
CONST	ENDS
;	COMDAT ??_C@_02PHMGELLB@?6?6@
CONST	SEGMENT
??_C@_02PHMGELLB@?6?6@ DB 0aH, 0aH, 00H			; `string'
CONST	ENDS
;	COMDAT ??_C@_08KELBPNI@Scale?5?9?5@
CONST	SEGMENT
??_C@_08KELBPNI@Scale?5?9?5@ DB 'Scale - ', 00H		; `string'
CONST	ENDS
;	COMDAT ??_C@_0M@MPELJDCI@Rotation?5?9?5@
CONST	SEGMENT
??_C@_0M@MPELJDCI@Rotation?5?9?5@ DB 'Rotation - ', 00H	; `string'
CONST	ENDS
;	COMDAT ??_C@_03GGEBCEPP@z?3?5@
CONST	SEGMENT
??_C@_03GGEBCEPP@z?3?5@ DB 'z: ', 00H			; `string'
CONST	ENDS
;	COMDAT ??_C@_03HEPEILBB@y?3?5@
CONST	SEGMENT
??_C@_03HEPEILBB@y?3?5@ DB 'y: ', 00H			; `string'
CONST	ENDS
;	COMDAT ??_C@_03MMEIOMHE@x?3?5@
CONST	SEGMENT
??_C@_03MMEIOMHE@x?3?5@ DB 'x: ', 00H			; `string'
CONST	ENDS
;	COMDAT ??_C@_0M@HKHELENG@Position?5?9?5@
CONST	SEGMENT
??_C@_0M@HKHELENG@Position?5?9?5@ DB 'Position - ', 00H	; `string'
CONST	ENDS
;	COMDAT ??_C@_0N@LILJFLC@Light_Sphere@
CONST	SEGMENT
??_C@_0N@LILJFLC@Light_Sphere@ DB 'Light_Sphere', 00H	; `string'
CONST	ENDS
;	COMDAT ??_C@_0N@IBNMIIAC@meshInfo?4txt@
CONST	SEGMENT
??_C@_0N@IBNMIIAC@meshInfo?4txt@ DB 'meshInfo.txt', 00H	; `string'
CONST	ENDS
;	COMDAT ??_C@_1FG@PFMFAJCA@?$AAW?$AAo?$AAu?$AAl?$AAd?$AA?5?$AAy?$AAo?$AAu?$AA?5?$AAl?$AAi?$AAk?$AAe?$AA?5@
CONST	SEGMENT
??_C@_1FG@PFMFAJCA@?$AAW?$AAo?$AAu?$AAl?$AAd?$AA?5?$AAy?$AAo?$AAu?$AA?5?$AAl?$AAi?$AAk?$AAe?$AA?5@ DB 'W'
	DB	00H, 'o', 00H, 'u', 00H, 'l', 00H, 'd', 00H, ' ', 00H, 'y', 00H
	DB	'o', 00H, 'u', 00H, ' ', 00H, 'l', 00H, 'i', 00H, 'k', 00H, 'e'
	DB	00H, ' ', 00H, 't', 00H, 'o', 00H, ' ', 00H, 's', 00H, 'a', 00H
	DB	'v', 00H, 'e', 00H, ' ', 00H, 't', 00H, 'h', 00H, 'e', 00H, ' '
	DB	00H, 'm', 00H, 'e', 00H, 's', 00H, 'h', 00H, ' ', 00H, 'l', 00H
	DB	'o', 00H, 'c', 00H, 'a', 00H, 't', 00H, 'i', 00H, 'o', 00H, 'n'
	DB	00H, 's', 00H, '?', 00H, 00H, 00H		; `string'
CONST	ENDS
;	COMDAT ??_C@_19NNHMCLFE@?$AAS?$AAA?$AAV?$AAE@
CONST	SEGMENT
??_C@_19NNHMCLFE@?$AAS?$AAA?$AAV?$AAE@ DB 'S', 00H, 'A', 00H, 'V', 00H, 'E'
	DB	00H, 00H, 00H				; `string'
CONST	ENDS
;	COMDAT ??_C@_06CJPMNLAP@?5FPS?3?5@
CONST	SEGMENT
??_C@_06CJPMNLAP@?5FPS?3?5@ DB ' FPS: ', 00H		; `string'
CONST	ENDS
;	COMDAT ??_C@_0BH@JBOJECFH@Get?5the?5Scooby?5Snacks?$CB@
CONST	SEGMENT
??_C@_0BH@JBOJECFH@Get?5the?5Scooby?5Snacks?$CB@ DB 'Get the Scooby Snack'
	DB	's!', 00H					; `string'
CONST	ENDS
;	COMDAT ??_C@_03LGOGDKEL@?5?$HM?5@
CONST	SEGMENT
??_C@_03LGOGDKEL@?5?$HM?5@ DB ' | ', 00H		; `string'
CONST	ENDS
;	COMDAT ??_C@_0BB@GFDIPMHB@renderPassNumber@
CONST	SEGMENT
??_C@_0BB@GFDIPMHB@renderPassNumber@ DB 'renderPassNumber', 00H ; `string'
CONST	ENDS
;	COMDAT ??_C@_1GC@LJAAOFCD@?$AAW?$AAo?$AAu?$AAl?$AAd?$AA?5?$AAy?$AAo?$AAu?$AA?5?$AAl?$AAi?$AAk?$AAe?$AA?5@
CONST	SEGMENT
??_C@_1GC@LJAAOFCD@?$AAW?$AAo?$AAu?$AAl?$AAd?$AA?5?$AAy?$AAo?$AAu?$AA?5?$AAl?$AAi?$AAk?$AAe?$AA?5@ DB 'W'
	DB	00H, 'o', 00H, 'u', 00H, 'l', 00H, 'd', 00H, ' ', 00H, 'y', 00H
	DB	'o', 00H, 'u', 00H, ' ', 00H, 'l', 00H, 'i', 00H, 'k', 00H, 'e'
	DB	00H, ' ', 00H, 't', 00H, 'o', 00H, ' ', 00H, 'r', 00H, 'u', 00H
	DB	'n', 00H, ' ', 00H, 't', 00H, 'h', 00H, 'r', 00H, 'e', 00H, 'a'
	DB	00H, 'd', 00H, 's', 00H, ' ', 00H, 'f', 00H, 'o', 00H, 'r', 00H
	DB	' ', 00H, 't', 00H, 'h', 00H, 'e', 00H, ' ', 00H, 'p', 00H, 'a'
	DB	00H, 'r', 00H, 't', 00H, 'i', 00H, 'c', 00H, 'l', 00H, 'e', 00H
	DB	's', 00H, '?', 00H, 00H, 00H			; `string'
CONST	ENDS
;	COMDAT ??_C@_1BA@GIHLHEJH@?$AAT?$AAh?$AAr?$AAe?$AAa?$AAd?$AA?$DP@
CONST	SEGMENT
??_C@_1BA@GIHLHEJH@?$AAT?$AAh?$AAr?$AAe?$AAa?$AAd?$AA?$DP@ DB 'T', 00H, 'h'
	DB	00H, 'r', 00H, 'e', 00H, 'a', 00H, 'd', 00H, '?', 00H, 00H, 00H ; `string'
CONST	ENDS
;	COMDAT ??_C@_0BI@BDKDDLBD@Deferred?5FBO?5init?$CI?$CJ?5OK?4@
CONST	SEGMENT
??_C@_0BI@BDKDDLBD@Deferred?5FBO?5init?$CI?$CJ?5OK?4@ DB 'Deferred FBO in'
	DB	'it() OK.', 00H				; `string'
CONST	ENDS
;	COMDAT ??_C@_0DA@CNPBFGAH@ERROR?3?5Can?8t?5init?5deferred?5FBO?5@
CONST	SEGMENT
??_C@_0DA@CNPBFGAH@ERROR?3?5Can?8t?5init?5deferred?5FBO?5@ DB 'ERROR: Can'
	DB	'''t init deferred FBO buffer because: ', 00H ; `string'
CONST	ENDS
;	COMDAT ??_C@_0BE@GJLBHMFB@Loading?5textures?4?4?4@
CONST	SEGMENT
??_C@_0BE@GJLBHMFB@Loading?5textures?4?4?4@ DB 'Loading textures...', 00H ; `string'
CONST	ENDS
;	COMDAT ??_C@_0CH@LPJPIDEF@Can?8t?5create?5light?5shadowmap?5be@
CONST	SEGMENT
??_C@_0CH@LPJPIDEF@Can?8t?5create?5light?5shadowmap?5be@ DB 'Can''t creat'
	DB	'e light shadowmap because: ', 00H		; `string'
CONST	ENDS
;	COMDAT ??_C@_09PFCHIMEP@127?40?40?41@
CONST	SEGMENT
??_C@_09PFCHIMEP@127?40?40?41@ DB '127.0.0.1', 00H	; `string'
CONST	ENDS
;	COMDAT ??_C@_0DF@LODGJDP@assets?1models?1Simple_MeshLab_te@
CONST	SEGMENT
??_C@_0DF@LODGJDP@assets?1models?1Simple_MeshLab_te@ DB 'assets/models/Si'
	DB	'mple_MeshLab_terrain_x5_xyz_N_uv.ply', 00H	; `string'
CONST	ENDS
;	COMDAT ??_C@_0BA@MKAOCJPG@Shader?5built?5OK@
CONST	SEGMENT
??_C@_0BA@MKAOCJPG@Shader?5built?5OK@ DB 'Shader built OK', 00H ; `string'
CONST	ENDS
;	COMDAT ??_C@_0P@OLDEAGJP@Error?5shader?3?5@
CONST	SEGMENT
??_C@_0P@OLDEAGJP@Error?5shader?3?5@ DB 'Error shader: ', 00H ; `string'
CONST	ENDS
;	COMDAT ??_C@_08BPKANHFK@shader01@
CONST	SEGMENT
??_C@_08BPKANHFK@shader01@ DB 'shader01', 00H		; `string'
CONST	ENDS
;	COMDAT ??_C@_0BP@NNDMOKLC@assets?1shaders?1fragment01?4glsl@
CONST	SEGMENT
??_C@_0BP@NNDMOKLC@assets?1shaders?1fragment01?4glsl@ DB 'assets/shaders/'
	DB	'fragment01.glsl', 00H			; `string'
CONST	ENDS
;	COMDAT ??_C@_0CG@FFDBHMGN@assets?1shaders?1geom_pass_throug@
CONST	SEGMENT
??_C@_0CG@FFDBHMGN@assets?1shaders?1geom_pass_throug@ DB 'assets/shaders/'
	DB	'geom_pass_through.glsl', 00H		; `string'
CONST	ENDS
;	COMDAT ??_C@_0BN@GONHDNAO@assets?1shaders?1vertex01?4glsl@
CONST	SEGMENT
??_C@_0BN@GONHDNAO@assets?1shaders?1vertex01?4glsl@ DB 'assets/shaders/ve'
	DB	'rtex01.glsl', 00H				; `string'
CONST	ENDS
;	COMDAT ??_C@_0BO@JKMHNAP@Spidey?5Gets?5the?5Scooby?5Snacks@
CONST	SEGMENT
??_C@_0BO@JKMHNAP@Spidey?5Gets?5the?5Scooby?5Snacks@ DB 'Spidey Gets the '
	DB	'Scooby Snacks', 00H				; `string'
CONST	ENDS
;	COMDAT ??_C@_01ODHLEDKK@?$CI@
CONST	SEGMENT
??_C@_01ODHLEDKK@?$CI@ DB '(', 00H			; `string'
CONST	ENDS
;	COMDAT ??_C@_02KEGNLNML@?0?5@
CONST	SEGMENT
??_C@_02KEGNLNML@?0?5@ DB ', ', 00H			; `string'
CONST	ENDS
;	COMDAT ??_C@_01PKGAHCOL@?$CJ@
CONST	SEGMENT
??_C@_01PKGAHCOL@?$CJ@ DB ')', 00H			; `string'
CONST	ENDS
;	COMDAT ??_C@_0L@DCCGFMBN@Error?3?5?$CFs?6@
CONST	SEGMENT
??_C@_0L@DCCGFMBN@Error?3?5?$CFs?6@ DB 'Error: %s', 0aH, 00H ; `string'
CONST	ENDS
;	COMDAT ??_C@_04LOAJBDKD@true@
CONST	SEGMENT
??_C@_04LOAJBDKD@true@ DB 'true', 00H			; `string'
?g_useThreads@@3_NA DB 01H				; g_useThreads
?_Fake_alloc@std@@3U_Fake_allocator@1@B	ORG $+1		; std::_Fake_alloc
PUBLIC	??$forward@AEAPEAU?$_Tree_node@U?$pair@$$CBV?$basic_string@DU?$char_traits@D@std@@V?$allocator@D@2@@std@@U?$vec@$03M$0A@@glm@@@std@@PEAX@std@@@std@@YAAEAPEAU?$_Tree_node@U?$pair@$$CBV?$basic_string@DU?$char_traits@D@std@@V?$allocator@D@2@@std@@U?$vec@$03M$0A@@glm@@@std@@PEAX@0@AEAPEAU10@@Z ; std::forward<std::_Tree_node<std::pair<std::basic_string<char,std::char_traits<char>,std::allocator<char> > const ,glm::vec<4,float,0> >,void *> * &>
PUBLIC	??0?$pair@$$CBV?$basic_string@DU?$char_traits@D@std@@V?$allocator@D@2@@std@@U?$vec@$03M$0A@@glm@@@std@@QEAA@AEBU01@@Z ; std::pair<std::basic_string<char,std::char_traits<char>,std::allocator<char> > const ,glm::vec<4,float,0> >::pair<std::basic_string<char,std::char_traits<char>,std::allocator<char> > const ,glm::vec<4,float,0> >
PUBLIC	??$exchange@PEAU?$_Tree_node@U?$pair@$$CBV?$basic_string@DU?$char_traits@D@std@@V?$allocator@D@2@@std@@U?$vec@$03M$0A@@glm@@@std@@PEAX@std@@$$T@std@@YAPEAU?$_Tree_node@U?$pair@$$CBV?$basic_string@DU?$char_traits@D@std@@V?$allocator@D@2@@std@@U?$vec@$03M$0A@@glm@@@std@@PEAX@0@AEAPEAU10@$$QEA$$T@Z ; std::exchange<std::_Tree_node<std::pair<std::basic_string<char,std::char_traits<char>,std::allocator<char> > const ,glm::vec<4,float,0> >,void *> *,std::nullptr_t>
PUBLIC	??$_Construct_in_place@PEAU?$_Tree_node@U?$pair@$$CBV?$basic_string@DU?$char_traits@D@std@@V?$allocator@D@2@@std@@U?$vec@$03M$0A@@glm@@@std@@PEAX@std@@AEAPEAU12@@std@@YAXAEAPEAU?$_Tree_node@U?$pair@$$CBV?$basic_string@DU?$char_traits@D@std@@V?$allocator@D@2@@std@@U?$vec@$03M$0A@@glm@@@std@@PEAX@0@0@Z ; std::_Construct_in_place<std::_Tree_node<std::pair<std::basic_string<char,std::char_traits<char>,std::allocator<char> > const ,glm::vec<4,float,0> >,void *> *,std::_Tree_node<std::pair<std::basic_string<char,std::char_traits<char>,std::allocator<char> > const ,glm::vec<4,float,0> >,void *> * &>
PUBLIC	??$construct@U?$pair@$$CBV?$basic_string@DU?$char_traits@D@std@@V?$allocator@D@2@@std@@U?$vec@$03M$0A@@glm@@@std@@AEAU12@@?$_Default_allocator_traits@V?$allocator@U?$_Tree_node@U?$pair@$$CBV?$basic_string@DU?$char_traits@D@std@@V?$allocator@D@2@@std@@U?$vec@$03M$0A@@glm@@@std@@PEAX@std@@@std@@@std@@SAXAEAV?$allocator@U?$_Tree_node@U?$pair@$$CBV?$basic_string@DU?$char_traits@D@std@@V?$allocator@D@2@@std@@U?$vec@$03M$0A@@glm@@@std@@PEAX@std@@@1@QEAU?$pair@$$CBV?$basic_string@DU?$char_traits@D@std@@V?$allocator@D@2@@std@@U?$vec@$03M$0A@@glm@@@1@AEAU31@@Z ; std::_Default_allocator_traits<std::allocator<std::_Tree_node<std::pair<std::basic_string<char,std::char_traits<char>,std::allocator<char> > const ,glm::vec<4,float,0> >,void *> > >::construct<std::pair<std::basic_string<char,std::char_traits<char>,std::allocator<char> > const ,glm::vec<4,float,0> >,std::pair<std::basic_string<char,std::char_traits<char>,std::allocator<char> > const ,glm::vec<4,float,0> > &>
PUBLIC	?deallocate@?$allocator@U?$_Tree_node@U?$pair@$$CBV?$basic_string@DU?$char_traits@D@std@@V?$allocator@D@2@@std@@U?$vec@$03M$0A@@glm@@@std@@PEAX@std@@@std@@QEAAXQEAU?$_Tree_node@U?$pair@$$CBV?$basic_string@DU?$char_traits@D@std@@V?$allocator@D@2@@std@@U?$vec@$03M$0A@@glm@@@std@@PEAX@2@_K@Z ; std::allocator<std::_Tree_node<std::pair<std::basic_string<char,std::char_traits<char>,std::allocator<char> > const ,glm::vec<4,float,0> >,void *> >::deallocate
PUBLIC	??0?$_Alloc_construct_ptr@V?$allocator@U?$_Tree_node@U?$pair@$$CBV?$basic_string@DU?$char_traits@D@std@@V?$allocator@D@2@@std@@U?$vec@$03M$0A@@glm@@@std@@PEAX@std@@@std@@@std@@QEAA@AEAV?$allocator@U?$_Tree_node@U?$pair@$$CBV?$basic_string@DU?$char_traits@D@std@@V?$allocator@D@2@@std@@U?$vec@$03M$0A@@glm@@@std@@PEAX@std@@@1@@Z ; std::_Alloc_construct_ptr<std::allocator<std::_Tree_node<std::pair<std::basic_string<char,std::char_traits<char>,std::allocator<char> > const ,glm::vec<4,float,0> >,void *> > >::_Alloc_construct_ptr<std::allocator<std::_Tree_node<std::pair<std::basic_string<char,std::char_traits<char>,std::allocator<char> > const ,glm::vec<4,float,0> >,void *> > >
PUBLIC	?_Release@?$_Alloc_construct_ptr@V?$allocator@U?$_Tree_node@U?$pair@$$CBV?$basic_string@DU?$char_traits@D@std@@V?$allocator@D@2@@std@@U?$vec@$03M$0A@@glm@@@std@@PEAX@std@@@std@@@std@@QEAAPEAU?$_Tree_node@U?$pair@$$CBV?$basic_string@DU?$char_traits@D@std@@V?$allocator@D@2@@std@@U?$vec@$03M$0A@@glm@@@std@@PEAX@2@XZ ; std::_Alloc_construct_ptr<std::allocator<std::_Tree_node<std::pair<std::basic_string<char,std::char_traits<char>,std::allocator<char> > const ,glm::vec<4,float,0> >,void *> > >::_Release
PUBLIC	?_Allocate@?$_Alloc_construct_ptr@V?$allocator@U?$_Tree_node@U?$pair@$$CBV?$basic_string@DU?$char_traits@D@std@@V?$allocator@D@2@@std@@U?$vec@$03M$0A@@glm@@@std@@PEAX@std@@@std@@@std@@QEAAXXZ ; std::_Alloc_construct_ptr<std::allocator<std::_Tree_node<std::pair<std::basic_string<char,std::char_traits<char>,std::allocator<char> > const ,glm::vec<4,float,0> >,void *> > >::_Allocate
PUBLIC	??1?$_Alloc_construct_ptr@V?$allocator@U?$_Tree_node@U?$pair@$$CBV?$basic_string@DU?$char_traits@D@std@@V?$allocator@D@2@@std@@U?$vec@$03M$0A@@glm@@@std@@PEAX@std@@@std@@@std@@QEAA@XZ ; std::_Alloc_construct_ptr<std::allocator<std::_Tree_node<std::pair<std::basic_string<char,std::char_traits<char>,std::allocator<char> > const ,glm::vec<4,float,0> >,void *> > >::~_Alloc_construct_ptr<std::allocator<std::_Tree_node<std::pair<std::basic_string<char,std::char_traits<char>,std::allocator<char> > const ,glm::vec<4,float,0> >,void *> > >
PUBLIC	??$_Buynode@V?$allocator@U?$_Tree_node@U?$pair@$$CBV?$basic_string@DU?$char_traits@D@std@@V?$allocator@D@2@@std@@U?$vec@$03M$0A@@glm@@@std@@PEAX@std@@@std@@AEAU?$pair@$$CBV?$basic_string@DU?$char_traits@D@std@@V?$allocator@D@2@@std@@U?$vec@$03M$0A@@glm@@@2@@?$_Tree_node@U?$pair@$$CBV?$basic_string@DU?$char_traits@D@std@@V?$allocator@D@2@@std@@U?$vec@$03M$0A@@glm@@@std@@PEAX@std@@SAPEAU01@AEAV?$allocator@U?$_Tree_node@U?$pair@$$CBV?$basic_string@DU?$char_traits@D@std@@V?$allocator@D@2@@std@@U?$vec@$03M$0A@@glm@@@std@@PEAX@std@@@1@PEAU01@AEAU?$pair@$$CBV?$basic_string@DU?$char_traits@D@std@@V?$allocator@D@2@@std@@U?$vec@$03M$0A@@glm@@@1@@Z ; std::_Tree_node<std::pair<std::basic_string<char,std::char_traits<char>,std::allocator<char> > const ,glm::vec<4,float,0> >,void *>::_Buynode<std::allocator<std::_Tree_node<std::pair<std::basic_string<char,std::char_traits<char>,std::allocator<char> > const ,glm::vec<4,float,0> >,void *> >,std::pair<std::basic_string<char,std::char_traits<char>,std::allocator<char> > const ,glm::vec<4,float,0> > &>
PUBLIC	??$forward@AEAU?$pair@$$CBV?$basic_string@DU?$char_traits@D@std@@V?$allocator@D@2@@std@@U?$vec@$03M$0A@@glm@@@std@@@std@@YAAEAU?$pair@$$CBV?$basic_string@DU?$char_traits@D@std@@V?$allocator@D@2@@std@@U?$vec@$03M$0A@@glm@@@0@AEAU10@@Z ; std::forward<std::pair<std::basic_string<char,std::char_traits<char>,std::allocator<char> > const ,glm::vec<4,float,0> > &>
PUBLIC	??$move@AEA_K@std@@YA$$QEA_KAEA_K@Z		; std::move<unsigned __int64 &>
PUBLIC	??$move@AEAPEAU?$_Tree_node@U?$pair@$$CBV?$basic_string@DU?$char_traits@D@std@@V?$allocator@D@2@@std@@U?$vec@$03M$0A@@glm@@@std@@PEAX@std@@@std@@YA$$QEAPEAU?$_Tree_node@U?$pair@$$CBV?$basic_string@DU?$char_traits@D@std@@V?$allocator@D@2@@std@@U?$vec@$03M$0A@@glm@@@std@@PEAX@0@AEAPEAU10@@Z ; std::move<std::_Tree_node<std::pair<std::basic_string<char,std::char_traits<char>,std::allocator<char> > const ,glm::vec<4,float,0> >,void *> * &>
PUBLIC	??$_Buynode@AEAU?$pair@$$CBV?$basic_string@DU?$char_traits@D@std@@V?$allocator@D@2@@std@@U?$vec@$03M$0A@@glm@@@std@@@?$_Tree@V?$_Tmap_traits@V?$basic_string@DU?$char_traits@D@std@@V?$allocator@D@2@@std@@U?$vec@$03M$0A@@glm@@U?$less@V?$basic_string@DU?$char_traits@D@std@@V?$allocator@D@2@@std@@@2@V?$allocator@U?$pair@$$CBV?$basic_string@DU?$char_traits@D@std@@V?$allocator@D@2@@std@@U?$vec@$03M$0A@@glm@@@std@@@2@$0A@@std@@@std@@IEAAPEAU?$_Tree_node@U?$pair@$$CBV?$basic_string@DU?$char_traits@D@std@@V?$allocator@D@2@@std@@U?$vec@$03M$0A@@glm@@@std@@PEAX@1@AEAU?$pair@$$CBV?$basic_string@DU?$char_traits@D@std@@V?$allocator@D@2@@std@@U?$vec@$03M$0A@@glm@@@1@@Z ; std::_Tree<std::_Tmap_traits<std::basic_string<char,std::char_traits<char>,std::allocator<char> >,glm::vec<4,float,0>,std::less<std::basic_string<char,std::char_traits<char>,std::allocator<char> > >,std::allocator<std::pair<std::basic_string<char,std::char_traits<char>,std::allocator<char> > const ,glm::vec<4,float,0> > >,0> >::_Buynode<std::pair<std::basic_string<char,std::char_traits<char>,std::allocator<char> > const ,glm::vec<4,float,0> > &>
PUBLIC	?_Orphan_ptr@?$_Tree_val@U?$_Tree_simple_types@U?$pair@$$CBV?$basic_string@DU?$char_traits@D@std@@V?$allocator@D@2@@std@@U?$vec@$03M$0A@@glm@@@std@@@std@@@std@@QEAAXQEAU?$_Tree_node@U?$pair@$$CBV?$basic_string@DU?$char_traits@D@std@@V?$allocator@D@2@@std@@U?$vec@$03M$0A@@glm@@@std@@PEAX@2@@Z ; std::_Tree_val<std::_Tree_simple_types<std::pair<std::basic_string<char,std::char_traits<char>,std::allocator<char> > const ,glm::vec<4,float,0> > > >::_Orphan_ptr
PUBLIC	??$swap@_K$0A@@std@@YAXAEA_K0@Z			; std::swap<unsigned __int64,0>
PUBLIC	??$swap@PEAU?$_Tree_node@U?$pair@$$CBV?$basic_string@DU?$char_traits@D@std@@V?$allocator@D@2@@std@@U?$vec@$03M$0A@@glm@@@std@@PEAX@std@@$0A@@std@@YAXAEAPEAU?$_Tree_node@U?$pair@$$CBV?$basic_string@DU?$char_traits@D@std@@V?$allocator@D@2@@std@@U?$vec@$03M$0A@@glm@@@std@@PEAX@0@0@Z ; std::swap<std::_Tree_node<std::pair<std::basic_string<char,std::char_traits<char>,std::allocator<char> > const ,glm::vec<4,float,0> >,void *> *,0>
PUBLIC	??$move@AEAV?$allocator@U?$_Tree_node@U?$pair@$$CBV?$basic_string@DU?$char_traits@D@std@@V?$allocator@D@2@@std@@U?$vec@$03M$0A@@glm@@@std@@PEAX@std@@@std@@@std@@YA$$QEAV?$allocator@U?$_Tree_node@U?$pair@$$CBV?$basic_string@DU?$char_traits@D@std@@V?$allocator@D@2@@std@@U?$vec@$03M$0A@@glm@@@std@@PEAX@std@@@0@AEAV10@@Z ; std::move<std::allocator<std::_Tree_node<std::pair<std::basic_string<char,std::char_traits<char>,std::allocator<char> > const ,glm::vec<4,float,0> >,void *> > &>
PUBLIC	??$move@AEAV?$map@V?$basic_string@DU?$char_traits@D@std@@V?$allocator@D@2@@std@@U?$vec@$03M$0A@@glm@@U?$less@V?$basic_string@DU?$char_traits@D@std@@V?$allocator@D@2@@std@@@2@V?$allocator@U?$pair@$$CBV?$basic_string@DU?$char_traits@D@std@@V?$allocator@D@2@@std@@U?$vec@$03M$0A@@glm@@@std@@@2@@std@@@std@@YA$$QEAV?$map@V?$basic_string@DU?$char_traits@D@std@@V?$allocator@D@2@@std@@U?$vec@$03M$0A@@glm@@U?$less@V?$basic_string@DU?$char_traits@D@std@@V?$allocator@D@2@@std@@@2@V?$allocator@U?$pair@$$CBV?$basic_string@DU?$char_traits@D@std@@V?$allocator@D@2@@std@@U?$vec@$03M$0A@@glm@@@std@@@2@@0@AEAV10@@Z ; std::move<std::map<std::basic_string<char,std::char_traits<char>,std::allocator<char> >,glm::vec<4,float,0>,std::less<std::basic_string<char,std::char_traits<char>,std::allocator<char> > >,std::allocator<std::pair<std::basic_string<char,std::char_traits<char>,std::allocator<char> > const ,glm::vec<4,float,0> > > > &>
PUBLIC	??$_Erase_tree_and_orphan@V?$allocator@U?$_Tree_node@U?$pair@$$CBV?$basic_string@DU?$char_traits@D@std@@V?$allocator@D@2@@std@@U?$vec@$03M$0A@@glm@@@std@@PEAX@std@@@std@@@?$_Tree_val@U?$_Tree_simple_types@U?$pair@$$CBV?$basic_string@DU?$char_traits@D@std@@V?$allocator@D@2@@std@@U?$vec@$03M$0A@@glm@@@std@@@std@@@std@@QEAAXAEAV?$allocator@U?$_Tree_node@U?$pair@$$CBV?$basic_string@DU?$char_traits@D@std@@V?$allocator@D@2@@std@@U?$vec@$03M$0A@@glm@@@std@@PEAX@std@@@1@PEAU?$_Tree_node@U?$pair@$$CBV?$basic_string@DU?$char_traits@D@std@@V?$allocator@D@2@@std@@U?$vec@$03M$0A@@glm@@@std@@PEAX@1@@Z ; std::_Tree_val<std::_Tree_simple_types<std::pair<std::basic_string<char,std::char_traits<char>,std::allocator<char> > const ,glm::vec<4,float,0> > > >::_Erase_tree_and_orphan<std::allocator<std::_Tree_node<std::pair<std::basic_string<char,std::char_traits<char>,std::allocator<char> > const ,glm::vec<4,float,0> >,void *> > >
PUBLIC	??$forward@AEBQEAU?$_Tree_node@U?$pair@$$CBV?$basic_string@DU?$char_traits@D@std@@V?$allocator@D@2@@std@@U?$vec@$03M$0A@@glm@@@std@@PEAX@std@@@std@@YAAEBQEAU?$_Tree_node@U?$pair@$$CBV?$basic_string@DU?$char_traits@D@std@@V?$allocator@D@2@@std@@U?$vec@$03M$0A@@glm@@@std@@PEAX@0@AEBQEAU10@@Z ; std::forward<std::_Tree_node<std::pair<std::basic_string<char,std::char_traits<char>,std::allocator<char> > const ,glm::vec<4,float,0> >,void *> * const &>
PUBLIC	??$addressof@PEAU?$_Tree_node@U?$pair@$$CBV?$basic_string@DU?$char_traits@D@std@@V?$allocator@D@2@@std@@U?$vec@$03M$0A@@glm@@@std@@PEAX@std@@@std@@YAPEAPEAU?$_Tree_node@U?$pair@$$CBV?$basic_string@DU?$char_traits@D@std@@V?$allocator@D@2@@std@@U?$vec@$03M$0A@@glm@@@std@@PEAX@0@AEAPEAU10@@Z ; std::addressof<std::_Tree_node<std::pair<std::basic_string<char,std::char_traits<char>,std::allocator<char> > const ,glm::vec<4,float,0> >,void *> *>
PUBLIC	??$_Copy_or_move@$0A@U?$pair@$$CBV?$basic_string@DU?$char_traits@D@std@@V?$allocator@D@2@@std@@U?$vec@$03M$0A@@glm@@@std@@@?$_Tree@V?$_Tmap_traits@V?$basic_string@DU?$char_traits@D@std@@V?$allocator@D@2@@std@@U?$vec@$03M$0A@@glm@@U?$less@V?$basic_string@DU?$char_traits@D@std@@V?$allocator@D@2@@std@@@2@V?$allocator@U?$pair@$$CBV?$basic_string@DU?$char_traits@D@std@@V?$allocator@D@2@@std@@U?$vec@$03M$0A@@glm@@@std@@@2@$0A@@std@@@std@@IEAAPEAU?$_Tree_node@U?$pair@$$CBV?$basic_string@DU?$char_traits@D@std@@V?$allocator@D@2@@std@@U?$vec@$03M$0A@@glm@@@std@@PEAX@1@AEAU?$pair@$$CBV?$basic_string@DU?$char_traits@D@std@@V?$allocator@D@2@@std@@U?$vec@$03M$0A@@glm@@@1@@Z ; std::_Tree<std::_Tmap_traits<std::basic_string<char,std::char_traits<char>,std::allocator<char> >,glm::vec<4,float,0>,std::less<std::basic_string<char,std::char_traits<char>,std::allocator<char> > >,std::allocator<std::pair<std::basic_string<char,std::char_traits<char>,std::allocator<char> > const ,glm::vec<4,float,0> > >,0> >::_Copy_or_move<0,std::pair<std::basic_string<char,std::char_traits<char>,std::allocator<char> > const ,glm::vec<4,float,0> > >
PUBLIC	??$construct@PEAUsParticleThreadData@@PEAU1@@?$_Default_allocator_traits@V?$allocator@PEAUsParticleThreadData@@@std@@@std@@SAXAEAV?$allocator@PEAUsParticleThreadData@@@1@QEAPEAUsParticleThreadData@@$$QEAPEAU3@@Z ; std::_Default_allocator_traits<std::allocator<sParticleThreadData *> >::construct<sParticleThreadData *,sParticleThreadData *>
PUBLIC	??$forward@PEAUsParticleThreadData@@@std@@YA$$QEAPEAUsParticleThreadData@@AEAPEAU1@@Z ; std::forward<sParticleThreadData *>
PUBLIC	??$_Copy_memmove_tail@PEAPEAUsParticleThreadData@@@std@@YAPEAPEAUsParticleThreadData@@QEBDQEAPEAU1@_K2@Z ; std::_Copy_memmove_tail<sParticleThreadData * *>
PUBLIC	??$move@AEAPEAPEAUsParticleThreadData@@@std@@YA$$QEAPEAPEAUsParticleThreadData@@AEAPEAPEAU1@@Z ; std::move<sParticleThreadData * * &>
PUBLIC	?_Swap_val_excluding_comp@?$_Tree@V?$_Tmap_traits@V?$basic_string@DU?$char_traits@D@std@@V?$allocator@D@2@@std@@U?$vec@$03M$0A@@glm@@U?$less@V?$basic_string@DU?$char_traits@D@std@@V?$allocator@D@2@@std@@@2@V?$allocator@U?$pair@$$CBV?$basic_string@DU?$char_traits@D@std@@V?$allocator@D@2@@std@@U?$vec@$03M$0A@@glm@@@std@@@2@$0A@@std@@@std@@AEAAXAEAV12@@Z ; std::_Tree<std::_Tmap_traits<std::basic_string<char,std::char_traits<char>,std::allocator<char> >,glm::vec<4,float,0>,std::less<std::basic_string<char,std::char_traits<char>,std::allocator<char> > >,std::allocator<std::pair<std::basic_string<char,std::char_traits<char>,std::allocator<char> > const ,glm::vec<4,float,0> > >,0> >::_Swap_val_excluding_comp
PUBLIC	?_Alloc_sentinel_and_proxy@?$_Tree@V?$_Tmap_traits@V?$basic_string@DU?$char_traits@D@std@@V?$allocator@D@2@@std@@U?$vec@$03M$0A@@glm@@U?$less@V?$basic_string@DU?$char_traits@D@std@@V?$allocator@D@2@@std@@@2@V?$allocator@U?$pair@$$CBV?$basic_string@DU?$char_traits@D@std@@V?$allocator@D@2@@std@@U?$vec@$03M$0A@@glm@@@std@@@2@$0A@@std@@@std@@IEAAXXZ ; std::_Tree<std::_Tmap_traits<std::basic_string<char,std::char_traits<char>,std::allocator<char> >,glm::vec<4,float,0>,std::less<std::basic_string<char,std::char_traits<char>,std::allocator<char> > >,std::allocator<std::pair<std::basic_string<char,std::char_traits<char>,std::allocator<char> > const ,glm::vec<4,float,0> > >,0> >::_Alloc_sentinel_and_proxy
PUBLIC	??0?$_Tree@V?$_Tmap_traits@V?$basic_string@DU?$char_traits@D@std@@V?$allocator@D@2@@std@@U?$vec@$03M$0A@@glm@@U?$less@V?$basic_string@DU?$char_traits@D@std@@V?$allocator@D@2@@std@@@2@V?$allocator@U?$pair@$$CBV?$basic_string@DU?$char_traits@D@std@@V?$allocator@D@2@@std@@U?$vec@$03M$0A@@glm@@@std@@@2@$0A@@std@@@std@@QEAA@$$QEAV01@@Z ; std::_Tree<std::_Tmap_traits<std::basic_string<char,std::char_traits<char>,std::allocator<char> >,glm::vec<4,float,0>,std::less<std::basic_string<char,std::char_traits<char>,std::allocator<char> > >,std::allocator<std::pair<std::basic_string<char,std::char_traits<char>,std::allocator<char> > const ,glm::vec<4,float,0> > >,0> >::_Tree<std::_Tmap_traits<std::basic_string<char,std::char_traits<char>,std::allocator<char> >,glm::vec<4,float,0>,std::less<std::basic_string<char,std::char_traits<char>,std::allocator<char> > >,std::allocator<std::pair<std::basic_string<char,std::char_traits<char>,std::allocator<char> > const ,glm::vec<4,float,0> > >,0> >
PUBLIC	??0?$_Tree_val@U?$_Tree_simple_types@U?$pair@$$CBV?$basic_string@DU?$char_traits@D@std@@V?$allocator@D@2@@std@@U?$vec@$03M$0A@@glm@@@std@@@std@@@std@@QEAA@XZ ; std::_Tree_val<std::_Tree_simple_types<std::pair<std::basic_string<char,std::char_traits<char>,std::allocator<char> > const ,glm::vec<4,float,0> > > >::_Tree_val<std::_Tree_simple_types<std::pair<std::basic_string<char,std::char_traits<char>,std::allocator<char> > const ,glm::vec<4,float,0> > > >
PUBLIC	??0?$map@V?$basic_string@DU?$char_traits@D@std@@V?$allocator@D@2@@std@@U?$vec@$03M$0A@@glm@@U?$less@V?$basic_string@DU?$char_traits@D@std@@V?$allocator@D@2@@std@@@2@V?$allocator@U?$pair@$$CBV?$basic_string@DU?$char_traits@D@std@@V?$allocator@D@2@@std@@U?$vec@$03M$0A@@glm@@@std@@@2@@std@@QEAA@$$QEAV01@@Z ; std::map<std::basic_string<char,std::char_traits<char>,std::allocator<char> >,glm::vec<4,float,0>,std::less<std::basic_string<char,std::char_traits<char>,std::allocator<char> > >,std::allocator<std::pair<std::basic_string<char,std::char_traits<char>,std::allocator<char> > const ,glm::vec<4,float,0> > > >::map<std::basic_string<char,std::char_traits<char>,std::allocator<char> >,glm::vec<4,float,0>,std::less<std::basic_string<char,std::char_traits<char>,std::allocator<char> > >,std::allocator<std::pair<std::basic_string<char,std::char_traits<char>,std::allocator<char> > const ,glm::vec<4,float,0> > > >
PUBLIC	??1?$_Erase_tree_and_orphan_guard@V?$allocator@U?$_Tree_node@U?$pair@$$CBV?$basic_string@DU?$char_traits@D@std@@V?$allocator@D@2@@std@@U?$vec@$03M$0A@@glm@@@std@@PEAX@std@@@std@@@?$_Tree_val@U?$_Tree_simple_types@U?$pair@$$CBV?$basic_string@DU?$char_traits@D@std@@V?$allocator@D@2@@std@@U?$vec@$03M$0A@@glm@@@std@@@std@@@std@@QEAA@XZ ; std::_Tree_val<std::_Tree_simple_types<std::pair<std::basic_string<char,std::char_traits<char>,std::allocator<char> > const ,glm::vec<4,float,0> > > >::_Erase_tree_and_orphan_guard<std::allocator<std::_Tree_node<std::pair<std::basic_string<char,std::char_traits<char>,std::allocator<char> > const ,glm::vec<4,float,0> >,void *> > >::~_Erase_tree_and_orphan_guard<std::allocator<std::_Tree_node<std::pair<std::basic_string<char,std::char_traits<char>,std::allocator<char> > const ,glm::vec<4,float,0> >,void *> > >
PUBLIC	??1?$pair@$$CBV?$basic_string@DU?$char_traits@D@std@@V?$allocator@D@2@@std@@PEAVcSoftBodyVerlet@@@std@@QEAA@XZ ; std::pair<std::basic_string<char,std::char_traits<char>,std::allocator<char> > const ,cSoftBodyVerlet *>::~pair<std::basic_string<char,std::char_traits<char>,std::allocator<char> > const ,cSoftBodyVerlet *>
PUBLIC	??_G?$pair@$$CBV?$basic_string@DU?$char_traits@D@std@@V?$allocator@D@2@@std@@PEAVcSoftBodyVerlet@@@std@@QEAAPEAXI@Z ; std::pair<std::basic_string<char,std::char_traits<char>,std::allocator<char> > const ,cSoftBodyVerlet *>::`scalar deleting destructor'
PUBLIC	??0cPhysicsObjectTypes@@QEAA@$$QEAV0@@Z		; cPhysicsObjectTypes::cPhysicsObjectTypes
PUBLIC	??0?$pair@$$CBV?$basic_string@DU?$char_traits@D@std@@V?$allocator@D@2@@std@@VcPhysicsObjectTypes@@@std@@QEAA@$$QEAU01@@Z ; std::pair<std::basic_string<char,std::char_traits<char>,std::allocator<char> > const ,cPhysicsObjectTypes>::pair<std::basic_string<char,std::char_traits<char>,std::allocator<char> > const ,cPhysicsObjectTypes>
PUBLIC	??$_Get_size_of_n@$0FA@@std@@YA_K_K@Z		; std::_Get_size_of_n<80>
PUBLIC	??$addressof@$$CBV?$_Tree_val@U?$_Tree_simple_types@U?$pair@$$CBV?$basic_string@DU?$char_traits@D@std@@V?$allocator@D@2@@std@@U?$vec@$03M$0A@@glm@@@std@@@std@@@std@@@std@@YAPEBV?$_Tree_val@U?$_Tree_simple_types@U?$pair@$$CBV?$basic_string@DU?$char_traits@D@std@@V?$allocator@D@2@@std@@U?$vec@$03M$0A@@glm@@@std@@@std@@@0@AEBV10@@Z ; std::addressof<std::_Tree_val<std::_Tree_simple_types<std::pair<std::basic_string<char,std::char_traits<char>,std::allocator<char> > const ,glm::vec<4,float,0> > > > const >
PUBLIC	??$addressof@$$CBV?$_Tree_val@U?$_Tree_simple_types@U?$pair@$$CBV?$basic_string@DU?$char_traits@D@std@@V?$allocator@D@2@@std@@VcPhysicsObjectTypes@@@std@@@std@@@std@@@std@@YAPEBV?$_Tree_val@U?$_Tree_simple_types@U?$pair@$$CBV?$basic_string@DU?$char_traits@D@std@@V?$allocator@D@2@@std@@VcPhysicsObjectTypes@@@std@@@std@@@0@AEBV10@@Z ; std::addressof<std::_Tree_val<std::_Tree_simple_types<std::pair<std::basic_string<char,std::char_traits<char>,std::allocator<char> > const ,cPhysicsObjectTypes> > > const >
PUBLIC	??$_Construct_in_place@PEAU?$_Tree_node@U?$pair@$$CBV?$basic_string@DU?$char_traits@D@std@@V?$allocator@D@2@@std@@U?$vec@$03M$0A@@glm@@@std@@PEAX@std@@AEBQEAU12@@std@@YAXAEAPEAU?$_Tree_node@U?$pair@$$CBV?$basic_string@DU?$char_traits@D@std@@V?$allocator@D@2@@std@@U?$vec@$03M$0A@@glm@@@std@@PEAX@0@AEBQEAU10@@Z ; std::_Construct_in_place<std::_Tree_node<std::pair<std::basic_string<char,std::char_traits<char>,std::allocator<char> > const ,glm::vec<4,float,0> >,void *> *,std::_Tree_node<std::pair<std::basic_string<char,std::char_traits<char>,std::allocator<char> > const ,glm::vec<4,float,0> >,void *> * const &>
PUBLIC	??$_Copy_nodes@$0A@@?$_Tree@V?$_Tmap_traits@V?$basic_string@DU?$char_traits@D@std@@V?$allocator@D@2@@std@@U?$vec@$03M$0A@@glm@@U?$less@V?$basic_string@DU?$char_traits@D@std@@V?$allocator@D@2@@std@@@2@V?$allocator@U?$pair@$$CBV?$basic_string@DU?$char_traits@D@std@@V?$allocator@D@2@@std@@U?$vec@$03M$0A@@glm@@@std@@@2@$0A@@std@@@std@@IEAAPEAU?$_Tree_node@U?$pair@$$CBV?$basic_string@DU?$char_traits@D@std@@V?$allocator@D@2@@std@@U?$vec@$03M$0A@@glm@@@std@@PEAX@1@PEAU21@0@Z ; std::_Tree<std::_Tmap_traits<std::basic_string<char,std::char_traits<char>,std::allocator<char> >,glm::vec<4,float,0>,std::less<std::basic_string<char,std::char_traits<char>,std::allocator<char> > >,std::allocator<std::pair<std::basic_string<char,std::char_traits<char>,std::allocator<char> > const ,glm::vec<4,float,0> > >,0> >::_Copy_nodes<0>
PUBLIC	??$forward@U_One_then_variadic_args_t@std@@@std@@YA$$QEAU_One_then_variadic_args_t@0@AEAU10@@Z ; std::forward<std::_One_then_variadic_args_t>
PUBLIC	??$forward@U?$less@V?$basic_string@DU?$char_traits@D@std@@V?$allocator@D@2@@std@@@std@@@std@@YA$$QEAU?$less@V?$basic_string@DU?$char_traits@D@std@@V?$allocator@D@2@@std@@@0@AEAU10@@Z ; std::forward<std::less<std::basic_string<char,std::char_traits<char>,std::allocator<char> > > >
PUBLIC	??$destroy@U?$pair@$$CBV?$basic_string@DU?$char_traits@D@std@@V?$allocator@D@2@@std@@PEAVcSoftBodyVerlet@@@std@@@?$_Default_allocator_traits@V?$allocator@U?$_Tree_node@U?$pair@$$CBV?$basic_string@DU?$char_traits@D@std@@V?$allocator@D@2@@std@@PEAVcSoftBodyVerlet@@@std@@PEAX@std@@@std@@@std@@SAXAEAV?$allocator@U?$_Tree_node@U?$pair@$$CBV?$basic_string@DU?$char_traits@D@std@@V?$allocator@D@2@@std@@PEAVcSoftBodyVerlet@@@std@@PEAX@std@@@1@QEAU?$pair@$$CBV?$basic_string@DU?$char_traits@D@std@@V?$allocator@D@2@@std@@PEAVcSoftBodyVerlet@@@1@@Z ; std::_Default_allocator_traits<std::allocator<std::_Tree_node<std::pair<std::basic_string<char,std::char_traits<char>,std::allocator<char> > const ,cSoftBodyVerlet *>,void *> > >::destroy<std::pair<std::basic_string<char,std::char_traits<char>,std::allocator<char> > const ,cSoftBodyVerlet *> >
PUBLIC	??$_Emplace_back@PEAUsParticleThreadData@@@?$_Uninitialized_backout_al@V?$allocator@PEAUsParticleThreadData@@@std@@@std@@QEAAX$$QEAPEAUsParticleThreadData@@@Z ; std::_Uninitialized_backout_al<std::allocator<sParticleThreadData *> >::_Emplace_back<sParticleThreadData *>
PUBLIC	??$_To_address@PEAPEAUsParticleThreadData@@@std@@YA?A_PAEBQEAPEAUsParticleThreadData@@@Z ; std::_To_address<sParticleThreadData * *>
PUBLIC	??$_Copy_memmove@PEAPEAUsParticleThreadData@@PEAPEAU1@@std@@YAPEAPEAUsParticleThreadData@@PEAPEAU1@00@Z ; std::_Copy_memmove<sParticleThreadData * *,sParticleThreadData * *>
PUBLIC	??$move@AEAPEAUsParticleThreadData@@@std@@YA$$QEAPEAUsParticleThreadData@@AEAPEAU1@@Z ; std::move<sParticleThreadData * &>
PUBLIC	??$addressof@PEAUsParticleThreadData@@@std@@YAPEAPEAUsParticleThreadData@@AEAPEAU1@@Z ; std::addressof<sParticleThreadData *>
PUBLIC	??$forward@PEAU?$_Tree_node@U?$pair@$$CBV?$basic_string@DU?$char_traits@D@std@@V?$allocator@D@2@@std@@VcPhysicsObjectTypes@@@std@@PEAX@std@@@std@@YA$$QEAPEAU?$_Tree_node@U?$pair@$$CBV?$basic_string@DU?$char_traits@D@std@@V?$allocator@D@2@@std@@VcPhysicsObjectTypes@@@std@@PEAX@0@AEAPEAU10@@Z ; std::forward<std::_Tree_node<std::pair<std::basic_string<char,std::char_traits<char>,std::allocator<char> > const ,cPhysicsObjectTypes>,void *> *>
PUBLIC	??$_Construct_in_place@PEAU?$_Tree_node@U?$pair@$$CBV?$basic_string@DU?$char_traits@D@std@@V?$allocator@D@2@@std@@VcPhysicsObjectTypes@@@std@@PEAX@std@@AEAPEAU12@@std@@YAXAEAPEAU?$_Tree_node@U?$pair@$$CBV?$basic_string@DU?$char_traits@D@std@@V?$allocator@D@2@@std@@VcPhysicsObjectTypes@@@std@@PEAX@0@0@Z ; std::_Construct_in_place<std::_Tree_node<std::pair<std::basic_string<char,std::char_traits<char>,std::allocator<char> > const ,cPhysicsObjectTypes>,void *> *,std::_Tree_node<std::pair<std::basic_string<char,std::char_traits<char>,std::allocator<char> > const ,cPhysicsObjectTypes>,void *> * &>
PUBLIC	??$construct@U?$pair@$$CBV?$basic_string@DU?$char_traits@D@std@@V?$allocator@D@2@@std@@VcPhysicsObjectTypes@@@std@@U12@@?$_Default_allocator_traits@V?$allocator@U?$_Tree_node@U?$pair@$$CBV?$basic_string@DU?$char_traits@D@std@@V?$allocator@D@2@@std@@VcPhysicsObjectTypes@@@std@@PEAX@std@@@std@@@std@@SAXAEAV?$allocator@U?$_Tree_node@U?$pair@$$CBV?$basic_string@DU?$char_traits@D@std@@V?$allocator@D@2@@std@@VcPhysicsObjectTypes@@@std@@PEAX@std@@@1@QEAU?$pair@$$CBV?$basic_string@DU?$char_traits@D@std@@V?$allocator@D@2@@std@@VcPhysicsObjectTypes@@@1@$$QEAU31@@Z ; std::_Default_allocator_traits<std::allocator<std::_Tree_node<std::pair<std::basic_string<char,std::char_traits<char>,std::allocator<char> > const ,cPhysicsObjectTypes>,void *> > >::construct<std::pair<std::basic_string<char,std::char_traits<char>,std::allocator<char> > const ,cPhysicsObjectTypes>,std::pair<std::basic_string<char,std::char_traits<char>,std::allocator<char> > const ,cPhysicsObjectTypes> >
PUBLIC	??$forward@AEAPEAU?$_Tree_node@U?$pair@$$CBV?$basic_string@DU?$char_traits@D@std@@V?$allocator@D@2@@std@@VcPhysicsObjectTypes@@@std@@PEAX@std@@@std@@YAAEAPEAU?$_Tree_node@U?$pair@$$CBV?$basic_string@DU?$char_traits@D@std@@V?$allocator@D@2@@std@@VcPhysicsObjectTypes@@@std@@PEAX@0@AEAPEAU10@@Z ; std::forward<std::_Tree_node<std::pair<std::basic_string<char,std::char_traits<char>,std::allocator<char> > const ,cPhysicsObjectTypes>,void *> * &>
PUBLIC	??$_Kfn@$$CBV?$basic_string@DU?$char_traits@D@std@@V?$allocator@D@2@@std@@VcPhysicsObjectTypes@@@?$_Tmap_traits@V?$basic_string@DU?$char_traits@D@std@@V?$allocator@D@2@@std@@VcPhysicsObjectTypes@@U?$less@V?$basic_string@DU?$char_traits@D@std@@V?$allocator@D@2@@std@@@2@V?$allocator@U?$pair@$$CBV?$basic_string@DU?$char_traits@D@std@@V?$allocator@D@2@@std@@VcPhysicsObjectTypes@@@std@@@2@$0A@@std@@SAAEBV?$basic_string@DU?$char_traits@D@std@@V?$allocator@D@2@@1@AEBU?$pair@$$CBV?$basic_string@DU?$char_traits@D@std@@V?$allocator@D@2@@std@@VcPhysicsObjectTypes@@@1@@Z ; std::_Tmap_traits<std::basic_string<char,std::char_traits<char>,std::allocator<char> >,cPhysicsObjectTypes,std::less<std::basic_string<char,std::char_traits<char>,std::allocator<char> > >,std::allocator<std::pair<std::basic_string<char,std::char_traits<char>,std::allocator<char> > const ,cPhysicsObjectTypes> >,0>::_Kfn<std::basic_string<char,std::char_traits<char>,std::allocator<char> > const ,cPhysicsObjectTypes>
PUBLIC	??$?0V?$allocator@U?$_Tree_node@U?$pair@$$CBV?$basic_string@DU?$char_traits@D@std@@V?$allocator@D@2@@std@@U?$vec@$03M$0A@@glm@@@std@@PEAX@std@@@std@@$$V@?$_Compressed_pair@V?$allocator@U?$_Tree_node@U?$pair@$$CBV?$basic_string@DU?$char_traits@D@std@@V?$allocator@D@2@@std@@U?$vec@$03M$0A@@glm@@@std@@PEAX@std@@@std@@V?$_Tree_val@U?$_Tree_simple_types@U?$pair@$$CBV?$basic_string@DU?$char_traits@D@std@@V?$allocator@D@2@@std@@U?$vec@$03M$0A@@glm@@@std@@@std@@@2@$00@std@@QEAA@U_One_then_variadic_args_t@1@$$QEAV?$allocator@U?$_Tree_node@U?$pair@$$CBV?$basic_string@DU?$char_traits@D@std@@V?$allocator@D@2@@std@@U?$vec@$03M$0A@@glm@@@std@@PEAX@std@@@1@@Z ; std::_Compressed_pair<std::allocator<std::_Tree_node<std::pair<std::basic_string<char,std::char_traits<char>,std::allocator<char> > const ,glm::vec<4,float,0> >,void *> >,std::_Tree_val<std::_Tree_simple_types<std::pair<std::basic_string<char,std::char_traits<char>,std::allocator<char> > const ,glm::vec<4,float,0> > > >,1>::_Compressed_pair<std::allocator<std::_Tree_node<std::pair<std::basic_string<char,std::char_traits<char>,std::allocator<char> > const ,glm::vec<4,float,0> >,void *> >,std::_Tree_val<std::_Tree_simple_types<std::pair<std::basic_string<char,std::char_traits<char>,std::allocator<char> > const ,glm::vec<4,float,0> > > >,1><std::allocator<std::_Tree_node<std::pair<std::basic_string<char,std::char_traits<char>,std::allocator<char> > const ,glm::vec<4,float,0> >,void *> > >
PUBLIC	?_Get_first@?$_Compressed_pair@U?$less@V?$basic_string@DU?$char_traits@D@std@@V?$allocator@D@2@@std@@@std@@V?$_Compressed_pair@V?$allocator@U?$_Tree_node@U?$pair@$$CBV?$basic_string@DU?$char_traits@D@std@@V?$allocator@D@2@@std@@VcPhysicsObjectTypes@@@std@@PEAX@std@@@std@@V?$_Tree_val@U?$_Tree_simple_types@U?$pair@$$CBV?$basic_string@DU?$char_traits@D@std@@V?$allocator@D@2@@std@@VcPhysicsObjectTypes@@@std@@@std@@@2@$00@2@$00@std@@QEBAAEBU?$less@V?$basic_string@DU?$char_traits@D@std@@V?$allocator@D@2@@std@@@2@XZ ; std::_Compressed_pair<std::less<std::basic_string<char,std::char_traits<char>,std::allocator<char> > >,std::_Compressed_pair<std::allocator<std::_Tree_node<std::pair<std::basic_string<char,std::char_traits<char>,std::allocator<char> > const ,cPhysicsObjectTypes>,void *> >,std::_Tree_val<std::_Tree_simple_types<std::pair<std::basic_string<char,std::char_traits<char>,std::allocator<char> > const ,cPhysicsObjectTypes> > >,1>,1>::_Get_first
PUBLIC	??0?$_Alloc_construct_ptr@V?$allocator@U?$_Tree_node@U?$pair@$$CBV?$basic_string@DU?$char_traits@D@std@@V?$allocator@D@2@@std@@VcPhysicsObjectTypes@@@std@@PEAX@std@@@std@@@std@@QEAA@AEAV?$allocator@U?$_Tree_node@U?$pair@$$CBV?$basic_string@DU?$char_traits@D@std@@V?$allocator@D@2@@std@@VcPhysicsObjectTypes@@@std@@PEAX@std@@@1@@Z ; std::_Alloc_construct_ptr<std::allocator<std::_Tree_node<std::pair<std::basic_string<char,std::char_traits<char>,std::allocator<char> > const ,cPhysicsObjectTypes>,void *> > >::_Alloc_construct_ptr<std::allocator<std::_Tree_node<std::pair<std::basic_string<char,std::char_traits<char>,std::allocator<char> > const ,cPhysicsObjectTypes>,void *> > >
PUBLIC	?_Allocate@?$_Alloc_construct_ptr@V?$allocator@U?$_Tree_node@U?$pair@$$CBV?$basic_string@DU?$char_traits@D@std@@V?$allocator@D@2@@std@@VcPhysicsObjectTypes@@@std@@PEAX@std@@@std@@@std@@QEAAXXZ ; std::_Alloc_construct_ptr<std::allocator<std::_Tree_node<std::pair<std::basic_string<char,std::char_traits<char>,std::allocator<char> > const ,cPhysicsObjectTypes>,void *> > >::_Allocate
PUBLIC	?allocate@?$allocator@U?$_Tree_node@U?$pair@$$CBV?$basic_string@DU?$char_traits@D@std@@V?$allocator@D@2@@std@@U?$vec@$03M$0A@@glm@@@std@@PEAX@std@@@std@@QEAAPEAU?$_Tree_node@U?$pair@$$CBV?$basic_string@DU?$char_traits@D@std@@V?$allocator@D@2@@std@@U?$vec@$03M$0A@@glm@@@std@@PEAX@2@_K@Z ; std::allocator<std::_Tree_node<std::pair<std::basic_string<char,std::char_traits<char>,std::allocator<char> > const ,glm::vec<4,float,0> >,void *> >::allocate
PUBLIC	?_Get_scary@?$_Tree@V?$_Tmap_traits@V?$basic_string@DU?$char_traits@D@std@@V?$allocator@D@2@@std@@U?$vec@$03M$0A@@glm@@U?$less@V?$basic_string@DU?$char_traits@D@std@@V?$allocator@D@2@@std@@@2@V?$allocator@U?$pair@$$CBV?$basic_string@DU?$char_traits@D@std@@V?$allocator@D@2@@std@@U?$vec@$03M$0A@@glm@@@std@@@2@$0A@@std@@@std@@IEBAPEBV?$_Tree_val@U?$_Tree_simple_types@U?$pair@$$CBV?$basic_string@DU?$char_traits@D@std@@V?$allocator@D@2@@std@@U?$vec@$03M$0A@@glm@@@std@@@std@@@2@XZ ; std::_Tree<std::_Tmap_traits<std::basic_string<char,std::char_traits<char>,std::allocator<char> >,glm::vec<4,float,0>,std::less<std::basic_string<char,std::char_traits<char>,std::allocator<char> > >,std::allocator<std::pair<std::basic_string<char,std::char_traits<char>,std::allocator<char> > const ,glm::vec<4,float,0> > >,0> >::_Get_scary
PUBLIC	?_Max@?$_Tree_val@U?$_Tree_simple_types@U?$pair@$$CBV?$basic_string@DU?$char_traits@D@std@@V?$allocator@D@2@@std@@U?$vec@$03M$0A@@glm@@@std@@@std@@@std@@SAPEAU?$_Tree_node@U?$pair@$$CBV?$basic_string@DU?$char_traits@D@std@@V?$allocator@D@2@@std@@U?$vec@$03M$0A@@glm@@@std@@PEAX@2@PEAU32@@Z ; std::_Tree_val<std::_Tree_simple_types<std::pair<std::basic_string<char,std::char_traits<char>,std::allocator<char> > const ,glm::vec<4,float,0> > > >::_Max
PUBLIC	?_Min@?$_Tree_val@U?$_Tree_simple_types@U?$pair@$$CBV?$basic_string@DU?$char_traits@D@std@@V?$allocator@D@2@@std@@U?$vec@$03M$0A@@glm@@@std@@@std@@@std@@SAPEAU?$_Tree_node@U?$pair@$$CBV?$basic_string@DU?$char_traits@D@std@@V?$allocator@D@2@@std@@U?$vec@$03M$0A@@glm@@@std@@PEAX@2@PEAU32@@Z ; std::_Tree_val<std::_Tree_simple_types<std::pair<std::basic_string<char,std::char_traits<char>,std::allocator<char> > const ,glm::vec<4,float,0> > > >::_Min
PUBLIC	?allocate@?$allocator@PEAUsParticleThreadData@@@std@@QEAAPEAPEAUsParticleThreadData@@_K@Z ; std::allocator<sParticleThreadData *>::allocate
PUBLIC	?_Getcomp@?$_Tree@V?$_Tmap_traits@V?$basic_string@DU?$char_traits@D@std@@V?$allocator@D@2@@std@@VcPhysicsObjectTypes@@U?$less@V?$basic_string@DU?$char_traits@D@std@@V?$allocator@D@2@@std@@@2@V?$allocator@U?$pair@$$CBV?$basic_string@DU?$char_traits@D@std@@V?$allocator@D@2@@std@@VcPhysicsObjectTypes@@@std@@@2@$0A@@std@@@std@@IEBAAEBU?$less@V?$basic_string@DU?$char_traits@D@std@@V?$allocator@D@2@@std@@@2@XZ ; std::_Tree<std::_Tmap_traits<std::basic_string<char,std::char_traits<char>,std::allocator<char> >,cPhysicsObjectTypes,std::less<std::basic_string<char,std::char_traits<char>,std::allocator<char> > >,std::allocator<std::pair<std::basic_string<char,std::char_traits<char>,std::allocator<char> > const ,cPhysicsObjectTypes> >,0> >::_Getcomp
PUBLIC	?_Get_scary@?$_Tree@V?$_Tmap_traits@V?$basic_string@DU?$char_traits@D@std@@V?$allocator@D@2@@std@@VcPhysicsObjectTypes@@U?$less@V?$basic_string@DU?$char_traits@D@std@@V?$allocator@D@2@@std@@@2@V?$allocator@U?$pair@$$CBV?$basic_string@DU?$char_traits@D@std@@V?$allocator@D@2@@std@@VcPhysicsObjectTypes@@@std@@@2@$0A@@std@@@std@@IEBAPEBV?$_Tree_val@U?$_Tree_simple_types@U?$pair@$$CBV?$basic_string@DU?$char_traits@D@std@@V?$allocator@D@2@@std@@VcPhysicsObjectTypes@@@std@@@std@@@2@XZ ; std::_Tree<std::_Tmap_traits<std::basic_string<char,std::char_traits<char>,std::allocator<char> >,cPhysicsObjectTypes,std::less<std::basic_string<char,std::char_traits<char>,std::allocator<char> > >,std::allocator<std::pair<std::basic_string<char,std::char_traits<char>,std::allocator<char> > const ,cPhysicsObjectTypes> >,0> >::_Get_scary
PUBLIC	??0?$_Tree_temp_node_alloc@V?$allocator@U?$_Tree_node@U?$pair@$$CBV?$basic_string@DU?$char_traits@D@std@@V?$allocator@D@2@@std@@VcPhysicsObjectTypes@@@std@@PEAX@std@@@std@@@std@@QEAA@AEAV?$allocator@U?$_Tree_node@U?$pair@$$CBV?$basic_string@DU?$char_traits@D@std@@V?$allocator@D@2@@std@@VcPhysicsObjectTypes@@@std@@PEAX@std@@@1@@Z ; std::_Tree_temp_node_alloc<std::allocator<std::_Tree_node<std::pair<std::basic_string<char,std::char_traits<char>,std::allocator<char> > const ,cPhysicsObjectTypes>,void *> > >::_Tree_temp_node_alloc<std::allocator<std::_Tree_node<std::pair<std::basic_string<char,std::char_traits<char>,std::allocator<char> > const ,cPhysicsObjectTypes>,void *> > >
PUBLIC	??0?$_Uninitialized_backout_al@V?$allocator@PEAUsParticleThreadData@@@std@@@std@@QEAA@PEAPEAUsParticleThreadData@@AEAV?$allocator@PEAUsParticleThreadData@@@1@@Z ; std::_Uninitialized_backout_al<std::allocator<sParticleThreadData *> >::_Uninitialized_backout_al<std::allocator<sParticleThreadData *> >
PUBLIC	??1?$_Uninitialized_backout_al@V?$allocator@PEAUsParticleThreadData@@@std@@@std@@QEAA@XZ ; std::_Uninitialized_backout_al<std::allocator<sParticleThreadData *> >::~_Uninitialized_backout_al<std::allocator<sParticleThreadData *> >
PUBLIC	?_Release@?$_Uninitialized_backout_al@V?$allocator@PEAUsParticleThreadData@@@std@@@std@@QEAAPEAPEAUsParticleThreadData@@XZ ; std::_Uninitialized_backout_al<std::allocator<sParticleThreadData *> >::_Release
PUBLIC	?__autoclassinit2@?$_Uninitialized_backout_al@V?$allocator@PEAUsParticleThreadData@@@std@@@std@@QEAAX_K@Z ; std::_Uninitialized_backout_al<std::allocator<sParticleThreadData *> >::__autoclassinit2
PUBLIC	??$exchange@PEAU?$_Tree_node@U?$pair@$$CBV?$basic_string@DU?$char_traits@D@std@@V?$allocator@D@2@@std@@VcPhysicsObjectTypes@@@std@@PEAX@std@@$$T@std@@YAPEAU?$_Tree_node@U?$pair@$$CBV?$basic_string@DU?$char_traits@D@std@@V?$allocator@D@2@@std@@VcPhysicsObjectTypes@@@std@@PEAX@0@AEAPEAU10@$$QEA$$T@Z ; std::exchange<std::_Tree_node<std::pair<std::basic_string<char,std::char_traits<char>,std::allocator<char> > const ,cPhysicsObjectTypes>,void *> *,std::nullptr_t>
PUBLIC	??$_Buyheadnode@V?$allocator@U?$_Tree_node@U?$pair@$$CBV?$basic_string@DU?$char_traits@D@std@@V?$allocator@D@2@@std@@U?$vec@$03M$0A@@glm@@@std@@PEAX@std@@@std@@@?$_Tree_node@U?$pair@$$CBV?$basic_string@DU?$char_traits@D@std@@V?$allocator@D@2@@std@@U?$vec@$03M$0A@@glm@@@std@@PEAX@std@@SAPEAU01@AEAV?$allocator@U?$_Tree_node@U?$pair@$$CBV?$basic_string@DU?$char_traits@D@std@@V?$allocator@D@2@@std@@U?$vec@$03M$0A@@glm@@@std@@PEAX@std@@@1@@Z ; std::_Tree_node<std::pair<std::basic_string<char,std::char_traits<char>,std::allocator<char> > const ,glm::vec<4,float,0> >,void *>::_Buyheadnode<std::allocator<std::_Tree_node<std::pair<std::basic_string<char,std::char_traits<char>,std::allocator<char> > const ,glm::vec<4,float,0> >,void *> > >
PUBLIC	??$_Copy@$0A@@?$_Tree@V?$_Tmap_traits@V?$basic_string@DU?$char_traits@D@std@@V?$allocator@D@2@@std@@U?$vec@$03M$0A@@glm@@U?$less@V?$basic_string@DU?$char_traits@D@std@@V?$allocator@D@2@@std@@@2@V?$allocator@U?$pair@$$CBV?$basic_string@DU?$char_traits@D@std@@V?$allocator@D@2@@std@@U?$vec@$03M$0A@@glm@@@std@@@2@$0A@@std@@@std@@IEAAXAEBV01@@Z ; std::_Tree<std::_Tmap_traits<std::basic_string<char,std::char_traits<char>,std::allocator<char> >,glm::vec<4,float,0>,std::less<std::basic_string<char,std::char_traits<char>,std::allocator<char> > >,std::allocator<std::pair<std::basic_string<char,std::char_traits<char>,std::allocator<char> > const ,glm::vec<4,float,0> > >,0> >::_Copy<0>
PUBLIC	??$?0U?$less@V?$basic_string@DU?$char_traits@D@std@@V?$allocator@D@2@@std@@@std@@U_One_then_variadic_args_t@1@V?$allocator@U?$_Tree_node@U?$pair@$$CBV?$basic_string@DU?$char_traits@D@std@@V?$allocator@D@2@@std@@U?$vec@$03M$0A@@glm@@@std@@PEAX@std@@@1@@?$_Compressed_pair@U?$less@V?$basic_string@DU?$char_traits@D@std@@V?$allocator@D@2@@std@@@std@@V?$_Compressed_pair@V?$allocator@U?$_Tree_node@U?$pair@$$CBV?$basic_string@DU?$char_traits@D@std@@V?$allocator@D@2@@std@@U?$vec@$03M$0A@@glm@@@std@@PEAX@std@@@std@@V?$_Tree_val@U?$_Tree_simple_types@U?$pair@$$CBV?$basic_string@DU?$char_traits@D@std@@V?$allocator@D@2@@std@@U?$vec@$03M$0A@@glm@@@std@@@std@@@2@$00@2@$00@std@@QEAA@U_One_then_variadic_args_t@1@$$QEAU?$less@V?$basic_string@DU?$char_traits@D@std@@V?$allocator@D@2@@std@@@1@$$QEAU21@$$QEAV?$allocator@U?$_Tree_node@U?$pair@$$CBV?$basic_string@DU?$char_traits@D@std@@V?$allocator@D@2@@std@@U?$vec@$03M$0A@@glm@@@std@@PEAX@std@@@1@@Z ; std::_Compressed_pair<std::less<std::basic_string<char,std::char_traits<char>,std::allocator<char> > >,std::_Compressed_pair<std::allocator<std::_Tree_node<std::pair<std::basic_string<char,std::char_traits<char>,std::allocator<char> > const ,glm::vec<4,float,0> >,void *> >,std::_Tree_val<std::_Tree_simple_types<std::pair<std::basic_string<char,std::char_traits<char>,std::allocator<char> > const ,glm::vec<4,float,0> > > >,1>,1>::_Compressed_pair<std::less<std::basic_string<char,std::char_traits<char>,std::allocator<char> > >,std::_Compressed_pair<std::allocator<std::_Tree_node<std::pair<std::basic_string<char,std::char_traits<char>,std::allocator<char> > const ,glm::vec<4,float,0> >,void *> >,std::_Tree_val<std::_Tree_simple_types<std::pair<std::basic_string<char,std::char_traits<char>,std::allocator<char> > const ,glm::vec<4,float,0> > > >,1>,1><std::less<std::basic_string<char,std::char_traits<char>,std::allocator<char> > >,std::_One_then_variadic_args_t,std::allocator<std::_Tree_node<std::pair<std::basic_string<char,std::char_traits<char>,std::allocator<char> > const ,glm::vec<4,float,0> >,void *> > >
PUBLIC	??$forward@V?$allocator@U?$_Tree_node@U?$pair@$$CBV?$basic_string@DU?$char_traits@D@std@@V?$allocator@D@2@@std@@U?$vec@$03M$0A@@glm@@@std@@PEAX@std@@@std@@@std@@YA$$QEAV?$allocator@U?$_Tree_node@U?$pair@$$CBV?$basic_string@DU?$char_traits@D@std@@V?$allocator@D@2@@std@@U?$vec@$03M$0A@@glm@@@std@@PEAX@std@@@0@AEAV10@@Z ; std::forward<std::allocator<std::_Tree_node<std::pair<std::basic_string<char,std::char_traits<char>,std::allocator<char> > const ,glm::vec<4,float,0> >,void *> > >
PUBLIC	??$forward@AEBQEAU?$_Tree_node@U?$pair@$$CBV?$basic_string@DU?$char_traits@D@std@@V?$allocator@D@2@@std@@PEAVcSoftBodyVerlet@@@std@@PEAX@std@@@std@@YAAEBQEAU?$_Tree_node@U?$pair@$$CBV?$basic_string@DU?$char_traits@D@std@@V?$allocator@D@2@@std@@PEAVcSoftBodyVerlet@@@std@@PEAX@0@AEBQEAU10@@Z ; std::forward<std::_Tree_node<std::pair<std::basic_string<char,std::char_traits<char>,std::allocator<char> > const ,cSoftBodyVerlet *>,void *> * const &>
PUBLIC	??$addressof@PEAU?$_Tree_node@U?$pair@$$CBV?$basic_string@DU?$char_traits@D@std@@V?$allocator@D@2@@std@@PEAVcSoftBodyVerlet@@@std@@PEAX@std@@@std@@YAPEAPEAU?$_Tree_node@U?$pair@$$CBV?$basic_string@DU?$char_traits@D@std@@V?$allocator@D@2@@std@@PEAVcSoftBodyVerlet@@@std@@PEAX@0@AEAPEAU10@@Z ; std::addressof<std::_Tree_node<std::pair<std::basic_string<char,std::char_traits<char>,std::allocator<char> > const ,cSoftBodyVerlet *>,void *> *>
PUBLIC	??$_Destroy_in_place@PEAU?$_Tree_node@U?$pair@$$CBV?$basic_string@DU?$char_traits@D@std@@V?$allocator@D@2@@std@@PEAVcSoftBodyVerlet@@@std@@PEAX@std@@@std@@YAXAEAPEAU?$_Tree_node@U?$pair@$$CBV?$basic_string@DU?$char_traits@D@std@@V?$allocator@D@2@@std@@PEAVcSoftBodyVerlet@@@std@@PEAX@0@@Z ; std::_Destroy_in_place<std::_Tree_node<std::pair<std::basic_string<char,std::char_traits<char>,std::allocator<char> > const ,cSoftBodyVerlet *>,void *> *>
PUBLIC	??$_Freenode@V?$allocator@U?$_Tree_node@U?$pair@$$CBV?$basic_string@DU?$char_traits@D@std@@V?$allocator@D@2@@std@@PEAVcSoftBodyVerlet@@@std@@PEAX@std@@@std@@@?$_Tree_node@U?$pair@$$CBV?$basic_string@DU?$char_traits@D@std@@V?$allocator@D@2@@std@@PEAVcSoftBodyVerlet@@@std@@PEAX@std@@SAXAEAV?$allocator@U?$_Tree_node@U?$pair@$$CBV?$basic_string@DU?$char_traits@D@std@@V?$allocator@D@2@@std@@PEAVcSoftBodyVerlet@@@std@@PEAX@std@@@1@PEAU01@@Z ; std::_Tree_node<std::pair<std::basic_string<char,std::char_traits<char>,std::allocator<char> > const ,cSoftBodyVerlet *>,void *>::_Freenode<std::allocator<std::_Tree_node<std::pair<std::basic_string<char,std::char_traits<char>,std::allocator<char> > const ,cSoftBodyVerlet *>,void *> > >
PUBLIC	??$exchange@PEAU?$_Tree_node@U?$pair@$$CBV?$basic_string@DU?$char_traits@D@std@@V?$allocator@D@2@@std@@PEAVcSoftBodyVerlet@@@std@@PEAX@std@@AEAPEAU12@@std@@YAPEAU?$_Tree_node@U?$pair@$$CBV?$basic_string@DU?$char_traits@D@std@@V?$allocator@D@2@@std@@PEAVcSoftBodyVerlet@@@std@@PEAX@0@AEAPEAU10@0@Z ; std::exchange<std::_Tree_node<std::pair<std::basic_string<char,std::char_traits<char>,std::allocator<char> > const ,cSoftBodyVerlet *>,void *> *,std::_Tree_node<std::pair<std::basic_string<char,std::char_traits<char>,std::allocator<char> > const ,cSoftBodyVerlet *>,void *> * &>
PUBLIC	??$_Freenode@V?$allocator@U?$_Tree_node@U?$pair@$$CB_KPEAVcBroad_Cube@cPhysics@@@std@@PEAX@std@@@std@@@?$_Tree_node@U?$pair@$$CB_KPEAVcBroad_Cube@cPhysics@@@std@@PEAX@std@@SAXAEAV?$allocator@U?$_Tree_node@U?$pair@$$CB_KPEAVcBroad_Cube@cPhysics@@@std@@PEAX@std@@@1@PEAU01@@Z ; std::_Tree_node<std::pair<unsigned __int64 const ,cPhysics::cBroad_Cube *>,void *>::_Freenode<std::allocator<std::_Tree_node<std::pair<unsigned __int64 const ,cPhysics::cBroad_Cube *>,void *> > >
PUBLIC	??$exchange@PEAU?$_Tree_node@U?$pair@$$CB_KPEAVcBroad_Cube@cPhysics@@@std@@PEAX@std@@AEAPEAU12@@std@@YAPEAU?$_Tree_node@U?$pair@$$CB_KPEAVcBroad_Cube@cPhysics@@@std@@PEAX@0@AEAPEAU10@0@Z ; std::exchange<std::_Tree_node<std::pair<unsigned __int64 const ,cPhysics::cBroad_Cube *>,void *> *,std::_Tree_node<std::pair<unsigned __int64 const ,cPhysics::cBroad_Cube *>,void *> * &>
PUBLIC	??$_Freenode@V?$allocator@U?$_Tree_node@U?$pair@$$CBV?$basic_string@DU?$char_traits@D@std@@V?$allocator@D@2@@std@@PEAVCTextureFromBMP@@@std@@PEAX@std@@@std@@@?$_Tree_node@U?$pair@$$CBV?$basic_string@DU?$char_traits@D@std@@V?$allocator@D@2@@std@@PEAVCTextureFromBMP@@@std@@PEAX@std@@SAXAEAV?$allocator@U?$_Tree_node@U?$pair@$$CBV?$basic_string@DU?$char_traits@D@std@@V?$allocator@D@2@@std@@PEAVCTextureFromBMP@@@std@@PEAX@std@@@1@PEAU01@@Z ; std::_Tree_node<std::pair<std::basic_string<char,std::char_traits<char>,std::allocator<char> > const ,CTextureFromBMP *>,void *>::_Freenode<std::allocator<std::_Tree_node<std::pair<std::basic_string<char,std::char_traits<char>,std::allocator<char> > const ,CTextureFromBMP *>,void *> > >
PUBLIC	??$exchange@PEAU?$_Tree_node@U?$pair@$$CBV?$basic_string@DU?$char_traits@D@std@@V?$allocator@D@2@@std@@PEAVCTextureFromBMP@@@std@@PEAX@std@@AEAPEAU12@@std@@YAPEAU?$_Tree_node@U?$pair@$$CBV?$basic_string@DU?$char_traits@D@std@@V?$allocator@D@2@@std@@PEAVCTextureFromBMP@@@std@@PEAX@0@AEAPEAU10@0@Z ; std::exchange<std::_Tree_node<std::pair<std::basic_string<char,std::char_traits<char>,std::allocator<char> > const ,CTextureFromBMP *>,void *> *,std::_Tree_node<std::pair<std::basic_string<char,std::char_traits<char>,std::allocator<char> > const ,CTextureFromBMP *>,void *> * &>
PUBLIC	??$_Uninitialized_move@PEAPEAUsParticleThreadData@@V?$allocator@PEAUsParticleThreadData@@@std@@@std@@YAPEAPEAUsParticleThreadData@@QEAPEAU1@0PEAPEAU1@AEAV?$allocator@PEAUsParticleThreadData@@@0@@Z ; std::_Uninitialized_move<sParticleThreadData * *,std::allocator<sParticleThreadData *> >
PUBLIC	??$_Get_unwrapped@AEBQEAPEAUsParticleThreadData@@@std@@YA?A_TAEBQEAPEAUsParticleThreadData@@@Z ; std::_Get_unwrapped<sParticleThreadData * * const &>
PUBLIC	??$construct@PEAUsParticleThreadData@@AEBQEAU1@@?$_Default_allocator_traits@V?$allocator@PEAUsParticleThreadData@@@std@@@std@@SAXAEAV?$allocator@PEAUsParticleThreadData@@@1@QEAPEAUsParticleThreadData@@AEBQEAU3@@Z ; std::_Default_allocator_traits<std::allocator<sParticleThreadData *> >::construct<sParticleThreadData *,sParticleThreadData * const &>
PUBLIC	??$_Unfancy@PEAUsParticleThreadData@@@std@@YAPEAPEAUsParticleThreadData@@PEAPEAU1@@Z ; std::_Unfancy<sParticleThreadData *>
PUBLIC	??$_Allocate_at_least_helper@V?$allocator@PEAUsParticleThreadData@@@std@@@std@@YAPEAPEAUsParticleThreadData@@AEAV?$allocator@PEAUsParticleThreadData@@@0@AEA_K@Z ; std::_Allocate_at_least_helper<std::allocator<sParticleThreadData *> >
PUBLIC	??$_Construct_in_place@PEAUsParticleThreadData@@AEBQEAU1@@std@@YAXAEAPEAUsParticleThreadData@@AEBQEAU1@@Z ; std::_Construct_in_place<sParticleThreadData *,sParticleThreadData * const &>
PUBLIC	??$forward@AEB_N@std@@YAAEB_NAEB_N@Z		; std::forward<bool const &>
PUBLIC	??$forward@V?$_Tree_iterator@V?$_Tree_val@U?$_Tree_simple_types@U?$pair@$$CBV?$basic_string@DU?$char_traits@D@std@@V?$allocator@D@2@@std@@VcPhysicsObjectTypes@@@std@@@std@@@std@@@std@@@std@@YA$$QEAV?$_Tree_iterator@V?$_Tree_val@U?$_Tree_simple_types@U?$pair@$$CBV?$basic_string@DU?$char_traits@D@std@@V?$allocator@D@2@@std@@VcPhysicsObjectTypes@@@std@@@std@@@std@@@0@AEAV10@@Z ; std::forward<std::_Tree_iterator<std::_Tree_val<std::_Tree_simple_types<std::pair<std::basic_string<char,std::char_traits<char>,std::allocator<char> > const ,cPhysicsObjectTypes> > > > >
PUBLIC	??$?0PEAU?$_Tree_node@U?$pair@$$CBV?$basic_string@DU?$char_traits@D@std@@V?$allocator@D@2@@std@@VcPhysicsObjectTypes@@@std@@PEAX@std@@_N$0A@@?$pair@PEAU?$_Tree_node@U?$pair@$$CBV?$basic_string@DU?$char_traits@D@std@@V?$allocator@D@2@@std@@VcPhysicsObjectTypes@@@std@@PEAX@std@@_N@std@@QEAA@$$QEAPEAU?$_Tree_node@U?$pair@$$CBV?$basic_string@DU?$char_traits@D@std@@V?$allocator@D@2@@std@@VcPhysicsObjectTypes@@@std@@PEAX@1@$$QEA_N@Z ; std::pair<std::_Tree_node<std::pair<std::basic_string<char,std::char_traits<char>,std::allocator<char> > const ,cPhysicsObjectTypes>,void *> *,bool>::pair<std::_Tree_node<std::pair<std::basic_string<char,std::char_traits<char>,std::allocator<char> > const ,cPhysicsObjectTypes>,void *> *,bool><std::_Tree_node<std::pair<std::basic_string<char,std::char_traits<char>,std::allocator<char> > const ,cPhysicsObjectTypes>,void *> *,bool,0>
PUBLIC	??$?0U?$pair@$$CBV?$basic_string@DU?$char_traits@D@std@@V?$allocator@D@2@@std@@VcPhysicsObjectTypes@@@std@@@?$_Tree_temp_node@V?$allocator@U?$_Tree_node@U?$pair@$$CBV?$basic_string@DU?$char_traits@D@std@@V?$allocator@D@2@@std@@VcPhysicsObjectTypes@@@std@@PEAX@std@@@std@@@std@@QEAA@AEAV?$allocator@U?$_Tree_node@U?$pair@$$CBV?$basic_string@DU?$char_traits@D@std@@V?$allocator@D@2@@std@@VcPhysicsObjectTypes@@@std@@PEAX@std@@@1@PEAU?$_Tree_node@U?$pair@$$CBV?$basic_string@DU?$char_traits@D@std@@V?$allocator@D@2@@std@@VcPhysicsObjectTypes@@@std@@PEAX@1@$$QEAU?$pair@$$CBV?$basic_string@DU?$char_traits@D@std@@V?$allocator@D@2@@std@@VcPhysicsObjectTypes@@@1@@Z ; std::_Tree_temp_node<std::allocator<std::_Tree_node<std::pair<std::basic_string<char,std::char_traits<char>,std::allocator<char> > const ,cPhysicsObjectTypes>,void *> > >::_Tree_temp_node<std::allocator<std::_Tree_node<std::pair<std::basic_string<char,std::char_traits<char>,std::allocator<char> > const ,cPhysicsObjectTypes>,void *> > ><std::pair<std::basic_string<char,std::char_traits<char>,std::allocator<char> > const ,cPhysicsObjectTypes> >
PUBLIC	??$forward@U?$pair@$$CBV?$basic_string@DU?$char_traits@D@std@@V?$allocator@D@2@@std@@VcPhysicsObjectTypes@@@std@@@std@@YA$$QEAU?$pair@$$CBV?$basic_string@DU?$char_traits@D@std@@V?$allocator@D@2@@std@@VcPhysicsObjectTypes@@@0@AEAU10@@Z ; std::forward<std::pair<std::basic_string<char,std::char_traits<char>,std::allocator<char> > const ,cPhysicsObjectTypes> >
PUBLIC	??$?0AEAPEAU?$_Tree_node@U?$pair@$$CBV?$basic_string@DU?$char_traits@D@std@@V?$allocator@D@2@@std@@VcPhysicsObjectTypes@@@std@@PEAX@std@@_N$0A@@?$pair@PEAU?$_Tree_node@U?$pair@$$CBV?$basic_string@DU?$char_traits@D@std@@V?$allocator@D@2@@std@@VcPhysicsObjectTypes@@@std@@PEAX@std@@_N@std@@QEAA@AEAPEAU?$_Tree_node@U?$pair@$$CBV?$basic_string@DU?$char_traits@D@std@@V?$allocator@D@2@@std@@VcPhysicsObjectTypes@@@std@@PEAX@1@$$QEA_N@Z ; std::pair<std::_Tree_node<std::pair<std::basic_string<char,std::char_traits<char>,std::allocator<char> > const ,cPhysicsObjectTypes>,void *> *,bool>::pair<std::_Tree_node<std::pair<std::basic_string<char,std::char_traits<char>,std::allocator<char> > const ,cPhysicsObjectTypes>,void *> *,bool><std::_Tree_node<std::pair<std::basic_string<char,std::char_traits<char>,std::allocator<char> > const ,cPhysicsObjectTypes>,void *> * &,bool,0>
PUBLIC	??$_Lower_bound_duplicate@V?$basic_string@DU?$char_traits@D@std@@V?$allocator@D@2@@std@@@?$_Tree@V?$_Tmap_traits@V?$basic_string@DU?$char_traits@D@std@@V?$allocator@D@2@@std@@VcPhysicsObjectTypes@@U?$less@V?$basic_string@DU?$char_traits@D@std@@V?$allocator@D@2@@std@@@2@V?$allocator@U?$pair@$$CBV?$basic_string@DU?$char_traits@D@std@@V?$allocator@D@2@@std@@VcPhysicsObjectTypes@@@std@@@2@$0A@@std@@@std@@IEBA_NQEAU?$_Tree_node@U?$pair@$$CBV?$basic_string@DU?$char_traits@D@std@@V?$allocator@D@2@@std@@VcPhysicsObjectTypes@@@std@@PEAX@1@AEBV?$basic_string@DU?$char_traits@D@std@@V?$allocator@D@2@@1@@Z ; std::_Tree<std::_Tmap_traits<std::basic_string<char,std::char_traits<char>,std::allocator<char> >,cPhysicsObjectTypes,std::less<std::basic_string<char,std::char_traits<char>,std::allocator<char> > >,std::allocator<std::pair<std::basic_string<char,std::char_traits<char>,std::allocator<char> > const ,cPhysicsObjectTypes> >,0> >::_Lower_bound_duplicate<std::basic_string<char,std::char_traits<char>,std::allocator<char> > >
PUBLIC	??$_Find_lower_bound@V?$basic_string@DU?$char_traits@D@std@@V?$allocator@D@2@@std@@@?$_Tree@V?$_Tmap_traits@V?$basic_string@DU?$char_traits@D@std@@V?$allocator@D@2@@std@@VcPhysicsObjectTypes@@U?$less@V?$basic_string@DU?$char_traits@D@std@@V?$allocator@D@2@@std@@@2@V?$allocator@U?$pair@$$CBV?$basic_string@DU?$char_traits@D@std@@V?$allocator@D@2@@std@@VcPhysicsObjectTypes@@@std@@@2@$0A@@std@@@std@@IEBA?AU?$_Tree_find_result@PEAU?$_Tree_node@U?$pair@$$CBV?$basic_string@DU?$char_traits@D@std@@V?$allocator@D@2@@std@@VcPhysicsObjectTypes@@@std@@PEAX@std@@@1@AEBV?$basic_string@DU?$char_traits@D@std@@V?$allocator@D@2@@1@@Z ; std::_Tree<std::_Tmap_traits<std::basic_string<char,std::char_traits<char>,std::allocator<char> >,cPhysicsObjectTypes,std::less<std::basic_string<char,std::char_traits<char>,std::allocator<char> > >,std::allocator<std::pair<std::basic_string<char,std::char_traits<char>,std::allocator<char> > const ,cPhysicsObjectTypes> >,0> >::_Find_lower_bound<std::basic_string<char,std::char_traits<char>,std::allocator<char> > >
PUBLIC	?_Get_first@?$_Compressed_pair@V?$allocator@U?$_Tree_node@U?$pair@$$CBV?$basic_string@DU?$char_traits@D@std@@V?$allocator@D@2@@std@@VcPhysicsObjectTypes@@@std@@PEAX@std@@@std@@V?$_Tree_val@U?$_Tree_simple_types@U?$pair@$$CBV?$basic_string@DU?$char_traits@D@std@@V?$allocator@D@2@@std@@VcPhysicsObjectTypes@@@std@@@std@@@2@$00@std@@QEBAAEBV?$allocator@U?$_Tree_node@U?$pair@$$CBV?$basic_string@DU?$char_traits@D@std@@V?$allocator@D@2@@std@@VcPhysicsObjectTypes@@@std@@PEAX@std@@@2@XZ ; std::_Compressed_pair<std::allocator<std::_Tree_node<std::pair<std::basic_string<char,std::char_traits<char>,std::allocator<char> > const ,cPhysicsObjectTypes>,void *> >,std::_Tree_val<std::_Tree_simple_types<std::pair<std::basic_string<char,std::char_traits<char>,std::allocator<char> > const ,cPhysicsObjectTypes> > >,1>::_Get_first
PUBLIC	?_Get_first@?$_Compressed_pair@U?$less@V?$basic_string@DU?$char_traits@D@std@@V?$allocator@D@2@@std@@@std@@V?$_Compressed_pair@V?$allocator@U?$_Tree_node@U?$pair@$$CBV?$basic_string@DU?$char_traits@D@std@@V?$allocator@D@2@@std@@U?$vec@$03M$0A@@glm@@@std@@PEAX@std@@@std@@V?$_Tree_val@U?$_Tree_simple_types@U?$pair@$$CBV?$basic_string@DU?$char_traits@D@std@@V?$allocator@D@2@@std@@U?$vec@$03M$0A@@glm@@@std@@@std@@@2@$00@2@$00@std@@QEBAAEBU?$less@V?$basic_string@DU?$char_traits@D@std@@V?$allocator@D@2@@std@@@2@XZ ; std::_Compressed_pair<std::less<std::basic_string<char,std::char_traits<char>,std::allocator<char> > >,std::_Compressed_pair<std::allocator<std::_Tree_node<std::pair<std::basic_string<char,std::char_traits<char>,std::allocator<char> > const ,glm::vec<4,float,0> >,void *> >,std::_Tree_val<std::_Tree_simple_types<std::pair<std::basic_string<char,std::char_traits<char>,std::allocator<char> > const ,glm::vec<4,float,0> > > >,1>,1>::_Get_first
PUBLIC	?_Get_first@?$_Compressed_pair@V?$allocator@PEAUsParticleThreadData@@@std@@V?$_Vector_val@U?$_Simple_types@PEAUsParticleThreadData@@@std@@@2@$00@std@@QEBAAEBV?$allocator@PEAUsParticleThreadData@@@2@XZ ; std::_Compressed_pair<std::allocator<sParticleThreadData *>,std::_Vector_val<std::_Simple_types<sParticleThreadData *> >,1>::_Get_first
PUBLIC	?deallocate@?$allocator@U?$_Tree_node@U?$pair@$$CBV?$basic_string@DU?$char_traits@D@std@@V?$allocator@D@2@@std@@VcPhysicsObjectTypes@@@std@@PEAX@std@@@std@@QEAAXQEAU?$_Tree_node@U?$pair@$$CBV?$basic_string@DU?$char_traits@D@std@@V?$allocator@D@2@@std@@VcPhysicsObjectTypes@@@std@@PEAX@2@_K@Z ; std::allocator<std::_Tree_node<std::pair<std::basic_string<char,std::char_traits<char>,std::allocator<char> > const ,cPhysicsObjectTypes>,void *> >::deallocate
PUBLIC	?max_size@?$_Default_allocator_traits@V?$allocator@U?$_Tree_node@U?$pair@$$CBV?$basic_string@DU?$char_traits@D@std@@V?$allocator@D@2@@std@@VcPhysicsObjectTypes@@@std@@PEAX@std@@@std@@@std@@SA_KAEBV?$allocator@U?$_Tree_node@U?$pair@$$CBV?$basic_string@DU?$char_traits@D@std@@V?$allocator@D@2@@std@@VcPhysicsObjectTypes@@@std@@PEAX@std@@@2@@Z ; std::_Default_allocator_traits<std::allocator<std::_Tree_node<std::pair<std::basic_string<char,std::char_traits<char>,std::allocator<char> > const ,cPhysicsObjectTypes>,void *> > >::max_size
PUBLIC	?_Getal@?$_Tree@V?$_Tmap_traits@V?$basic_string@DU?$char_traits@D@std@@V?$allocator@D@2@@std@@VcPhysicsObjectTypes@@U?$less@V?$basic_string@DU?$char_traits@D@std@@V?$allocator@D@2@@std@@@2@V?$allocator@U?$pair@$$CBV?$basic_string@DU?$char_traits@D@std@@V?$allocator@D@2@@std@@VcPhysicsObjectTypes@@@std@@@2@$0A@@std@@@std@@IEBAAEBV?$allocator@U?$_Tree_node@U?$pair@$$CBV?$basic_string@DU?$char_traits@D@std@@V?$allocator@D@2@@std@@VcPhysicsObjectTypes@@@std@@PEAX@std@@@2@XZ ; std::_Tree<std::_Tmap_traits<std::basic_string<char,std::char_traits<char>,std::allocator<char> >,cPhysicsObjectTypes,std::less<std::basic_string<char,std::char_traits<char>,std::allocator<char> > >,std::allocator<std::pair<std::basic_string<char,std::char_traits<char>,std::allocator<char> > const ,cPhysicsObjectTypes> >,0> >::_Getal
PUBLIC	?_Getcomp@?$_Tree@V?$_Tmap_traits@V?$basic_string@DU?$char_traits@D@std@@V?$allocator@D@2@@std@@U?$vec@$03M$0A@@glm@@U?$less@V?$basic_string@DU?$char_traits@D@std@@V?$allocator@D@2@@std@@@2@V?$allocator@U?$pair@$$CBV?$basic_string@DU?$char_traits@D@std@@V?$allocator@D@2@@std@@U?$vec@$03M$0A@@glm@@@std@@@2@$0A@@std@@@std@@IEBAAEBU?$less@V?$basic_string@DU?$char_traits@D@std@@V?$allocator@D@2@@std@@@2@XZ ; std::_Tree<std::_Tmap_traits<std::basic_string<char,std::char_traits<char>,std::allocator<char> >,glm::vec<4,float,0>,std::less<std::basic_string<char,std::char_traits<char>,std::allocator<char> > >,std::allocator<std::pair<std::basic_string<char,std::char_traits<char>,std::allocator<char> > const ,glm::vec<4,float,0> > >,0> >::_Getcomp
PUBLIC	?max_size@?$_Default_allocator_traits@V?$allocator@PEAUsParticleThreadData@@@std@@@std@@SA_KAEBV?$allocator@PEAUsParticleThreadData@@@2@@Z ; std::_Default_allocator_traits<std::allocator<sParticleThreadData *> >::max_size
PUBLIC	?capacity@?$vector@PEAUsParticleThreadData@@V?$allocator@PEAUsParticleThreadData@@@std@@@std@@QEBA_KXZ ; std::vector<sParticleThreadData *,std::allocator<sParticleThreadData *> >::capacity
PUBLIC	?_Getal@?$vector@PEAUsParticleThreadData@@V?$allocator@PEAUsParticleThreadData@@@std@@@std@@AEBAAEBV?$allocator@PEAUsParticleThreadData@@@2@XZ ; std::vector<sParticleThreadData *,std::allocator<sParticleThreadData *> >::_Getal
PUBLIC	?max_size@?$_Tree@V?$_Tmap_traits@V?$basic_string@DU?$char_traits@D@std@@V?$allocator@D@2@@std@@VcPhysicsObjectTypes@@U?$less@V?$basic_string@DU?$char_traits@D@std@@V?$allocator@D@2@@std@@@2@V?$allocator@U?$pair@$$CBV?$basic_string@DU?$char_traits@D@std@@V?$allocator@D@2@@std@@VcPhysicsObjectTypes@@@std@@@2@$0A@@std@@@std@@QEBA_KXZ ; std::_Tree<std::_Tmap_traits<std::basic_string<char,std::char_traits<char>,std::allocator<char> >,cPhysicsObjectTypes,std::less<std::basic_string<char,std::char_traits<char>,std::allocator<char> > >,std::allocator<std::pair<std::basic_string<char,std::char_traits<char>,std::allocator<char> > const ,cPhysicsObjectTypes> >,0> >::max_size
PUBLIC	?_Lrotate@?$_Tree_val@U?$_Tree_simple_types@U?$pair@$$CBV?$basic_string@DU?$char_traits@D@std@@V?$allocator@D@2@@std@@VcPhysicsObjectTypes@@@std@@@std@@@std@@QEAAXPEAU?$_Tree_node@U?$pair@$$CBV?$basic_string@DU?$char_traits@D@std@@V?$allocator@D@2@@std@@VcPhysicsObjectTypes@@@std@@PEAX@2@@Z ; std::_Tree_val<std::_Tree_simple_types<std::pair<std::basic_string<char,std::char_traits<char>,std::allocator<char> > const ,cPhysicsObjectTypes> > >::_Lrotate
PUBLIC	?_Rrotate@?$_Tree_val@U?$_Tree_simple_types@U?$pair@$$CBV?$basic_string@DU?$char_traits@D@std@@V?$allocator@D@2@@std@@VcPhysicsObjectTypes@@@std@@@std@@@std@@QEAAXPEAU?$_Tree_node@U?$pair@$$CBV?$basic_string@DU?$char_traits@D@std@@V?$allocator@D@2@@std@@VcPhysicsObjectTypes@@@std@@PEAX@2@@Z ; std::_Tree_val<std::_Tree_simple_types<std::pair<std::basic_string<char,std::char_traits<char>,std::allocator<char> > const ,cPhysicsObjectTypes> > >::_Rrotate
PUBLIC	??1?$_Alloc_construct_ptr@V?$allocator@U?$_Tree_node@U?$pair@$$CBV?$basic_string@DU?$char_traits@D@std@@V?$allocator@D@2@@std@@VcPhysicsObjectTypes@@@std@@PEAX@std@@@std@@@std@@QEAA@XZ ; std::_Alloc_construct_ptr<std::allocator<std::_Tree_node<std::pair<std::basic_string<char,std::char_traits<char>,std::allocator<char> > const ,cPhysicsObjectTypes>,void *> > >::~_Alloc_construct_ptr<std::allocator<std::_Tree_node<std::pair<std::basic_string<char,std::char_traits<char>,std::allocator<char> > const ,cPhysicsObjectTypes>,void *> > >
PUBLIC	??1?$_Tree_temp_node_alloc@V?$allocator@U?$_Tree_node@U?$pair@$$CBV?$basic_string@DU?$char_traits@D@std@@V?$allocator@D@2@@std@@VcPhysicsObjectTypes@@@std@@PEAX@std@@@std@@@std@@QEAA@XZ ; std::_Tree_temp_node_alloc<std::allocator<std::_Tree_node<std::pair<std::basic_string<char,std::char_traits<char>,std::allocator<char> > const ,cPhysicsObjectTypes>,void *> > >::~_Tree_temp_node_alloc<std::allocator<std::_Tree_node<std::pair<std::basic_string<char,std::char_traits<char>,std::allocator<char> > const ,cPhysicsObjectTypes>,void *> > >
PUBLIC	??0?$allocator@U?$_Tree_node@U?$pair@$$CBV?$basic_string@DU?$char_traits@D@std@@V?$allocator@D@2@@std@@PEAVcSoftBodyVerlet@@@std@@PEAX@std@@@std@@QEAA@XZ ; std::allocator<std::_Tree_node<std::pair<std::basic_string<char,std::char_traits<char>,std::allocator<char> > const ,cSoftBodyVerlet *>,void *> >::allocator<std::_Tree_node<std::pair<std::basic_string<char,std::char_traits<char>,std::allocator<char> > const ,cSoftBodyVerlet *>,void *> >
PUBLIC	?deallocate@?$_Default_allocator_traits@V?$allocator@U?$_Tree_node@U?$pair@$$CBV?$basic_string@DU?$char_traits@D@std@@V?$allocator@D@2@@std@@PEAVcSoftBodyVerlet@@@std@@PEAX@std@@@std@@@std@@SAXAEAV?$allocator@U?$_Tree_node@U?$pair@$$CBV?$basic_string@DU?$char_traits@D@std@@V?$allocator@D@2@@std@@PEAVcSoftBodyVerlet@@@std@@PEAX@std@@@2@QEAU?$_Tree_node@U?$pair@$$CBV?$basic_string@DU?$char_traits@D@std@@V?$allocator@D@2@@std@@PEAVcSoftBodyVerlet@@@std@@PEAX@2@_K@Z ; std::_Default_allocator_traits<std::allocator<std::_Tree_node<std::pair<std::basic_string<char,std::char_traits<char>,std::allocator<char> > const ,cSoftBodyVerlet *>,void *> > >::deallocate
PUBLIC	??0?$_Tree_val@U?$_Tree_simple_types@U?$pair@$$CBV?$basic_string@DU?$char_traits@D@std@@V?$allocator@D@2@@std@@PEAVcSoftBodyVerlet@@@std@@@std@@@std@@QEAA@XZ ; std::_Tree_val<std::_Tree_simple_types<std::pair<std::basic_string<char,std::char_traits<char>,std::allocator<char> > const ,cSoftBodyVerlet *> > >::_Tree_val<std::_Tree_simple_types<std::pair<std::basic_string<char,std::char_traits<char>,std::allocator<char> > const ,cSoftBodyVerlet *> > >
PUBLIC	??0?$allocator@U?$_Tree_node@U?$pair@$$CB_KPEAVcBroad_Cube@cPhysics@@@std@@PEAX@std@@@std@@QEAA@XZ ; std::allocator<std::_Tree_node<std::pair<unsigned __int64 const ,cPhysics::cBroad_Cube *>,void *> >::allocator<std::_Tree_node<std::pair<unsigned __int64 const ,cPhysics::cBroad_Cube *>,void *> >
PUBLIC	?deallocate@?$_Default_allocator_traits@V?$allocator@U?$_Tree_node@U?$pair@$$CB_KPEAVcBroad_Cube@cPhysics@@@std@@PEAX@std@@@std@@@std@@SAXAEAV?$allocator@U?$_Tree_node@U?$pair@$$CB_KPEAVcBroad_Cube@cPhysics@@@std@@PEAX@std@@@2@QEAU?$_Tree_node@U?$pair@$$CB_KPEAVcBroad_Cube@cPhysics@@@std@@PEAX@2@_K@Z ; std::_Default_allocator_traits<std::allocator<std::_Tree_node<std::pair<unsigned __int64 const ,cPhysics::cBroad_Cube *>,void *> > >::deallocate
PUBLIC	??0?$_Tree_val@U?$_Tree_simple_types@U?$pair@$$CB_KPEAVcBroad_Cube@cPhysics@@@std@@@std@@@std@@QEAA@XZ ; std::_Tree_val<std::_Tree_simple_types<std::pair<unsigned __int64 const ,cPhysics::cBroad_Cube *> > >::_Tree_val<std::_Tree_simple_types<std::pair<unsigned __int64 const ,cPhysics::cBroad_Cube *> > >
PUBLIC	?key_comp@?$_Tree@V?$_Tmap_traits@V?$basic_string@DU?$char_traits@D@std@@V?$allocator@D@2@@std@@U?$vec@$03M$0A@@glm@@U?$less@V?$basic_string@DU?$char_traits@D@std@@V?$allocator@D@2@@std@@@2@V?$allocator@U?$pair@$$CBV?$basic_string@DU?$char_traits@D@std@@V?$allocator@D@2@@std@@U?$vec@$03M$0A@@glm@@@std@@@2@$0A@@std@@@std@@QEBA?AU?$less@V?$basic_string@DU?$char_traits@D@std@@V?$allocator@D@2@@std@@@2@XZ ; std::_Tree<std::_Tmap_traits<std::basic_string<char,std::char_traits<char>,std::allocator<char> >,glm::vec<4,float,0>,std::less<std::basic_string<char,std::char_traits<char>,std::allocator<char> > >,std::allocator<std::pair<std::basic_string<char,std::char_traits<char>,std::allocator<char> > const ,glm::vec<4,float,0> > >,0> >::key_comp
PUBLIC	??0?$allocator@U?$_Tree_node@U?$pair@$$CBV?$basic_string@DU?$char_traits@D@std@@V?$allocator@D@2@@std@@PEAVCTextureFromBMP@@@std@@PEAX@std@@@std@@QEAA@XZ ; std::allocator<std::_Tree_node<std::pair<std::basic_string<char,std::char_traits<char>,std::allocator<char> > const ,CTextureFromBMP *>,void *> >::allocator<std::_Tree_node<std::pair<std::basic_string<char,std::char_traits<char>,std::allocator<char> > const ,CTextureFromBMP *>,void *> >
PUBLIC	?deallocate@?$_Default_allocator_traits@V?$allocator@U?$_Tree_node@U?$pair@$$CBV?$basic_string@DU?$char_traits@D@std@@V?$allocator@D@2@@std@@PEAVCTextureFromBMP@@@std@@PEAX@std@@@std@@@std@@SAXAEAV?$allocator@U?$_Tree_node@U?$pair@$$CBV?$basic_string@DU?$char_traits@D@std@@V?$allocator@D@2@@std@@PEAVCTextureFromBMP@@@std@@PEAX@std@@@2@QEAU?$_Tree_node@U?$pair@$$CBV?$basic_string@DU?$char_traits@D@std@@V?$allocator@D@2@@std@@PEAVCTextureFromBMP@@@std@@PEAX@2@_K@Z ; std::_Default_allocator_traits<std::allocator<std::_Tree_node<std::pair<std::basic_string<char,std::char_traits<char>,std::allocator<char> > const ,CTextureFromBMP *>,void *> > >::deallocate
PUBLIC	??0?$_Tree_val@U?$_Tree_simple_types@U?$pair@$$CBV?$basic_string@DU?$char_traits@D@std@@V?$allocator@D@2@@std@@PEAVCTextureFromBMP@@@std@@@std@@@std@@QEAA@XZ ; std::_Tree_val<std::_Tree_simple_types<std::pair<std::basic_string<char,std::char_traits<char>,std::allocator<char> > const ,CTextureFromBMP *> > >::_Tree_val<std::_Tree_simple_types<std::pair<std::basic_string<char,std::char_traits<char>,std::allocator<char> > const ,CTextureFromBMP *> > >
PUBLIC	?max_size@?$vector@PEAUsParticleThreadData@@V?$allocator@PEAUsParticleThreadData@@@std@@@std@@QEBA_KXZ ; std::vector<sParticleThreadData *,std::allocator<sParticleThreadData *> >::max_size
PUBLIC	?_Calculate_growth@?$vector@PEAUsParticleThreadData@@V?$allocator@PEAUsParticleThreadData@@@std@@@std@@AEBA_K_K@Z ; std::vector<sParticleThreadData *,std::allocator<sParticleThreadData *> >::_Calculate_growth
PUBLIC	?_Change_array@?$vector@PEAUsParticleThreadData@@V?$allocator@PEAUsParticleThreadData@@@std@@@std@@AEAAXQEAPEAUsParticleThreadData@@_K1@Z ; std::vector<sParticleThreadData *,std::allocator<sParticleThreadData *> >::_Change_array
PUBLIC	?_Xlength@?$vector@PEAUsParticleThreadData@@V?$allocator@PEAUsParticleThreadData@@@std@@@std@@CAXXZ ; std::vector<sParticleThreadData *,std::allocator<sParticleThreadData *> >::_Xlength
PUBLIC	?_Orphan_range@?$vector@PEAUsParticleThreadData@@V?$allocator@PEAUsParticleThreadData@@@std@@@std@@AEBAXPEAPEAUsParticleThreadData@@0@Z ; std::vector<sParticleThreadData *,std::allocator<sParticleThreadData *> >::_Orphan_range
PUBLIC	?_Check_grow_by_1@?$_Tree@V?$_Tmap_traits@V?$basic_string@DU?$char_traits@D@std@@V?$allocator@D@2@@std@@VcPhysicsObjectTypes@@U?$less@V?$basic_string@DU?$char_traits@D@std@@V?$allocator@D@2@@std@@@2@V?$allocator@U?$pair@$$CBV?$basic_string@DU?$char_traits@D@std@@V?$allocator@D@2@@std@@VcPhysicsObjectTypes@@@std@@@2@$0A@@std@@@std@@IEAAXXZ ; std::_Tree<std::_Tmap_traits<std::basic_string<char,std::char_traits<char>,std::allocator<char> >,cPhysicsObjectTypes,std::less<std::basic_string<char,std::char_traits<char>,std::allocator<char> > >,std::allocator<std::pair<std::basic_string<char,std::char_traits<char>,std::allocator<char> > const ,cPhysicsObjectTypes> >,0> >::_Check_grow_by_1
PUBLIC	?_Insert_node@?$_Tree_val@U?$_Tree_simple_types@U?$pair@$$CBV?$basic_string@DU?$char_traits@D@std@@V?$allocator@D@2@@std@@VcPhysicsObjectTypes@@@std@@@std@@@std@@QEAAPEAU?$_Tree_node@U?$pair@$$CBV?$basic_string@DU?$char_traits@D@std@@V?$allocator@D@2@@std@@VcPhysicsObjectTypes@@@std@@PEAX@2@U?$_Tree_id@PEAU?$_Tree_node@U?$pair@$$CBV?$basic_string@DU?$char_traits@D@std@@V?$allocator@D@2@@std@@VcPhysicsObjectTypes@@@std@@PEAX@std@@@2@QEAU32@@Z ; std::_Tree_val<std::_Tree_simple_types<std::pair<std::basic_string<char,std::char_traits<char>,std::allocator<char> > const ,cPhysicsObjectTypes> > >::_Insert_node
PUBLIC	?_Extract@?$_In_place_key_extract_map_impl@V?$basic_string@DU?$char_traits@D@std@@V?$allocator@D@2@@std@@U?$pair@$$CBV?$basic_string@DU?$char_traits@D@std@@V?$allocator@D@2@@std@@VcPhysicsObjectTypes@@@2@@std@@SAAEBV?$basic_string@DU?$char_traits@D@std@@V?$allocator@D@2@@2@AEBU?$pair@$$CBV?$basic_string@DU?$char_traits@D@std@@V?$allocator@D@2@@std@@VcPhysicsObjectTypes@@@2@@Z ; std::_In_place_key_extract_map_impl<std::basic_string<char,std::char_traits<char>,std::allocator<char> >,std::pair<std::basic_string<char,std::char_traits<char>,std::allocator<char> > const ,cPhysicsObjectTypes> >::_Extract
PUBLIC	?_Release@?$_Alloc_construct_ptr@V?$allocator@U?$_Tree_node@U?$pair@$$CBV?$basic_string@DU?$char_traits@D@std@@V?$allocator@D@2@@std@@VcPhysicsObjectTypes@@@std@@PEAX@std@@@std@@@std@@QEAAPEAU?$_Tree_node@U?$pair@$$CBV?$basic_string@DU?$char_traits@D@std@@V?$allocator@D@2@@std@@VcPhysicsObjectTypes@@@std@@PEAX@2@XZ ; std::_Alloc_construct_ptr<std::allocator<std::_Tree_node<std::pair<std::basic_string<char,std::char_traits<char>,std::allocator<char> > const ,cPhysicsObjectTypes>,void *> > >::_Release
PUBLIC	??1?$_Tree_temp_node@V?$allocator@U?$_Tree_node@U?$pair@$$CBV?$basic_string@DU?$char_traits@D@std@@V?$allocator@D@2@@std@@VcPhysicsObjectTypes@@@std@@PEAX@std@@@std@@@std@@QEAA@XZ ; std::_Tree_temp_node<std::allocator<std::_Tree_node<std::pair<std::basic_string<char,std::char_traits<char>,std::allocator<char> > const ,cPhysicsObjectTypes>,void *> > >::~_Tree_temp_node<std::allocator<std::_Tree_node<std::pair<std::basic_string<char,std::char_traits<char>,std::allocator<char> > const ,cPhysicsObjectTypes>,void *> > >
PUBLIC	??1_Reallocation_guard@?$vector@PEAUsParticleThreadData@@V?$allocator@PEAUsParticleThreadData@@@std@@@std@@QEAA@XZ ; std::vector<sParticleThreadData *,std::allocator<sParticleThreadData *> >::_Reallocation_guard::~_Reallocation_guard
PUBLIC	??0?$_Tree_head_scoped_ptr@V?$allocator@U?$_Tree_node@U?$pair@$$CBV?$basic_string@DU?$char_traits@D@std@@V?$allocator@D@2@@std@@U?$vec@$03M$0A@@glm@@@std@@PEAX@std@@@std@@V?$_Tree_val@U?$_Tree_simple_types@U?$pair@$$CBV?$basic_string@DU?$char_traits@D@std@@V?$allocator@D@2@@std@@U?$vec@$03M$0A@@glm@@@std@@@std@@@2@@std@@QEAA@AEAV?$allocator@U?$_Tree_node@U?$pair@$$CBV?$basic_string@DU?$char_traits@D@std@@V?$allocator@D@2@@std@@U?$vec@$03M$0A@@glm@@@std@@PEAX@std@@@1@AEAV?$_Tree_val@U?$_Tree_simple_types@U?$pair@$$CBV?$basic_string@DU?$char_traits@D@std@@V?$allocator@D@2@@std@@U?$vec@$03M$0A@@glm@@@std@@@std@@@1@@Z ; std::_Tree_head_scoped_ptr<std::allocator<std::_Tree_node<std::pair<std::basic_string<char,std::char_traits<char>,std::allocator<char> > const ,glm::vec<4,float,0> >,void *> >,std::_Tree_val<std::_Tree_simple_types<std::pair<std::basic_string<char,std::char_traits<char>,std::allocator<char> > const ,glm::vec<4,float,0> > > > >::_Tree_head_scoped_ptr<std::allocator<std::_Tree_node<std::pair<std::basic_string<char,std::char_traits<char>,std::allocator<char> > const ,glm::vec<4,float,0> >,void *> >,std::_Tree_val<std::_Tree_simple_types<std::pair<std::basic_string<char,std::char_traits<char>,std::allocator<char> > const ,glm::vec<4,float,0> > > > >
PUBLIC	?_Release@?$_Tree_head_scoped_ptr@V?$allocator@U?$_Tree_node@U?$pair@$$CBV?$basic_string@DU?$char_traits@D@std@@V?$allocator@D@2@@std@@U?$vec@$03M$0A@@glm@@@std@@PEAX@std@@@std@@V?$_Tree_val@U?$_Tree_simple_types@U?$pair@$$CBV?$basic_string@DU?$char_traits@D@std@@V?$allocator@D@2@@std@@U?$vec@$03M$0A@@glm@@@std@@@std@@@2@@std@@QEAAXXZ ; std::_Tree_head_scoped_ptr<std::allocator<std::_Tree_node<std::pair<std::basic_string<char,std::char_traits<char>,std::allocator<char> > const ,glm::vec<4,float,0> >,void *> >,std::_Tree_val<std::_Tree_simple_types<std::pair<std::basic_string<char,std::char_traits<char>,std::allocator<char> > const ,glm::vec<4,float,0> > > > >::_Release
PUBLIC	??1?$_Tree_head_scoped_ptr@V?$allocator@U?$_Tree_node@U?$pair@$$CBV?$basic_string@DU?$char_traits@D@std@@V?$allocator@D@2@@std@@U?$vec@$03M$0A@@glm@@@std@@PEAX@std@@@std@@V?$_Tree_val@U?$_Tree_simple_types@U?$pair@$$CBV?$basic_string@DU?$char_traits@D@std@@V?$allocator@D@2@@std@@U?$vec@$03M$0A@@glm@@@std@@@std@@@2@@std@@QEAA@XZ ; std::_Tree_head_scoped_ptr<std::allocator<std::_Tree_node<std::pair<std::basic_string<char,std::char_traits<char>,std::allocator<char> > const ,glm::vec<4,float,0> >,void *> >,std::_Tree_val<std::_Tree_simple_types<std::pair<std::basic_string<char,std::char_traits<char>,std::allocator<char> > const ,glm::vec<4,float,0> > > > >::~_Tree_head_scoped_ptr<std::allocator<std::_Tree_node<std::pair<std::basic_string<char,std::char_traits<char>,std::allocator<char> > const ,glm::vec<4,float,0> >,void *> >,std::_Tree_val<std::_Tree_simple_types<std::pair<std::basic_string<char,std::char_traits<char>,std::allocator<char> > const ,glm::vec<4,float,0> > > > >
PUBLIC	??$?0V?$allocator@U?$_Tree_node@U?$pair@$$CBV?$basic_string@DU?$char_traits@D@std@@V?$allocator@D@2@@std@@U?$vec@$03M$0A@@glm@@@std@@PEAX@std@@@std@@@?$_Tree@V?$_Tmap_traits@V?$basic_string@DU?$char_traits@D@std@@V?$allocator@D@2@@std@@U?$vec@$03M$0A@@glm@@U?$less@V?$basic_string@DU?$char_traits@D@std@@V?$allocator@D@2@@std@@@2@V?$allocator@U?$pair@$$CBV?$basic_string@DU?$char_traits@D@std@@V?$allocator@D@2@@std@@U?$vec@$03M$0A@@glm@@@std@@@2@$0A@@std@@@std@@QEAA@AEBV01@$$QEAV?$allocator@U?$_Tree_node@U?$pair@$$CBV?$basic_string@DU?$char_traits@D@std@@V?$allocator@D@2@@std@@U?$vec@$03M$0A@@glm@@@std@@PEAX@std@@@1@@Z ; std::_Tree<std::_Tmap_traits<std::basic_string<char,std::char_traits<char>,std::allocator<char> >,glm::vec<4,float,0>,std::less<std::basic_string<char,std::char_traits<char>,std::allocator<char> > >,std::allocator<std::pair<std::basic_string<char,std::char_traits<char>,std::allocator<char> > const ,glm::vec<4,float,0> > >,0> >::_Tree<std::_Tmap_traits<std::basic_string<char,std::char_traits<char>,std::allocator<char> >,glm::vec<4,float,0>,std::less<std::basic_string<char,std::char_traits<char>,std::allocator<char> > >,std::allocator<std::pair<std::basic_string<char,std::char_traits<char>,std::allocator<char> > const ,glm::vec<4,float,0> > >,0> ><std::allocator<std::_Tree_node<std::pair<std::basic_string<char,std::char_traits<char>,std::allocator<char> > const ,glm::vec<4,float,0> >,void *> > >
PUBLIC	??$_Construct_in_place@PEAU?$_Tree_node@U?$pair@$$CBV?$basic_string@DU?$char_traits@D@std@@V?$allocator@D@2@@std@@PEAVcSoftBodyVerlet@@@std@@PEAX@std@@AEBQEAU12@@std@@YAXAEAPEAU?$_Tree_node@U?$pair@$$CBV?$basic_string@DU?$char_traits@D@std@@V?$allocator@D@2@@std@@PEAVcSoftBodyVerlet@@@std@@PEAX@0@AEBQEAU10@@Z ; std::_Construct_in_place<std::_Tree_node<std::pair<std::basic_string<char,std::char_traits<char>,std::allocator<char> > const ,cSoftBodyVerlet *>,void *> *,std::_Tree_node<std::pair<std::basic_string<char,std::char_traits<char>,std::allocator<char> > const ,cSoftBodyVerlet *>,void *> * const &>
PUBLIC	??$_Construct_in_place@PEAU?$_Tree_node@U?$pair@$$CB_KPEAVcBroad_Cube@cPhysics@@@std@@PEAX@std@@AEBQEAU12@@std@@YAXAEAPEAU?$_Tree_node@U?$pair@$$CB_KPEAVcBroad_Cube@cPhysics@@@std@@PEAX@0@AEBQEAU10@@Z ; std::_Construct_in_place<std::_Tree_node<std::pair<unsigned __int64 const ,cPhysics::cBroad_Cube *>,void *> *,std::_Tree_node<std::pair<unsigned __int64 const ,cPhysics::cBroad_Cube *>,void *> * const &>
PUBLIC	??$_Construct_in_place@PEAU?$_Tree_node@U?$pair@$$CBV?$basic_string@DU?$char_traits@D@std@@V?$allocator@D@2@@std@@PEAVCTextureFromBMP@@@std@@PEAX@std@@AEBQEAU12@@std@@YAXAEAPEAU?$_Tree_node@U?$pair@$$CBV?$basic_string@DU?$char_traits@D@std@@V?$allocator@D@2@@std@@PEAVCTextureFromBMP@@@std@@PEAX@0@AEBQEAU10@@Z ; std::_Construct_in_place<std::_Tree_node<std::pair<std::basic_string<char,std::char_traits<char>,std::allocator<char> > const ,CTextureFromBMP *>,void *> *,std::_Tree_node<std::pair<std::basic_string<char,std::char_traits<char>,std::allocator<char> > const ,CTextureFromBMP *>,void *> * const &>
PUBLIC	??$forward@AEBU?$less@_K@std@@@std@@YAAEBU?$less@_K@0@AEBU10@@Z ; std::forward<std::less<unsigned __int64> const &>
PUBLIC	??$_Freenode0@V?$allocator@U?$_Tree_node@U?$pair@$$CBV?$basic_string@DU?$char_traits@D@std@@V?$allocator@D@2@@std@@PEAVcSoftBodyVerlet@@@std@@PEAX@std@@@std@@@?$_Tree_node@U?$pair@$$CBV?$basic_string@DU?$char_traits@D@std@@V?$allocator@D@2@@std@@PEAVcSoftBodyVerlet@@@std@@PEAX@std@@SAXAEAV?$allocator@U?$_Tree_node@U?$pair@$$CBV?$basic_string@DU?$char_traits@D@std@@V?$allocator@D@2@@std@@PEAVcSoftBodyVerlet@@@std@@PEAX@std@@@1@PEAU01@@Z ; std::_Tree_node<std::pair<std::basic_string<char,std::char_traits<char>,std::allocator<char> > const ,cSoftBodyVerlet *>,void *>::_Freenode0<std::allocator<std::_Tree_node<std::pair<std::basic_string<char,std::char_traits<char>,std::allocator<char> > const ,cSoftBodyVerlet *>,void *> > >
PUBLIC	??$_Erase_tree@V?$allocator@U?$_Tree_node@U?$pair@$$CBV?$basic_string@DU?$char_traits@D@std@@V?$allocator@D@2@@std@@PEAVcSoftBodyVerlet@@@std@@PEAX@std@@@std@@@?$_Tree_val@U?$_Tree_simple_types@U?$pair@$$CBV?$basic_string@DU?$char_traits@D@std@@V?$allocator@D@2@@std@@PEAVcSoftBodyVerlet@@@std@@@std@@@std@@QEAAXAEAV?$allocator@U?$_Tree_node@U?$pair@$$CBV?$basic_string@DU?$char_traits@D@std@@V?$allocator@D@2@@std@@PEAVcSoftBodyVerlet@@@std@@PEAX@std@@@1@PEAU?$_Tree_node@U?$pair@$$CBV?$basic_string@DU?$char_traits@D@std@@V?$allocator@D@2@@std@@PEAVcSoftBodyVerlet@@@std@@PEAX@1@@Z ; std::_Tree_val<std::_Tree_simple_types<std::pair<std::basic_string<char,std::char_traits<char>,std::allocator<char> > const ,cSoftBodyVerlet *> > >::_Erase_tree<std::allocator<std::_Tree_node<std::pair<std::basic_string<char,std::char_traits<char>,std::allocator<char> > const ,cSoftBodyVerlet *>,void *> > >
PUBLIC	??$_Freenode0@V?$allocator@U?$_Tree_node@U?$pair@$$CB_KPEAVcBroad_Cube@cPhysics@@@std@@PEAX@std@@@std@@@?$_Tree_node@U?$pair@$$CB_KPEAVcBroad_Cube@cPhysics@@@std@@PEAX@std@@SAXAEAV?$allocator@U?$_Tree_node@U?$pair@$$CB_KPEAVcBroad_Cube@cPhysics@@@std@@PEAX@std@@@1@PEAU01@@Z ; std::_Tree_node<std::pair<unsigned __int64 const ,cPhysics::cBroad_Cube *>,void *>::_Freenode0<std::allocator<std::_Tree_node<std::pair<unsigned __int64 const ,cPhysics::cBroad_Cube *>,void *> > >
PUBLIC	??$_Erase_tree@V?$allocator@U?$_Tree_node@U?$pair@$$CB_KPEAVcBroad_Cube@cPhysics@@@std@@PEAX@std@@@std@@@?$_Tree_val@U?$_Tree_simple_types@U?$pair@$$CB_KPEAVcBroad_Cube@cPhysics@@@std@@@std@@@std@@QEAAXAEAV?$allocator@U?$_Tree_node@U?$pair@$$CB_KPEAVcBroad_Cube@cPhysics@@@std@@PEAX@std@@@1@PEAU?$_Tree_node@U?$pair@$$CB_KPEAVcBroad_Cube@cPhysics@@@std@@PEAX@1@@Z ; std::_Tree_val<std::_Tree_simple_types<std::pair<unsigned __int64 const ,cPhysics::cBroad_Cube *> > >::_Erase_tree<std::allocator<std::_Tree_node<std::pair<unsigned __int64 const ,cPhysics::cBroad_Cube *>,void *> > >
PUBLIC	??$_Freenode0@V?$allocator@U?$_Tree_node@U?$pair@$$CBV?$basic_string@DU?$char_traits@D@std@@V?$allocator@D@2@@std@@PEAVCTextureFromBMP@@@std@@PEAX@std@@@std@@@?$_Tree_node@U?$pair@$$CBV?$basic_string@DU?$char_traits@D@std@@V?$allocator@D@2@@std@@PEAVCTextureFromBMP@@@std@@PEAX@std@@SAXAEAV?$allocator@U?$_Tree_node@U?$pair@$$CBV?$basic_string@DU?$char_traits@D@std@@V?$allocator@D@2@@std@@PEAVCTextureFromBMP@@@std@@PEAX@std@@@1@PEAU01@@Z ; std::_Tree_node<std::pair<std::basic_string<char,std::char_traits<char>,std::allocator<char> > const ,CTextureFromBMP *>,void *>::_Freenode0<std::allocator<std::_Tree_node<std::pair<std::basic_string<char,std::char_traits<char>,std::allocator<char> > const ,CTextureFromBMP *>,void *> > >
PUBLIC	??$_Erase_tree@V?$allocator@U?$_Tree_node@U?$pair@$$CBV?$basic_string@DU?$char_traits@D@std@@V?$allocator@D@2@@std@@PEAVCTextureFromBMP@@@std@@PEAX@std@@@std@@@?$_Tree_val@U?$_Tree_simple_types@U?$pair@$$CBV?$basic_string@DU?$char_traits@D@std@@V?$allocator@D@2@@std@@PEAVCTextureFromBMP@@@std@@@std@@@std@@QEAAXAEAV?$allocator@U?$_Tree_node@U?$pair@$$CBV?$basic_string@DU?$char_traits@D@std@@V?$allocator@D@2@@std@@PEAVCTextureFromBMP@@@std@@PEAX@std@@@1@PEAU?$_Tree_node@U?$pair@$$CBV?$basic_string@DU?$char_traits@D@std@@V?$allocator@D@2@@std@@PEAVCTextureFromBMP@@@std@@PEAX@1@@Z ; std::_Tree_val<std::_Tree_simple_types<std::pair<std::basic_string<char,std::char_traits<char>,std::allocator<char> > const ,CTextureFromBMP *> > >::_Erase_tree<std::allocator<std::_Tree_node<std::pair<std::basic_string<char,std::char_traits<char>,std::allocator<char> > const ,CTextureFromBMP *>,void *> > >
PUBLIC	??$_Emplace_reallocate@AEBQEAUsParticleThreadData@@@?$vector@PEAUsParticleThreadData@@V?$allocator@PEAUsParticleThreadData@@@std@@@std@@AEAAPEAPEAUsParticleThreadData@@QEAPEAU2@AEBQEAU2@@Z ; std::vector<sParticleThreadData *,std::allocator<sParticleThreadData *> >::_Emplace_reallocate<sParticleThreadData * const &>
PUBLIC	??$_Emplace_back_with_unused_capacity@AEBQEAUsParticleThreadData@@@?$vector@PEAUsParticleThreadData@@V?$allocator@PEAUsParticleThreadData@@@std@@@std@@AEAAAEAPEAUsParticleThreadData@@AEBQEAU2@@Z ; std::vector<sParticleThreadData *,std::allocator<sParticleThreadData *> >::_Emplace_back_with_unused_capacity<sParticleThreadData * const &>
PUBLIC	??$forward@AEBQEAUsParticleThreadData@@@std@@YAAEBQEAUsParticleThreadData@@AEBQEAU1@@Z ; std::forward<sParticleThreadData * const &>
PUBLIC	??$?0V?$_Tree_iterator@V?$_Tree_val@U?$_Tree_simple_types@U?$pair@$$CBV?$basic_string@DU?$char_traits@D@std@@V?$allocator@D@2@@std@@VcPhysicsObjectTypes@@@std@@@std@@@std@@@std@@AEB_N$0A@@?$pair@V?$_Tree_iterator@V?$_Tree_val@U?$_Tree_simple_types@U?$pair@$$CBV?$basic_string@DU?$char_traits@D@std@@V?$allocator@D@2@@std@@VcPhysicsObjectTypes@@@std@@@std@@@std@@@std@@_N@std@@QEAA@$$QEAV?$_Tree_iterator@V?$_Tree_val@U?$_Tree_simple_types@U?$pair@$$CBV?$basic_string@DU?$char_traits@D@std@@V?$allocator@D@2@@std@@VcPhysicsObjectTypes@@@std@@@std@@@std@@@1@AEB_N@Z ; std::pair<std::_Tree_iterator<std::_Tree_val<std::_Tree_simple_types<std::pair<std::basic_string<char,std::char_traits<char>,std::allocator<char> > const ,cPhysicsObjectTypes> > > >,bool>::pair<std::_Tree_iterator<std::_Tree_val<std::_Tree_simple_types<std::pair<std::basic_string<char,std::char_traits<char>,std::allocator<char> > const ,cPhysicsObjectTypes> > > >,bool><std::_Tree_iterator<std::_Tree_val<std::_Tree_simple_types<std::pair<std::basic_string<char,std::char_traits<char>,std::allocator<char> > const ,cPhysicsObjectTypes> > > >,bool const &,0>
PUBLIC	??$_Emplace@U?$pair@$$CBV?$basic_string@DU?$char_traits@D@std@@V?$allocator@D@2@@std@@VcPhysicsObjectTypes@@@std@@@?$_Tree@V?$_Tmap_traits@V?$basic_string@DU?$char_traits@D@std@@V?$allocator@D@2@@std@@VcPhysicsObjectTypes@@U?$less@V?$basic_string@DU?$char_traits@D@std@@V?$allocator@D@2@@std@@@2@V?$allocator@U?$pair@$$CBV?$basic_string@DU?$char_traits@D@std@@V?$allocator@D@2@@std@@VcPhysicsObjectTypes@@@std@@@2@$0A@@std@@@std@@IEAA?AU?$pair@PEAU?$_Tree_node@U?$pair@$$CBV?$basic_string@DU?$char_traits@D@std@@V?$allocator@D@2@@std@@VcPhysicsObjectTypes@@@std@@PEAX@std@@_N@1@$$QEAU?$pair@$$CBV?$basic_string@DU?$char_traits@D@std@@V?$allocator@D@2@@std@@VcPhysicsObjectTypes@@@1@@Z ; std::_Tree<std::_Tmap_traits<std::basic_string<char,std::char_traits<char>,std::allocator<char> >,cPhysicsObjectTypes,std::less<std::basic_string<char,std::char_traits<char>,std::allocator<char> > >,std::allocator<std::pair<std::basic_string<char,std::char_traits<char>,std::allocator<char> > const ,cPhysicsObjectTypes> >,0> >::_Emplace<std::pair<std::basic_string<char,std::char_traits<char>,std::allocator<char> > const ,cPhysicsObjectTypes> >
PUBLIC	??$move@AEAU?$pair@$$CBV?$basic_string@DU?$char_traits@D@std@@V?$allocator@D@2@@std@@VcPhysicsObjectTypes@@@std@@@std@@YA$$QEAU?$pair@$$CBV?$basic_string@DU?$char_traits@D@std@@V?$allocator@D@2@@std@@VcPhysicsObjectTypes@@@0@AEAU10@@Z ; std::move<std::pair<std::basic_string<char,std::char_traits<char>,std::allocator<char> > const ,cPhysicsObjectTypes> &>
PUBLIC	??$forward@AEAVcPhysicsObjectTypes@@@std@@YAAEAVcPhysicsObjectTypes@@AEAV1@@Z ; std::forward<cPhysicsObjectTypes &>
PUBLIC	??$forward@AEAV?$basic_string@DU?$char_traits@D@std@@V?$allocator@D@2@@std@@@std@@YAAEAV?$basic_string@DU?$char_traits@D@std@@V?$allocator@D@2@@0@AEAV10@@Z ; std::forward<std::basic_string<char,std::char_traits<char>,std::allocator<char> > &>
PUBLIC	??$lookAtRH@M$0A@@glm@@YA?AU?$mat@$03$03M$0A@@0@AEBU?$vec@$02M$0A@@0@00@Z ; glm::lookAtRH<float,0>
PUBLIC	??$?0$$V@?$_Compressed_pair@V?$allocator@U?$_Tree_node@U?$pair@$$CBV?$basic_string@DU?$char_traits@D@std@@V?$allocator@D@2@@std@@PEAVcSoftBodyVerlet@@@std@@PEAX@std@@@std@@V?$_Tree_val@U?$_Tree_simple_types@U?$pair@$$CBV?$basic_string@DU?$char_traits@D@std@@V?$allocator@D@2@@std@@PEAVcSoftBodyVerlet@@@std@@@std@@@2@$00@std@@QEAA@U_Zero_then_variadic_args_t@1@@Z ; std::_Compressed_pair<std::allocator<std::_Tree_node<std::pair<std::basic_string<char,std::char_traits<char>,std::allocator<char> > const ,cSoftBodyVerlet *>,void *> >,std::_Tree_val<std::_Tree_simple_types<std::pair<std::basic_string<char,std::char_traits<char>,std::allocator<char> > const ,cSoftBodyVerlet *> > >,1>::_Compressed_pair<std::allocator<std::_Tree_node<std::pair<std::basic_string<char,std::char_traits<char>,std::allocator<char> > const ,cSoftBodyVerlet *>,void *> >,std::_Tree_val<std::_Tree_simple_types<std::pair<std::basic_string<char,std::char_traits<char>,std::allocator<char> > const ,cSoftBodyVerlet *> > >,1><>
PUBLIC	??$?0$$V@?$_Compressed_pair@V?$allocator@U?$_Tree_node@U?$pair@$$CB_KPEAVcBroad_Cube@cPhysics@@@std@@PEAX@std@@@std@@V?$_Tree_val@U?$_Tree_simple_types@U?$pair@$$CB_KPEAVcBroad_Cube@cPhysics@@@std@@@std@@@2@$00@std@@QEAA@U_Zero_then_variadic_args_t@1@@Z ; std::_Compressed_pair<std::allocator<std::_Tree_node<std::pair<unsigned __int64 const ,cPhysics::cBroad_Cube *>,void *> >,std::_Tree_val<std::_Tree_simple_types<std::pair<unsigned __int64 const ,cPhysics::cBroad_Cube *> > >,1>::_Compressed_pair<std::allocator<std::_Tree_node<std::pair<unsigned __int64 const ,cPhysics::cBroad_Cube *>,void *> >,std::_Tree_val<std::_Tree_simple_types<std::pair<unsigned __int64 const ,cPhysics::cBroad_Cube *> > >,1><>
PUBLIC	??$?0$$V@?$_Compressed_pair@V?$allocator@U?$_Tree_node@U?$pair@$$CBV?$basic_string@DU?$char_traits@D@std@@V?$allocator@D@2@@std@@PEAVCTextureFromBMP@@@std@@PEAX@std@@@std@@V?$_Tree_val@U?$_Tree_simple_types@U?$pair@$$CBV?$basic_string@DU?$char_traits@D@std@@V?$allocator@D@2@@std@@PEAVCTextureFromBMP@@@std@@@std@@@2@$00@std@@QEAA@U_Zero_then_variadic_args_t@1@@Z ; std::_Compressed_pair<std::allocator<std::_Tree_node<std::pair<std::basic_string<char,std::char_traits<char>,std::allocator<char> > const ,CTextureFromBMP *>,void *> >,std::_Tree_val<std::_Tree_simple_types<std::pair<std::basic_string<char,std::char_traits<char>,std::allocator<char> > const ,CTextureFromBMP *> > >,1>::_Compressed_pair<std::allocator<std::_Tree_node<std::pair<std::basic_string<char,std::char_traits<char>,std::allocator<char> > const ,CTextureFromBMP *>,void *> >,std::_Tree_val<std::_Tree_simple_types<std::pair<std::basic_string<char,std::char_traits<char>,std::allocator<char> > const ,CTextureFromBMP *> > >,1><>
PUBLIC	?_Get_first@?$_Compressed_pair@V?$allocator@U?$_Tree_node@U?$pair@$$CBV?$basic_string@DU?$char_traits@D@std@@V?$allocator@D@2@@std@@U?$vec@$03M$0A@@glm@@@std@@PEAX@std@@@std@@V?$_Tree_val@U?$_Tree_simple_types@U?$pair@$$CBV?$basic_string@DU?$char_traits@D@std@@V?$allocator@D@2@@std@@U?$vec@$03M$0A@@glm@@@std@@@std@@@2@$00@std@@QEBAAEBV?$allocator@U?$_Tree_node@U?$pair@$$CBV?$basic_string@DU?$char_traits@D@std@@V?$allocator@D@2@@std@@U?$vec@$03M$0A@@glm@@@std@@PEAX@std@@@2@XZ ; std::_Compressed_pair<std::allocator<std::_Tree_node<std::pair<std::basic_string<char,std::char_traits<char>,std::allocator<char> > const ,glm::vec<4,float,0> >,void *> >,std::_Tree_val<std::_Tree_simple_types<std::pair<std::basic_string<char,std::char_traits<char>,std::allocator<char> > const ,glm::vec<4,float,0> > > >,1>::_Get_first
PUBLIC	?select_on_container_copy_construction@?$_Default_allocator_traits@V?$allocator@U?$_Tree_node@U?$pair@$$CBV?$basic_string@DU?$char_traits@D@std@@V?$allocator@D@2@@std@@U?$vec@$03M$0A@@glm@@@std@@PEAX@std@@@std@@@std@@SA?AV?$allocator@U?$_Tree_node@U?$pair@$$CBV?$basic_string@DU?$char_traits@D@std@@V?$allocator@D@2@@std@@U?$vec@$03M$0A@@glm@@@std@@PEAX@std@@@2@AEBV32@@Z ; std::_Default_allocator_traits<std::allocator<std::_Tree_node<std::pair<std::basic_string<char,std::char_traits<char>,std::allocator<char> > const ,glm::vec<4,float,0> >,void *> > >::select_on_container_copy_construction
PUBLIC	?_Getal@?$_Tree@V?$_Tmap_traits@V?$basic_string@DU?$char_traits@D@std@@V?$allocator@D@2@@std@@U?$vec@$03M$0A@@glm@@U?$less@V?$basic_string@DU?$char_traits@D@std@@V?$allocator@D@2@@std@@@2@V?$allocator@U?$pair@$$CBV?$basic_string@DU?$char_traits@D@std@@V?$allocator@D@2@@std@@U?$vec@$03M$0A@@glm@@@std@@@2@$0A@@std@@@std@@IEBAAEBV?$allocator@U?$_Tree_node@U?$pair@$$CBV?$basic_string@DU?$char_traits@D@std@@V?$allocator@D@2@@std@@U?$vec@$03M$0A@@glm@@@std@@PEAX@std@@@2@XZ ; std::_Tree<std::_Tmap_traits<std::basic_string<char,std::char_traits<char>,std::allocator<char> >,glm::vec<4,float,0>,std::less<std::basic_string<char,std::char_traits<char>,std::allocator<char> > >,std::allocator<std::pair<std::basic_string<char,std::char_traits<char>,std::allocator<char> > const ,glm::vec<4,float,0> > >,0> >::_Getal
PUBLIC	?allocate@?$allocator@U?$_Tree_node@U?$pair@$$CBV?$basic_string@DU?$char_traits@D@std@@V?$allocator@D@2@@std@@PEAVcSoftBodyVerlet@@@std@@PEAX@std@@@std@@QEAAPEAU?$_Tree_node@U?$pair@$$CBV?$basic_string@DU?$char_traits@D@std@@V?$allocator@D@2@@std@@PEAVcSoftBodyVerlet@@@std@@PEAX@2@_K@Z ; std::allocator<std::_Tree_node<std::pair<std::basic_string<char,std::char_traits<char>,std::allocator<char> > const ,cSoftBodyVerlet *>,void *> >::allocate
PUBLIC	??0?$allocator@PEAUsSphere@cPhysics@@@std@@QEAA@XZ ; std::allocator<cPhysics::sSphere *>::allocator<cPhysics::sSphere *>
PUBLIC	??0?$_Vector_val@U?$_Simple_types@PEAUsSphere@cPhysics@@@std@@@std@@QEAA@XZ ; std::_Vector_val<std::_Simple_types<cPhysics::sSphere *> >::_Vector_val<std::_Simple_types<cPhysics::sSphere *> >
PUBLIC	??0?$allocator@PEAUsAABB@cPhysics@@@std@@QEAA@XZ ; std::allocator<cPhysics::sAABB *>::allocator<cPhysics::sAABB *>
PUBLIC	??0?$_Vector_val@U?$_Simple_types@PEAUsAABB@cPhysics@@@std@@@std@@QEAA@XZ ; std::_Vector_val<std::_Simple_types<cPhysics::sAABB *> >::_Vector_val<std::_Simple_types<cPhysics::sAABB *> >
PUBLIC	??0?$allocator@PEAUsTriangleMesh@cPhysics@@@std@@QEAA@XZ ; std::allocator<cPhysics::sTriangleMesh *>::allocator<cPhysics::sTriangleMesh *>
PUBLIC	??0?$_Vector_val@U?$_Simple_types@PEAUsTriangleMesh@cPhysics@@@std@@@std@@QEAA@XZ ; std::_Vector_val<std::_Simple_types<cPhysics::sTriangleMesh *> >::_Vector_val<std::_Simple_types<cPhysics::sTriangleMesh *> >
PUBLIC	??0?$allocator@UsCollision_SphereAABB@cPhysics@@@std@@QEAA@XZ ; std::allocator<cPhysics::sCollision_SphereAABB>::allocator<cPhysics::sCollision_SphereAABB>
PUBLIC	??0?$_Vector_val@U?$_Simple_types@UsCollision_SphereAABB@cPhysics@@@std@@@std@@QEAA@XZ ; std::_Vector_val<std::_Simple_types<cPhysics::sCollision_SphereAABB> >::_Vector_val<std::_Simple_types<cPhysics::sCollision_SphereAABB> >
PUBLIC	??0?$allocator@UsCollision_RayTriangleInMesh@cPhysics@@@std@@QEAA@XZ ; std::allocator<cPhysics::sCollision_RayTriangleInMesh>::allocator<cPhysics::sCollision_RayTriangleInMesh>
PUBLIC	??0?$_Vector_val@U?$_Simple_types@UsCollision_RayTriangleInMesh@cPhysics@@@std@@@std@@QEAA@XZ ; std::_Vector_val<std::_Simple_types<cPhysics::sCollision_RayTriangleInMesh> >::_Vector_val<std::_Simple_types<cPhysics::sCollision_RayTriangleInMesh> >
PUBLIC	??0?$map@V?$basic_string@DU?$char_traits@D@std@@V?$allocator@D@2@@std@@U?$vec@$03M$0A@@glm@@U?$less@V?$basic_string@DU?$char_traits@D@std@@V?$allocator@D@2@@std@@@2@V?$allocator@U?$pair@$$CBV?$basic_string@DU?$char_traits@D@std@@V?$allocator@D@2@@std@@U?$vec@$03M$0A@@glm@@@std@@@2@@std@@QEAA@AEBV01@@Z ; std::map<std::basic_string<char,std::char_traits<char>,std::allocator<char> >,glm::vec<4,float,0>,std::less<std::basic_string<char,std::char_traits<char>,std::allocator<char> > >,std::allocator<std::pair<std::basic_string<char,std::char_traits<char>,std::allocator<char> > const ,glm::vec<4,float,0> > > >::map<std::basic_string<char,std::char_traits<char>,std::allocator<char> >,glm::vec<4,float,0>,std::less<std::basic_string<char,std::char_traits<char>,std::allocator<char> > >,std::allocator<std::pair<std::basic_string<char,std::char_traits<char>,std::allocator<char> > const ,glm::vec<4,float,0> > > >
PUBLIC	??0?$allocator@PEAUsParticleThreadData@@@std@@QEAA@XZ ; std::allocator<sParticleThreadData *>::allocator<sParticleThreadData *>
PUBLIC	??0?$_Vector_val@U?$_Simple_types@PEAUsParticleThreadData@@@std@@@std@@QEAA@XZ ; std::_Vector_val<std::_Simple_types<sParticleThreadData *> >::_Vector_val<std::_Simple_types<sParticleThreadData *> >
PUBLIC	??0?$_Tree_unchecked_const_iterator@V?$_Tree_val@U?$_Tree_simple_types@U?$pair@$$CBV?$basic_string@DU?$char_traits@D@std@@V?$allocator@D@2@@std@@VcPhysicsObjectTypes@@@std@@@std@@@std@@U_Iterator_base0@2@@std@@QEAA@PEAU?$_Tree_node@U?$pair@$$CBV?$basic_string@DU?$char_traits@D@std@@V?$allocator@D@2@@std@@VcPhysicsObjectTypes@@@std@@PEAX@1@PEBV?$_Tree_val@U?$_Tree_simple_types@U?$pair@$$CBV?$basic_string@DU?$char_traits@D@std@@V?$allocator@D@2@@std@@VcPhysicsObjectTypes@@@std@@@std@@@1@@Z ; std::_Tree_unchecked_const_iterator<std::_Tree_val<std::_Tree_simple_types<std::pair<std::basic_string<char,std::char_traits<char>,std::allocator<char> > const ,cPhysicsObjectTypes> > >,std::_Iterator_base0>::_Tree_unchecked_const_iterator<std::_Tree_val<std::_Tree_simple_types<std::pair<std::basic_string<char,std::char_traits<char>,std::allocator<char> > const ,cPhysicsObjectTypes> > >,std::_Iterator_base0>
PUBLIC	??0?$_Tree_const_iterator@V?$_Tree_val@U?$_Tree_simple_types@U?$pair@$$CBV?$basic_string@DU?$char_traits@D@std@@V?$allocator@D@2@@std@@VcPhysicsObjectTypes@@@std@@@std@@@std@@@std@@QEAA@PEAU?$_Tree_node@U?$pair@$$CBV?$basic_string@DU?$char_traits@D@std@@V?$allocator@D@2@@std@@VcPhysicsObjectTypes@@@std@@PEAX@1@PEBV?$_Tree_val@U?$_Tree_simple_types@U?$pair@$$CBV?$basic_string@DU?$char_traits@D@std@@V?$allocator@D@2@@std@@VcPhysicsObjectTypes@@@std@@@std@@@1@@Z ; std::_Tree_const_iterator<std::_Tree_val<std::_Tree_simple_types<std::pair<std::basic_string<char,std::char_traits<char>,std::allocator<char> > const ,cPhysicsObjectTypes> > > >::_Tree_const_iterator<std::_Tree_val<std::_Tree_simple_types<std::pair<std::basic_string<char,std::char_traits<char>,std::allocator<char> > const ,cPhysicsObjectTypes> > > >
PUBLIC	??0?$_Tree_iterator@V?$_Tree_val@U?$_Tree_simple_types@U?$pair@$$CBV?$basic_string@DU?$char_traits@D@std@@V?$allocator@D@2@@std@@VcPhysicsObjectTypes@@@std@@@std@@@std@@@std@@QEAA@PEAU?$_Tree_node@U?$pair@$$CBV?$basic_string@DU?$char_traits@D@std@@V?$allocator@D@2@@std@@VcPhysicsObjectTypes@@@std@@PEAX@1@PEBV?$_Tree_val@U?$_Tree_simple_types@U?$pair@$$CBV?$basic_string@DU?$char_traits@D@std@@V?$allocator@D@2@@std@@VcPhysicsObjectTypes@@@std@@@std@@@1@@Z ; std::_Tree_iterator<std::_Tree_val<std::_Tree_simple_types<std::pair<std::basic_string<char,std::char_traits<char>,std::allocator<char> > const ,cPhysicsObjectTypes> > > >::_Tree_iterator<std::_Tree_val<std::_Tree_simple_types<std::pair<std::basic_string<char,std::char_traits<char>,std::allocator<char> > const ,cPhysicsObjectTypes> > > >
PUBLIC	??$_Buyheadnode@V?$allocator@U?$_Tree_node@U?$pair@$$CBV?$basic_string@DU?$char_traits@D@std@@V?$allocator@D@2@@std@@PEAVcSoftBodyVerlet@@@std@@PEAX@std@@@std@@@?$_Tree_node@U?$pair@$$CBV?$basic_string@DU?$char_traits@D@std@@V?$allocator@D@2@@std@@PEAVcSoftBodyVerlet@@@std@@PEAX@std@@SAPEAU01@AEAV?$allocator@U?$_Tree_node@U?$pair@$$CBV?$basic_string@DU?$char_traits@D@std@@V?$allocator@D@2@@std@@PEAVcSoftBodyVerlet@@@std@@PEAX@std@@@1@@Z ; std::_Tree_node<std::pair<std::basic_string<char,std::char_traits<char>,std::allocator<char> > const ,cSoftBodyVerlet *>,void *>::_Buyheadnode<std::allocator<std::_Tree_node<std::pair<std::basic_string<char,std::char_traits<char>,std::allocator<char> > const ,cSoftBodyVerlet *>,void *> > >
PUBLIC	??$_Buyheadnode@V?$allocator@U?$_Tree_node@U?$pair@$$CB_KPEAVcBroad_Cube@cPhysics@@@std@@PEAX@std@@@std@@@?$_Tree_node@U?$pair@$$CB_KPEAVcBroad_Cube@cPhysics@@@std@@PEAX@std@@SAPEAU01@AEAV?$allocator@U?$_Tree_node@U?$pair@$$CB_KPEAVcBroad_Cube@cPhysics@@@std@@PEAX@std@@@1@@Z ; std::_Tree_node<std::pair<unsigned __int64 const ,cPhysics::cBroad_Cube *>,void *>::_Buyheadnode<std::allocator<std::_Tree_node<std::pair<unsigned __int64 const ,cPhysics::cBroad_Cube *>,void *> > >
PUBLIC	??$_Buyheadnode@V?$allocator@U?$_Tree_node@U?$pair@$$CBV?$basic_string@DU?$char_traits@D@std@@V?$allocator@D@2@@std@@PEAVCTextureFromBMP@@@std@@PEAX@std@@@std@@@?$_Tree_node@U?$pair@$$CBV?$basic_string@DU?$char_traits@D@std@@V?$allocator@D@2@@std@@PEAVCTextureFromBMP@@@std@@PEAX@std@@SAPEAU01@AEAV?$allocator@U?$_Tree_node@U?$pair@$$CBV?$basic_string@DU?$char_traits@D@std@@V?$allocator@D@2@@std@@PEAVCTextureFromBMP@@@std@@PEAX@std@@@1@@Z ; std::_Tree_node<std::pair<std::basic_string<char,std::char_traits<char>,std::allocator<char> > const ,CTextureFromBMP *>,void *>::_Buyheadnode<std::allocator<std::_Tree_node<std::pair<std::basic_string<char,std::char_traits<char>,std::allocator<char> > const ,CTextureFromBMP *>,void *> > >
PUBLIC	??$?0AEBU?$less@V?$basic_string@DU?$char_traits@D@std@@V?$allocator@D@2@@std@@@std@@U_Zero_then_variadic_args_t@1@@?$_Compressed_pair@U?$less@V?$basic_string@DU?$char_traits@D@std@@V?$allocator@D@2@@std@@@std@@V?$_Compressed_pair@V?$allocator@U?$_Tree_node@U?$pair@$$CBV?$basic_string@DU?$char_traits@D@std@@V?$allocator@D@2@@std@@PEAVcSoftBodyVerlet@@@std@@PEAX@std@@@std@@V?$_Tree_val@U?$_Tree_simple_types@U?$pair@$$CBV?$basic_string@DU?$char_traits@D@std@@V?$allocator@D@2@@std@@PEAVcSoftBodyVerlet@@@std@@@std@@@2@$00@2@$00@std@@QEAA@U_One_then_variadic_args_t@1@AEBU?$less@V?$basic_string@DU?$char_traits@D@std@@V?$allocator@D@2@@std@@@1@$$QEAU_Zero_then_variadic_args_t@1@@Z ; std::_Compressed_pair<std::less<std::basic_string<char,std::char_traits<char>,std::allocator<char> > >,std::_Compressed_pair<std::allocator<std::_Tree_node<std::pair<std::basic_string<char,std::char_traits<char>,std::allocator<char> > const ,cSoftBodyVerlet *>,void *> >,std::_Tree_val<std::_Tree_simple_types<std::pair<std::basic_string<char,std::char_traits<char>,std::allocator<char> > const ,cSoftBodyVerlet *> > >,1>,1>::_Compressed_pair<std::less<std::basic_string<char,std::char_traits<char>,std::allocator<char> > >,std::_Compressed_pair<std::allocator<std::_Tree_node<std::pair<std::basic_string<char,std::char_traits<char>,std::allocator<char> > const ,cSoftBodyVerlet *>,void *> >,std::_Tree_val<std::_Tree_simple_types<std::pair<std::basic_string<char,std::char_traits<char>,std::allocator<char> > const ,cSoftBodyVerlet *> > >,1>,1><std::less<std::basic_string<char,std::char_traits<char>,std::allocator<char> > > const &,std::_Zero_then_variadic_args_t>
PUBLIC	??$?0AEBU?$less@_K@std@@U_Zero_then_variadic_args_t@1@@?$_Compressed_pair@U?$less@_K@std@@V?$_Compressed_pair@V?$allocator@U?$_Tree_node@U?$pair@$$CB_KPEAVcBroad_Cube@cPhysics@@@std@@PEAX@std@@@std@@V?$_Tree_val@U?$_Tree_simple_types@U?$pair@$$CB_KPEAVcBroad_Cube@cPhysics@@@std@@@std@@@2@$00@2@$00@std@@QEAA@U_One_then_variadic_args_t@1@AEBU?$less@_K@1@$$QEAU_Zero_then_variadic_args_t@1@@Z ; std::_Compressed_pair<std::less<unsigned __int64>,std::_Compressed_pair<std::allocator<std::_Tree_node<std::pair<unsigned __int64 const ,cPhysics::cBroad_Cube *>,void *> >,std::_Tree_val<std::_Tree_simple_types<std::pair<unsigned __int64 const ,cPhysics::cBroad_Cube *> > >,1>,1>::_Compressed_pair<std::less<unsigned __int64>,std::_Compressed_pair<std::allocator<std::_Tree_node<std::pair<unsigned __int64 const ,cPhysics::cBroad_Cube *>,void *> >,std::_Tree_val<std::_Tree_simple_types<std::pair<unsigned __int64 const ,cPhysics::cBroad_Cube *> > >,1>,1><std::less<unsigned __int64> const &,std::_Zero_then_variadic_args_t>
PUBLIC	??$_Destroy_range@V?$allocator@PEAUsSphere@cPhysics@@@std@@@std@@YAXPEAPEAUsSphere@cPhysics@@QEAPEAU12@AEAV?$allocator@PEAUsSphere@cPhysics@@@0@@Z ; std::_Destroy_range<std::allocator<cPhysics::sSphere *> >
PUBLIC	??$_Destroy_range@V?$allocator@PEAUsAABB@cPhysics@@@std@@@std@@YAXPEAPEAUsAABB@cPhysics@@QEAPEAU12@AEAV?$allocator@PEAUsAABB@cPhysics@@@0@@Z ; std::_Destroy_range<std::allocator<cPhysics::sAABB *> >
PUBLIC	??$?0AEBU?$less@V?$basic_string@DU?$char_traits@D@std@@V?$allocator@D@2@@std@@@std@@U_Zero_then_variadic_args_t@1@@?$_Compressed_pair@U?$less@V?$basic_string@DU?$char_traits@D@std@@V?$allocator@D@2@@std@@@std@@V?$_Compressed_pair@V?$allocator@U?$_Tree_node@U?$pair@$$CBV?$basic_string@DU?$char_traits@D@std@@V?$allocator@D@2@@std@@PEAVCTextureFromBMP@@@std@@PEAX@std@@@std@@V?$_Tree_val@U?$_Tree_simple_types@U?$pair@$$CBV?$basic_string@DU?$char_traits@D@std@@V?$allocator@D@2@@std@@PEAVCTextureFromBMP@@@std@@@std@@@2@$00@2@$00@std@@QEAA@U_One_then_variadic_args_t@1@AEBU?$less@V?$basic_string@DU?$char_traits@D@std@@V?$allocator@D@2@@std@@@1@$$QEAU_Zero_then_variadic_args_t@1@@Z ; std::_Compressed_pair<std::less<std::basic_string<char,std::char_traits<char>,std::allocator<char> > >,std::_Compressed_pair<std::allocator<std::_Tree_node<std::pair<std::basic_string<char,std::char_traits<char>,std::allocator<char> > const ,CTextureFromBMP *>,void *> >,std::_Tree_val<std::_Tree_simple_types<std::pair<std::basic_string<char,std::char_traits<char>,std::allocator<char> > const ,CTextureFromBMP *> > >,1>,1>::_Compressed_pair<std::less<std::basic_string<char,std::char_traits<char>,std::allocator<char> > >,std::_Compressed_pair<std::allocator<std::_Tree_node<std::pair<std::basic_string<char,std::char_traits<char>,std::allocator<char> > const ,CTextureFromBMP *>,void *> >,std::_Tree_val<std::_Tree_simple_types<std::pair<std::basic_string<char,std::char_traits<char>,std::allocator<char> > const ,CTextureFromBMP *> > >,1>,1><std::less<std::basic_string<char,std::char_traits<char>,std::allocator<char> > > const &,std::_Zero_then_variadic_args_t>
PUBLIC	??$_Destroy_range@V?$allocator@PEAUsParticleThreadData@@@std@@@std@@YAXPEAPEAUsParticleThreadData@@QEAPEAU1@AEAV?$allocator@PEAUsParticleThreadData@@@0@@Z ; std::_Destroy_range<std::allocator<sParticleThreadData *> >
PUBLIC	??$_Erase_head@V?$allocator@U?$_Tree_node@U?$pair@$$CBV?$basic_string@DU?$char_traits@D@std@@V?$allocator@D@2@@std@@PEAVcSoftBodyVerlet@@@std@@PEAX@std@@@std@@@?$_Tree_val@U?$_Tree_simple_types@U?$pair@$$CBV?$basic_string@DU?$char_traits@D@std@@V?$allocator@D@2@@std@@PEAVcSoftBodyVerlet@@@std@@@std@@@std@@QEAAXAEAV?$allocator@U?$_Tree_node@U?$pair@$$CBV?$basic_string@DU?$char_traits@D@std@@V?$allocator@D@2@@std@@PEAVcSoftBodyVerlet@@@std@@PEAX@std@@@1@@Z ; std::_Tree_val<std::_Tree_simple_types<std::pair<std::basic_string<char,std::char_traits<char>,std::allocator<char> > const ,cSoftBodyVerlet *> > >::_Erase_head<std::allocator<std::_Tree_node<std::pair<std::basic_string<char,std::char_traits<char>,std::allocator<char> > const ,cSoftBodyVerlet *>,void *> > >
PUBLIC	??$_Erase_head@V?$allocator@U?$_Tree_node@U?$pair@$$CB_KPEAVcBroad_Cube@cPhysics@@@std@@PEAX@std@@@std@@@?$_Tree_val@U?$_Tree_simple_types@U?$pair@$$CB_KPEAVcBroad_Cube@cPhysics@@@std@@@std@@@std@@QEAAXAEAV?$allocator@U?$_Tree_node@U?$pair@$$CB_KPEAVcBroad_Cube@cPhysics@@@std@@PEAX@std@@@1@@Z ; std::_Tree_val<std::_Tree_simple_types<std::pair<unsigned __int64 const ,cPhysics::cBroad_Cube *> > >::_Erase_head<std::allocator<std::_Tree_node<std::pair<unsigned __int64 const ,cPhysics::cBroad_Cube *>,void *> > >
PUBLIC	??$?0$$V@?$_Compressed_pair@V?$allocator@PEAUsSphere@cPhysics@@@std@@V?$_Vector_val@U?$_Simple_types@PEAUsSphere@cPhysics@@@std@@@2@$00@std@@QEAA@U_Zero_then_variadic_args_t@1@@Z ; std::_Compressed_pair<std::allocator<cPhysics::sSphere *>,std::_Vector_val<std::_Simple_types<cPhysics::sSphere *> >,1>::_Compressed_pair<std::allocator<cPhysics::sSphere *>,std::_Vector_val<std::_Simple_types<cPhysics::sSphere *> >,1><>
PUBLIC	??$?0$$V@?$_Compressed_pair@V?$allocator@PEAUsAABB@cPhysics@@@std@@V?$_Vector_val@U?$_Simple_types@PEAUsAABB@cPhysics@@@std@@@2@$00@std@@QEAA@U_Zero_then_variadic_args_t@1@@Z ; std::_Compressed_pair<std::allocator<cPhysics::sAABB *>,std::_Vector_val<std::_Simple_types<cPhysics::sAABB *> >,1>::_Compressed_pair<std::allocator<cPhysics::sAABB *>,std::_Vector_val<std::_Simple_types<cPhysics::sAABB *> >,1><>
PUBLIC	??$?0$$V@?$_Compressed_pair@V?$allocator@PEAUsTriangleMesh@cPhysics@@@std@@V?$_Vector_val@U?$_Simple_types@PEAUsTriangleMesh@cPhysics@@@std@@@2@$00@std@@QEAA@U_Zero_then_variadic_args_t@1@@Z ; std::_Compressed_pair<std::allocator<cPhysics::sTriangleMesh *>,std::_Vector_val<std::_Simple_types<cPhysics::sTriangleMesh *> >,1>::_Compressed_pair<std::allocator<cPhysics::sTriangleMesh *>,std::_Vector_val<std::_Simple_types<cPhysics::sTriangleMesh *> >,1><>
PUBLIC	??$?0$$V@?$_Compressed_pair@V?$allocator@UsCollision_SphereAABB@cPhysics@@@std@@V?$_Vector_val@U?$_Simple_types@UsCollision_SphereAABB@cPhysics@@@std@@@2@$00@std@@QEAA@U_Zero_then_variadic_args_t@1@@Z ; std::_Compressed_pair<std::allocator<cPhysics::sCollision_SphereAABB>,std::_Vector_val<std::_Simple_types<cPhysics::sCollision_SphereAABB> >,1>::_Compressed_pair<std::allocator<cPhysics::sCollision_SphereAABB>,std::_Vector_val<std::_Simple_types<cPhysics::sCollision_SphereAABB> >,1><>
PUBLIC	??$?0$$V@?$_Compressed_pair@V?$allocator@UsCollision_RayTriangleInMesh@cPhysics@@@std@@V?$_Vector_val@U?$_Simple_types@UsCollision_RayTriangleInMesh@cPhysics@@@std@@@2@$00@std@@QEAA@U_Zero_then_variadic_args_t@1@@Z ; std::_Compressed_pair<std::allocator<cPhysics::sCollision_RayTriangleInMesh>,std::_Vector_val<std::_Simple_types<cPhysics::sCollision_RayTriangleInMesh> >,1>::_Compressed_pair<std::allocator<cPhysics::sCollision_RayTriangleInMesh>,std::_Vector_val<std::_Simple_types<cPhysics::sCollision_RayTriangleInMesh> >,1><>
PUBLIC	??$_Erase_head@V?$allocator@U?$_Tree_node@U?$pair@$$CBV?$basic_string@DU?$char_traits@D@std@@V?$allocator@D@2@@std@@PEAVCTextureFromBMP@@@std@@PEAX@std@@@std@@@?$_Tree_val@U?$_Tree_simple_types@U?$pair@$$CBV?$basic_string@DU?$char_traits@D@std@@V?$allocator@D@2@@std@@PEAVCTextureFromBMP@@@std@@@std@@@std@@QEAAXAEAV?$allocator@U?$_Tree_node@U?$pair@$$CBV?$basic_string@DU?$char_traits@D@std@@V?$allocator@D@2@@std@@PEAVCTextureFromBMP@@@std@@PEAX@std@@@1@@Z ; std::_Tree_val<std::_Tree_simple_types<std::pair<std::basic_string<char,std::char_traits<char>,std::allocator<char> > const ,CTextureFromBMP *> > >::_Erase_head<std::allocator<std::_Tree_node<std::pair<std::basic_string<char,std::char_traits<char>,std::allocator<char> > const ,CTextureFromBMP *>,void *> > >
PUBLIC	??$?0$$V@?$_Compressed_pair@V?$allocator@PEAUsParticleThreadData@@@std@@V?$_Vector_val@U?$_Simple_types@PEAUsParticleThreadData@@@std@@@2@$00@std@@QEAA@U_Zero_then_variadic_args_t@1@@Z ; std::_Compressed_pair<std::allocator<sParticleThreadData *>,std::_Vector_val<std::_Simple_types<sParticleThreadData *> >,1>::_Compressed_pair<std::allocator<sParticleThreadData *>,std::_Vector_val<std::_Simple_types<sParticleThreadData *> >,1><>
PUBLIC	??$_Emplace_one_at_back@AEBQEAUsParticleThreadData@@@?$vector@PEAUsParticleThreadData@@V?$allocator@PEAUsParticleThreadData@@@std@@@std@@AEAAAEAPEAUsParticleThreadData@@AEBQEAU2@@Z ; std::vector<sParticleThreadData *,std::allocator<sParticleThreadData *> >::_Emplace_one_at_back<sParticleThreadData * const &>
PUBLIC	??$_Get_linear_congruential_seed@I$0A@$0HPPPPPPP@@std@@YAII@Z ; std::_Get_linear_congruential_seed<unsigned int,0,2147483647>
PUBLIC	??$insert@$0A@$0A@@?$_Tree@V?$_Tmap_traits@V?$basic_string@DU?$char_traits@D@std@@V?$allocator@D@2@@std@@VcPhysicsObjectTypes@@U?$less@V?$basic_string@DU?$char_traits@D@std@@V?$allocator@D@2@@std@@@2@V?$allocator@U?$pair@$$CBV?$basic_string@DU?$char_traits@D@std@@V?$allocator@D@2@@std@@VcPhysicsObjectTypes@@@std@@@2@$0A@@std@@@std@@QEAA?AU?$pair@V?$_Tree_iterator@V?$_Tree_val@U?$_Tree_simple_types@U?$pair@$$CBV?$basic_string@DU?$char_traits@D@std@@V?$allocator@D@2@@std@@VcPhysicsObjectTypes@@@std@@@std@@@std@@@std@@_N@1@$$QEAU?$pair@$$CBV?$basic_string@DU?$char_traits@D@std@@V?$allocator@D@2@@std@@VcPhysicsObjectTypes@@@1@@Z ; std::_Tree<std::_Tmap_traits<std::basic_string<char,std::char_traits<char>,std::allocator<char> >,cPhysicsObjectTypes,std::less<std::basic_string<char,std::char_traits<char>,std::allocator<char> > >,std::allocator<std::pair<std::basic_string<char,std::char_traits<char>,std::allocator<char> > const ,cPhysicsObjectTypes> >,0> >::insert<0,0>
PUBLIC	??0cPhysicsObjectTypes@@QEAA@AEBV0@@Z		; cPhysicsObjectTypes::cPhysicsObjectTypes
PUBLIC	??$?0AEAV?$basic_string@DU?$char_traits@D@std@@V?$allocator@D@2@@std@@AEAVcPhysicsObjectTypes@@$0A@@?$pair@$$CBV?$basic_string@DU?$char_traits@D@std@@V?$allocator@D@2@@std@@VcPhysicsObjectTypes@@@std@@QEAA@AEAV?$basic_string@DU?$char_traits@D@std@@V?$allocator@D@2@@1@AEAVcPhysicsObjectTypes@@@Z ; std::pair<std::basic_string<char,std::char_traits<char>,std::allocator<char> > const ,cPhysicsObjectTypes>::pair<std::basic_string<char,std::char_traits<char>,std::allocator<char> > const ,cPhysicsObjectTypes><std::basic_string<char,std::char_traits<char>,std::allocator<char> > &,cPhysicsObjectTypes &,0>
PUBLIC	??$lookAt@M$0A@@glm@@YA?AU?$mat@$03$03M$0A@@0@AEBU?$vec@$02M$0A@@0@00@Z ; glm::lookAt<float,0>
PUBLIC	??$degrees@M@glm@@YAMM@Z			; glm::degrees<float>
PUBLIC	??$?0_J$0A@@?$duration@_JU?$ratio@$00$0JIJGIA@@std@@@chrono@std@@QEAA@AEB_J@Z ; std::chrono::duration<__int64,std::ratio<1,10000000> >::duration<__int64,std::ratio<1,10000000> ><__int64,0>
PUBLIC	?_Get_first@?$_Compressed_pair@V?$allocator@PEAUsSphere@cPhysics@@@std@@V?$_Vector_val@U?$_Simple_types@PEAUsSphere@cPhysics@@@std@@@2@$00@std@@QEAAAEAV?$allocator@PEAUsSphere@cPhysics@@@2@XZ ; std::_Compressed_pair<std::allocator<cPhysics::sSphere *>,std::_Vector_val<std::_Simple_types<cPhysics::sSphere *> >,1>::_Get_first
PUBLIC	?_Get_first@?$_Compressed_pair@V?$allocator@PEAUsAABB@cPhysics@@@std@@V?$_Vector_val@U?$_Simple_types@PEAUsAABB@cPhysics@@@std@@@2@$00@std@@QEAAAEAV?$allocator@PEAUsAABB@cPhysics@@@2@XZ ; std::_Compressed_pair<std::allocator<cPhysics::sAABB *>,std::_Vector_val<std::_Simple_types<cPhysics::sAABB *> >,1>::_Get_first
PUBLIC	?_Get_first@?$_Compressed_pair@V?$allocator@PEAUsParticleThreadData@@@std@@V?$_Vector_val@U?$_Simple_types@PEAUsParticleThreadData@@@std@@@2@$00@std@@QEAAAEAV?$allocator@PEAUsParticleThreadData@@@2@XZ ; std::_Compressed_pair<std::allocator<sParticleThreadData *>,std::_Vector_val<std::_Simple_types<sParticleThreadData *> >,1>::_Get_first
PUBLIC	?_Alloc_sentinel_and_proxy@?$_Tree@V?$_Tmap_traits@V?$basic_string@DU?$char_traits@D@std@@V?$allocator@D@2@@std@@PEAVcSoftBodyVerlet@@U?$less@V?$basic_string@DU?$char_traits@D@std@@V?$allocator@D@2@@std@@@2@V?$allocator@U?$pair@$$CBV?$basic_string@DU?$char_traits@D@std@@V?$allocator@D@2@@std@@PEAVcSoftBodyVerlet@@@std@@@2@$0A@@std@@@std@@IEAAXXZ ; std::_Tree<std::_Tmap_traits<std::basic_string<char,std::char_traits<char>,std::allocator<char> >,cSoftBodyVerlet *,std::less<std::basic_string<char,std::char_traits<char>,std::allocator<char> > >,std::allocator<std::pair<std::basic_string<char,std::char_traits<char>,std::allocator<char> > const ,cSoftBodyVerlet *> >,0> >::_Alloc_sentinel_and_proxy
PUBLIC	?_Get_first@?$_Compressed_pair@V?$allocator@U?$_Tree_node@U?$pair@$$CBV?$basic_string@DU?$char_traits@D@std@@V?$allocator@D@2@@std@@PEAVcSoftBodyVerlet@@@std@@PEAX@std@@@std@@V?$_Tree_val@U?$_Tree_simple_types@U?$pair@$$CBV?$basic_string@DU?$char_traits@D@std@@V?$allocator@D@2@@std@@PEAVcSoftBodyVerlet@@@std@@@std@@@2@$00@std@@QEAAAEAV?$allocator@U?$_Tree_node@U?$pair@$$CBV?$basic_string@DU?$char_traits@D@std@@V?$allocator@D@2@@std@@PEAVcSoftBodyVerlet@@@std@@PEAX@std@@@2@XZ ; std::_Compressed_pair<std::allocator<std::_Tree_node<std::pair<std::basic_string<char,std::char_traits<char>,std::allocator<char> > const ,cSoftBodyVerlet *>,void *> >,std::_Tree_val<std::_Tree_simple_types<std::pair<std::basic_string<char,std::char_traits<char>,std::allocator<char> > const ,cSoftBodyVerlet *> > >,1>::_Get_first
PUBLIC	?_Alloc_sentinel_and_proxy@?$_Tree@V?$_Tmap_traits@_KPEAVcBroad_Cube@cPhysics@@U?$less@_K@std@@V?$allocator@U?$pair@$$CB_KPEAVcBroad_Cube@cPhysics@@@std@@@4@$0A@@std@@@std@@IEAAXXZ ; std::_Tree<std::_Tmap_traits<unsigned __int64,cPhysics::cBroad_Cube *,std::less<unsigned __int64>,std::allocator<std::pair<unsigned __int64 const ,cPhysics::cBroad_Cube *> >,0> >::_Alloc_sentinel_and_proxy
PUBLIC	?deallocate@?$allocator@PEAUsSphere@cPhysics@@@std@@QEAAXQEAPEAUsSphere@cPhysics@@_K@Z ; std::allocator<cPhysics::sSphere *>::deallocate
PUBLIC	?_Getal@?$vector@PEAUsSphere@cPhysics@@V?$allocator@PEAUsSphere@cPhysics@@@std@@@std@@AEAAAEAV?$allocator@PEAUsSphere@cPhysics@@@2@XZ ; std::vector<cPhysics::sSphere *,std::allocator<cPhysics::sSphere *> >::_Getal
PUBLIC	?deallocate@?$allocator@PEAUsAABB@cPhysics@@@std@@QEAAXQEAPEAUsAABB@cPhysics@@_K@Z ; std::allocator<cPhysics::sAABB *>::deallocate
PUBLIC	?_Getal@?$vector@PEAUsAABB@cPhysics@@V?$allocator@PEAUsAABB@cPhysics@@@std@@@std@@AEAAAEAV?$allocator@PEAUsAABB@cPhysics@@@2@XZ ; std::vector<cPhysics::sAABB *,std::allocator<cPhysics::sAABB *> >::_Getal
PUBLIC	?_Alloc_sentinel_and_proxy@?$_Tree@V?$_Tmap_traits@V?$basic_string@DU?$char_traits@D@std@@V?$allocator@D@2@@std@@PEAVCTextureFromBMP@@U?$less@V?$basic_string@DU?$char_traits@D@std@@V?$allocator@D@2@@std@@@2@V?$allocator@U?$pair@$$CBV?$basic_string@DU?$char_traits@D@std@@V?$allocator@D@2@@std@@PEAVCTextureFromBMP@@@std@@@2@$0A@@std@@@std@@IEAAXXZ ; std::_Tree<std::_Tmap_traits<std::basic_string<char,std::char_traits<char>,std::allocator<char> >,CTextureFromBMP *,std::less<std::basic_string<char,std::char_traits<char>,std::allocator<char> > >,std::allocator<std::pair<std::basic_string<char,std::char_traits<char>,std::allocator<char> > const ,CTextureFromBMP *> >,0> >::_Alloc_sentinel_and_proxy
PUBLIC	?deallocate@?$allocator@PEAUsParticleThreadData@@@std@@QEAAXQEAPEAUsParticleThreadData@@_K@Z ; std::allocator<sParticleThreadData *>::deallocate
PUBLIC	?_Getal@?$vector@PEAUsParticleThreadData@@V?$allocator@PEAUsParticleThreadData@@@std@@@std@@AEAAAEAV?$allocator@PEAUsParticleThreadData@@@2@XZ ; std::vector<sParticleThreadData *,std::allocator<sParticleThreadData *> >::_Getal
PUBLIC	??0?$_Tree@V?$_Tmap_traits@V?$basic_string@DU?$char_traits@D@std@@V?$allocator@D@2@@std@@PEAVcSoftBodyVerlet@@U?$less@V?$basic_string@DU?$char_traits@D@std@@V?$allocator@D@2@@std@@@2@V?$allocator@U?$pair@$$CBV?$basic_string@DU?$char_traits@D@std@@V?$allocator@D@2@@std@@PEAVcSoftBodyVerlet@@@std@@@2@$0A@@std@@@std@@QEAA@AEBU?$less@V?$basic_string@DU?$char_traits@D@std@@V?$allocator@D@2@@std@@@1@@Z ; std::_Tree<std::_Tmap_traits<std::basic_string<char,std::char_traits<char>,std::allocator<char> >,cSoftBodyVerlet *,std::less<std::basic_string<char,std::char_traits<char>,std::allocator<char> > >,std::allocator<std::pair<std::basic_string<char,std::char_traits<char>,std::allocator<char> > const ,cSoftBodyVerlet *> >,0> >::_Tree<std::_Tmap_traits<std::basic_string<char,std::char_traits<char>,std::allocator<char> >,cSoftBodyVerlet *,std::less<std::basic_string<char,std::char_traits<char>,std::allocator<char> > >,std::allocator<std::pair<std::basic_string<char,std::char_traits<char>,std::allocator<char> > const ,cSoftBodyVerlet *> >,0> >
PUBLIC	?_Getal@?$_Tree@V?$_Tmap_traits@V?$basic_string@DU?$char_traits@D@std@@V?$allocator@D@2@@std@@PEAVcSoftBodyVerlet@@U?$less@V?$basic_string@DU?$char_traits@D@std@@V?$allocator@D@2@@std@@@2@V?$allocator@U?$pair@$$CBV?$basic_string@DU?$char_traits@D@std@@V?$allocator@D@2@@std@@PEAVcSoftBodyVerlet@@@std@@@2@$0A@@std@@@std@@IEAAAEAV?$allocator@U?$_Tree_node@U?$pair@$$CBV?$basic_string@DU?$char_traits@D@std@@V?$allocator@D@2@@std@@PEAVcSoftBodyVerlet@@@std@@PEAX@std@@@2@XZ ; std::_Tree<std::_Tmap_traits<std::basic_string<char,std::char_traits<char>,std::allocator<char> >,cSoftBodyVerlet *,std::less<std::basic_string<char,std::char_traits<char>,std::allocator<char> > >,std::allocator<std::pair<std::basic_string<char,std::char_traits<char>,std::allocator<char> > const ,cSoftBodyVerlet *> >,0> >::_Getal
PUBLIC	??0?$_Tree@V?$_Tmap_traits@_KPEAVcBroad_Cube@cPhysics@@U?$less@_K@std@@V?$allocator@U?$pair@$$CB_KPEAVcBroad_Cube@cPhysics@@@std@@@4@$0A@@std@@@std@@QEAA@AEBU?$less@_K@1@@Z ; std::_Tree<std::_Tmap_traits<unsigned __int64,cPhysics::cBroad_Cube *,std::less<unsigned __int64>,std::allocator<std::pair<unsigned __int64 const ,cPhysics::cBroad_Cube *> >,0> >::_Tree<std::_Tmap_traits<unsigned __int64,cPhysics::cBroad_Cube *,std::less<unsigned __int64>,std::allocator<std::pair<unsigned __int64 const ,cPhysics::cBroad_Cube *> >,0> >
PUBLIC	?_Tidy@?$vector@PEAUsSphere@cPhysics@@V?$allocator@PEAUsSphere@cPhysics@@@std@@@std@@AEAAXXZ ; std::vector<cPhysics::sSphere *,std::allocator<cPhysics::sSphere *> >::_Tidy
PUBLIC	?_Tidy@?$vector@PEAUsAABB@cPhysics@@V?$allocator@PEAUsAABB@cPhysics@@@std@@@std@@AEAAXXZ ; std::vector<cPhysics::sAABB *,std::allocator<cPhysics::sAABB *> >::_Tidy
PUBLIC	?_Tidy@?$vector@PEAUsTriangleMesh@cPhysics@@V?$allocator@PEAUsTriangleMesh@cPhysics@@@std@@@std@@AEAAXXZ ; std::vector<cPhysics::sTriangleMesh *,std::allocator<cPhysics::sTriangleMesh *> >::_Tidy
PUBLIC	?_Tidy@?$vector@UsCollision_SphereAABB@cPhysics@@V?$allocator@UsCollision_SphereAABB@cPhysics@@@std@@@std@@AEAAXXZ ; std::vector<cPhysics::sCollision_SphereAABB,std::allocator<cPhysics::sCollision_SphereAABB> >::_Tidy
PUBLIC	?_Tidy@?$vector@UsCollision_RayTriangleInMesh@cPhysics@@V?$allocator@UsCollision_RayTriangleInMesh@cPhysics@@@std@@@std@@AEAAXXZ ; std::vector<cPhysics::sCollision_RayTriangleInMesh,std::allocator<cPhysics::sCollision_RayTriangleInMesh> >::_Tidy
PUBLIC	??0?$_Tree@V?$_Tmap_traits@V?$basic_string@DU?$char_traits@D@std@@V?$allocator@D@2@@std@@PEAVCTextureFromBMP@@U?$less@V?$basic_string@DU?$char_traits@D@std@@V?$allocator@D@2@@std@@@2@V?$allocator@U?$pair@$$CBV?$basic_string@DU?$char_traits@D@std@@V?$allocator@D@2@@std@@PEAVCTextureFromBMP@@@std@@@2@$0A@@std@@@std@@QEAA@AEBU?$less@V?$basic_string@DU?$char_traits@D@std@@V?$allocator@D@2@@std@@@1@@Z ; std::_Tree<std::_Tmap_traits<std::basic_string<char,std::char_traits<char>,std::allocator<char> >,CTextureFromBMP *,std::less<std::basic_string<char,std::char_traits<char>,std::allocator<char> > >,std::allocator<std::pair<std::basic_string<char,std::char_traits<char>,std::allocator<char> > const ,CTextureFromBMP *> >,0> >::_Tree<std::_Tmap_traits<std::basic_string<char,std::char_traits<char>,std::allocator<char> >,CTextureFromBMP *,std::less<std::basic_string<char,std::char_traits<char>,std::allocator<char> > >,std::allocator<std::pair<std::basic_string<char,std::char_traits<char>,std::allocator<char> > const ,CTextureFromBMP *> >,0> >
PUBLIC	?_Tidy@?$vector@PEAUsParticleThreadData@@V?$allocator@PEAUsParticleThreadData@@@std@@@std@@AEAAXXZ ; std::vector<sParticleThreadData *,std::allocator<sParticleThreadData *> >::_Tidy
PUBLIC	?count@?$duration@_JU?$ratio@$00$0JIJGIA@@std@@@chrono@std@@QEBA_JXZ ; std::chrono::duration<__int64,std::ratio<1,10000000> >::count
PUBLIC	??0?$time_point@Usystem_clock@chrono@std@@V?$duration@_JU?$ratio@$00$0JIJGIA@@std@@@23@@chrono@std@@QEAA@AEBV?$duration@_JU?$ratio@$00$0JIJGIA@@std@@@12@@Z ; std::chrono::time_point<std::chrono::system_clock,std::chrono::duration<__int64,std::ratio<1,10000000> > >::time_point<std::chrono::system_clock,std::chrono::duration<__int64,std::ratio<1,10000000> > >
PUBLIC	?time_since_epoch@?$time_point@Usystem_clock@chrono@std@@V?$duration@_JU?$ratio@$00$0JIJGIA@@std@@@23@@chrono@std@@QEBA?AV?$duration@_JU?$ratio@$00$0JIJGIA@@std@@@23@XZ ; std::chrono::time_point<std::chrono::system_clock,std::chrono::duration<__int64,std::ratio<1,10000000> > >::time_since_epoch
PUBLIC	??1?$_Tree@V?$_Tmap_traits@V?$basic_string@DU?$char_traits@D@std@@V?$allocator@D@2@@std@@PEAVcSoftBodyVerlet@@U?$less@V?$basic_string@DU?$char_traits@D@std@@V?$allocator@D@2@@std@@@2@V?$allocator@U?$pair@$$CBV?$basic_string@DU?$char_traits@D@std@@V?$allocator@D@2@@std@@PEAVcSoftBodyVerlet@@@std@@@2@$0A@@std@@@std@@QEAA@XZ ; std::_Tree<std::_Tmap_traits<std::basic_string<char,std::char_traits<char>,std::allocator<char> >,cSoftBodyVerlet *,std::less<std::basic_string<char,std::char_traits<char>,std::allocator<char> > >,std::allocator<std::pair<std::basic_string<char,std::char_traits<char>,std::allocator<char> > const ,cSoftBodyVerlet *> >,0> >::~_Tree<std::_Tmap_traits<std::basic_string<char,std::char_traits<char>,std::allocator<char> >,cSoftBodyVerlet *,std::less<std::basic_string<char,std::char_traits<char>,std::allocator<char> > >,std::allocator<std::pair<std::basic_string<char,std::char_traits<char>,std::allocator<char> > const ,cSoftBodyVerlet *> >,0> >
PUBLIC	??0?$map@V?$basic_string@DU?$char_traits@D@std@@V?$allocator@D@2@@std@@PEAVcSoftBodyVerlet@@U?$less@V?$basic_string@DU?$char_traits@D@std@@V?$allocator@D@2@@std@@@2@V?$allocator@U?$pair@$$CBV?$basic_string@DU?$char_traits@D@std@@V?$allocator@D@2@@std@@PEAVcSoftBodyVerlet@@@std@@@2@@std@@QEAA@XZ ; std::map<std::basic_string<char,std::char_traits<char>,std::allocator<char> >,cSoftBodyVerlet *,std::less<std::basic_string<char,std::char_traits<char>,std::allocator<char> > >,std::allocator<std::pair<std::basic_string<char,std::char_traits<char>,std::allocator<char> > const ,cSoftBodyVerlet *> > >::map<std::basic_string<char,std::char_traits<char>,std::allocator<char> >,cSoftBodyVerlet *,std::less<std::basic_string<char,std::char_traits<char>,std::allocator<char> > >,std::allocator<std::pair<std::basic_string<char,std::char_traits<char>,std::allocator<char> > const ,cSoftBodyVerlet *> > >
PUBLIC	??1?$_Tree@V?$_Tmap_traits@_KPEAVcBroad_Cube@cPhysics@@U?$less@_K@std@@V?$allocator@U?$pair@$$CB_KPEAVcBroad_Cube@cPhysics@@@std@@@4@$0A@@std@@@std@@QEAA@XZ ; std::_Tree<std::_Tmap_traits<unsigned __int64,cPhysics::cBroad_Cube *,std::less<unsigned __int64>,std::allocator<std::pair<unsigned __int64 const ,cPhysics::cBroad_Cube *> >,0> >::~_Tree<std::_Tmap_traits<unsigned __int64,cPhysics::cBroad_Cube *,std::less<unsigned __int64>,std::allocator<std::pair<unsigned __int64 const ,cPhysics::cBroad_Cube *> >,0> >
PUBLIC	??0?$map@_KPEAVcBroad_Cube@cPhysics@@U?$less@_K@std@@V?$allocator@U?$pair@$$CB_KPEAVcBroad_Cube@cPhysics@@@std@@@4@@std@@QEAA@XZ ; std::map<unsigned __int64,cPhysics::cBroad_Cube *,std::less<unsigned __int64>,std::allocator<std::pair<unsigned __int64 const ,cPhysics::cBroad_Cube *> > >::map<unsigned __int64,cPhysics::cBroad_Cube *,std::less<unsigned __int64>,std::allocator<std::pair<unsigned __int64 const ,cPhysics::cBroad_Cube *> > >
PUBLIC	??0?$vector@PEAUsSphere@cPhysics@@V?$allocator@PEAUsSphere@cPhysics@@@std@@@std@@QEAA@XZ ; std::vector<cPhysics::sSphere *,std::allocator<cPhysics::sSphere *> >::vector<cPhysics::sSphere *,std::allocator<cPhysics::sSphere *> >
PUBLIC	??1?$vector@PEAUsSphere@cPhysics@@V?$allocator@PEAUsSphere@cPhysics@@@std@@@std@@QEAA@XZ ; std::vector<cPhysics::sSphere *,std::allocator<cPhysics::sSphere *> >::~vector<cPhysics::sSphere *,std::allocator<cPhysics::sSphere *> >
PUBLIC	??0?$vector@PEAUsAABB@cPhysics@@V?$allocator@PEAUsAABB@cPhysics@@@std@@@std@@QEAA@XZ ; std::vector<cPhysics::sAABB *,std::allocator<cPhysics::sAABB *> >::vector<cPhysics::sAABB *,std::allocator<cPhysics::sAABB *> >
PUBLIC	??1?$vector@PEAUsAABB@cPhysics@@V?$allocator@PEAUsAABB@cPhysics@@@std@@@std@@QEAA@XZ ; std::vector<cPhysics::sAABB *,std::allocator<cPhysics::sAABB *> >::~vector<cPhysics::sAABB *,std::allocator<cPhysics::sAABB *> >
PUBLIC	??0?$vector@PEAUsTriangleMesh@cPhysics@@V?$allocator@PEAUsTriangleMesh@cPhysics@@@std@@@std@@QEAA@XZ ; std::vector<cPhysics::sTriangleMesh *,std::allocator<cPhysics::sTriangleMesh *> >::vector<cPhysics::sTriangleMesh *,std::allocator<cPhysics::sTriangleMesh *> >
PUBLIC	??1?$vector@PEAUsTriangleMesh@cPhysics@@V?$allocator@PEAUsTriangleMesh@cPhysics@@@std@@@std@@QEAA@XZ ; std::vector<cPhysics::sTriangleMesh *,std::allocator<cPhysics::sTriangleMesh *> >::~vector<cPhysics::sTriangleMesh *,std::allocator<cPhysics::sTriangleMesh *> >
PUBLIC	??0?$vector@UsCollision_SphereAABB@cPhysics@@V?$allocator@UsCollision_SphereAABB@cPhysics@@@std@@@std@@QEAA@XZ ; std::vector<cPhysics::sCollision_SphereAABB,std::allocator<cPhysics::sCollision_SphereAABB> >::vector<cPhysics::sCollision_SphereAABB,std::allocator<cPhysics::sCollision_SphereAABB> >
PUBLIC	??1?$vector@UsCollision_SphereAABB@cPhysics@@V?$allocator@UsCollision_SphereAABB@cPhysics@@@std@@@std@@QEAA@XZ ; std::vector<cPhysics::sCollision_SphereAABB,std::allocator<cPhysics::sCollision_SphereAABB> >::~vector<cPhysics::sCollision_SphereAABB,std::allocator<cPhysics::sCollision_SphereAABB> >
PUBLIC	??0?$vector@UsCollision_RayTriangleInMesh@cPhysics@@V?$allocator@UsCollision_RayTriangleInMesh@cPhysics@@@std@@@std@@QEAA@XZ ; std::vector<cPhysics::sCollision_RayTriangleInMesh,std::allocator<cPhysics::sCollision_RayTriangleInMesh> >::vector<cPhysics::sCollision_RayTriangleInMesh,std::allocator<cPhysics::sCollision_RayTriangleInMesh> >
PUBLIC	??1?$vector@UsCollision_RayTriangleInMesh@cPhysics@@V?$allocator@UsCollision_RayTriangleInMesh@cPhysics@@@std@@@std@@QEAA@XZ ; std::vector<cPhysics::sCollision_RayTriangleInMesh,std::allocator<cPhysics::sCollision_RayTriangleInMesh> >::~vector<cPhysics::sCollision_RayTriangleInMesh,std::allocator<cPhysics::sCollision_RayTriangleInMesh> >
PUBLIC	??1?$_Tree@V?$_Tmap_traits@V?$basic_string@DU?$char_traits@D@std@@V?$allocator@D@2@@std@@PEAVCTextureFromBMP@@U?$less@V?$basic_string@DU?$char_traits@D@std@@V?$allocator@D@2@@std@@@2@V?$allocator@U?$pair@$$CBV?$basic_string@DU?$char_traits@D@std@@V?$allocator@D@2@@std@@PEAVCTextureFromBMP@@@std@@@2@$0A@@std@@@std@@QEAA@XZ ; std::_Tree<std::_Tmap_traits<std::basic_string<char,std::char_traits<char>,std::allocator<char> >,CTextureFromBMP *,std::less<std::basic_string<char,std::char_traits<char>,std::allocator<char> > >,std::allocator<std::pair<std::basic_string<char,std::char_traits<char>,std::allocator<char> > const ,CTextureFromBMP *> >,0> >::~_Tree<std::_Tmap_traits<std::basic_string<char,std::char_traits<char>,std::allocator<char> >,CTextureFromBMP *,std::less<std::basic_string<char,std::char_traits<char>,std::allocator<char> > >,std::allocator<std::pair<std::basic_string<char,std::char_traits<char>,std::allocator<char> > const ,CTextureFromBMP *> >,0> >
PUBLIC	??0?$map@V?$basic_string@DU?$char_traits@D@std@@V?$allocator@D@2@@std@@PEAVCTextureFromBMP@@U?$less@V?$basic_string@DU?$char_traits@D@std@@V?$allocator@D@2@@std@@@2@V?$allocator@U?$pair@$$CBV?$basic_string@DU?$char_traits@D@std@@V?$allocator@D@2@@std@@PEAVCTextureFromBMP@@@std@@@2@@std@@QEAA@XZ ; std::map<std::basic_string<char,std::char_traits<char>,std::allocator<char> >,CTextureFromBMP *,std::less<std::basic_string<char,std::char_traits<char>,std::allocator<char> > >,std::allocator<std::pair<std::basic_string<char,std::char_traits<char>,std::allocator<char> > const ,CTextureFromBMP *> > >::map<std::basic_string<char,std::char_traits<char>,std::allocator<char> >,CTextureFromBMP *,std::less<std::basic_string<char,std::char_traits<char>,std::allocator<char> > >,std::allocator<std::pair<std::basic_string<char,std::char_traits<char>,std::allocator<char> > const ,CTextureFromBMP *> > >
PUBLIC	??0?$vector@PEAUsParticleThreadData@@V?$allocator@PEAUsParticleThreadData@@@std@@@std@@QEAA@XZ ; std::vector<sParticleThreadData *,std::allocator<sParticleThreadData *> >::vector<sParticleThreadData *,std::allocator<sParticleThreadData *> >
PUBLIC	??1?$vector@PEAUsParticleThreadData@@V?$allocator@PEAUsParticleThreadData@@@std@@@std@@QEAA@XZ ; std::vector<sParticleThreadData *,std::allocator<sParticleThreadData *> >::~vector<sParticleThreadData *,std::allocator<sParticleThreadData *> >
PUBLIC	?push_back@?$vector@PEAUsParticleThreadData@@V?$allocator@PEAUsParticleThreadData@@@std@@@std@@QEAAXAEBQEAUsParticleThreadData@@@Z ; std::vector<sParticleThreadData *,std::allocator<sParticleThreadData *> >::push_back
PUBLIC	??0?$linear_congruential_engine@I$0EBKH@$0A@$0HPPPPPPP@@std@@QEAA@I@Z ; std::linear_congruential_engine<unsigned int,16807,0,2147483647>::linear_congruential_engine<unsigned int,16807,0,2147483647>
PUBLIC	??A?$vector@VcPhysicsObjectTypes@@V?$allocator@VcPhysicsObjectTypes@@@std@@@std@@QEAAAEAVcPhysicsObjectTypes@@_K@Z ; std::vector<cPhysicsObjectTypes,std::allocator<cPhysicsObjectTypes> >::operator[]
PUBLIC	??0sParticleThreadData@@QEAA@XZ			; sParticleThreadData::sParticleThreadData
PUBLIC	?CreateThreads@@YAXH@Z				; CreateThreads
PUBLIC	?AddToPhysXMap@@YAXV?$basic_string@DU?$char_traits@D@std@@V?$allocator@D@2@@std@@I@Z ; AddToPhysXMap
PUBLIC	?LoadTextures@@YAXXZ				; LoadTextures
PUBLIC	?ModelsToVAO@@YAXI@Z				; ModelsToVAO
PUBLIC	?SetCameraPosition@@YAXXZ			; SetCameraPosition
PUBLIC	?LoadLights@@YAXXZ				; LoadLights
PUBLIC	??1cPhysics@@QEAA@XZ				; cPhysics::~cPhysics
PUBLIC	??1?$map@V?$basic_string@DU?$char_traits@D@std@@V?$allocator@D@2@@std@@PEAVCTextureFromBMP@@U?$less@V?$basic_string@DU?$char_traits@D@std@@V?$allocator@D@2@@std@@@2@V?$allocator@U?$pair@$$CBV?$basic_string@DU?$char_traits@D@std@@V?$allocator@D@2@@std@@PEAVCTextureFromBMP@@@std@@@2@@std@@QEAA@XZ ; std::map<std::basic_string<char,std::char_traits<char>,std::allocator<char> >,CTextureFromBMP *,std::less<std::basic_string<char,std::char_traits<char>,std::allocator<char> > >,std::allocator<std::pair<std::basic_string<char,std::char_traits<char>,std::allocator<char> > const ,CTextureFromBMP *> > >::~map<std::basic_string<char,std::char_traits<char>,std::allocator<char> >,CTextureFromBMP *,std::less<std::basic_string<char,std::char_traits<char>,std::allocator<char> > >,std::allocator<std::pair<std::basic_string<char,std::char_traits<char>,std::allocator<char> > const ,CTextureFromBMP *> > >
PUBLIC	??_GcPhysXWraper@@QEAAPEAXI@Z			; cPhysXWraper::`scalar deleting destructor'
PUBLIC	??_GcPhysics@@QEAAPEAXI@Z			; cPhysics::`scalar deleting destructor'
PUBLIC	?__autoclassinit2@cParticleEmitter_2@@QEAAX_K@Z	; cParticleEmitter_2::__autoclassinit2
PUBLIC	?__autoclassinit2@cBasicTextureManager@@QEAAX_K@Z ; cBasicTextureManager::__autoclassinit2
PUBLIC	??0cBasicTextureManager@@QEAA@XZ		; cBasicTextureManager::cBasicTextureManager
PUBLIC	?__autoclassinit2@cLowPassFilter@@QEAAX_K@Z	; cLowPassFilter::__autoclassinit2
PUBLIC	??1cLowPassFilter@@QEAA@XZ			; cLowPassFilter::~cLowPassFilter
PUBLIC	?__autoclassinit2@cPhysXWraper@@QEAAX_K@Z	; cPhysXWraper::__autoclassinit2
PUBLIC	?__autoclassinit2@cPhysics@@QEAAX_K@Z		; cPhysics::__autoclassinit2
PUBLIC	??1?$map@_KPEAVcBroad_Cube@cPhysics@@U?$less@_K@std@@V?$allocator@U?$pair@$$CB_KPEAVcBroad_Cube@cPhysics@@@std@@@4@@std@@QEAA@XZ ; std::map<unsigned __int64,cPhysics::cBroad_Cube *,std::less<unsigned __int64>,std::allocator<std::pair<unsigned __int64 const ,cPhysics::cBroad_Cube *> > >::~map<unsigned __int64,cPhysics::cBroad_Cube *,std::less<unsigned __int64>,std::allocator<std::pair<unsigned __int64 const ,cPhysics::cBroad_Cube *> > >
PUBLIC	??1?$map@V?$basic_string@DU?$char_traits@D@std@@V?$allocator@D@2@@std@@PEAVcSoftBodyVerlet@@U?$less@V?$basic_string@DU?$char_traits@D@std@@V?$allocator@D@2@@std@@@2@V?$allocator@U?$pair@$$CBV?$basic_string@DU?$char_traits@D@std@@V?$allocator@D@2@@std@@PEAVcSoftBodyVerlet@@@std@@@2@@std@@QEAA@XZ ; std::map<std::basic_string<char,std::char_traits<char>,std::allocator<char> >,cSoftBodyVerlet *,std::less<std::basic_string<char,std::char_traits<char>,std::allocator<char> > >,std::allocator<std::pair<std::basic_string<char,std::char_traits<char>,std::allocator<char> > const ,cSoftBodyVerlet *> > >::~map<std::basic_string<char,std::char_traits<char>,std::allocator<char> >,cSoftBodyVerlet *,std::less<std::basic_string<char,std::char_traits<char>,std::allocator<char> > >,std::allocator<std::pair<std::basic_string<char,std::char_traits<char>,std::allocator<char> > const ,cSoftBodyVerlet *> > >
PUBLIC	?__autoclassinit2@cTerrainPathChooser@@QEAAX_K@Z ; cTerrainPathChooser::__autoclassinit2
PUBLIC	?__autoclassinit2@cVAOManager@@QEAAX_K@Z	; cVAOManager::__autoclassinit2
PUBLIC	?__autoclassinit2@cShader@cShaderManager@@QEAAX_K@Z ; cShaderManager::cShader::__autoclassinit2
PUBLIC	?__autoclassinit2@cShaderManager@@QEAAX_K@Z	; cShaderManager::__autoclassinit2
PUBLIC	??0cPhysics@@QEAA@XZ				; cPhysics::cPhysics
PUBLIC	main
PUBLIC	?g_pFindChildMeshByFriendlyName@@YAPEAUsMesh@@PEAU1@V?$basic_string@DU?$char_traits@D@std@@V?$allocator@D@2@@std@@@Z ; g_pFindChildMeshByFriendlyName
PUBLIC	?threadFunction_MoveParticles@@YAKPEAX@Z	; threadFunction_MoveParticles
PUBLIC	?__autoclassinit2@?$vector@PEAUsParticleThreadData@@V?$allocator@PEAUsParticleThreadData@@@std@@@std@@QEAAX_K@Z ; std::vector<sParticleThreadData *,std::allocator<sParticleThreadData *> >::__autoclassinit2
PUBLIC	??0cFBO_deferred@@QEAA@XZ			; cFBO_deferred::cFBO_deferred
PUBLIC	??0cFBO_Depth_Only@@QEAA@XZ			; cFBO_Depth_Only::cFBO_Depth_Only
PUBLIC	?now@system_clock@chrono@std@@SA?AV?$time_point@Usystem_clock@chrono@std@@V?$duration@_JU?$ratio@$00$0JIJGIA@@std@@@23@@23@XZ ; std::chrono::system_clock::now
PUBLIC	fprintf
PUBLIC	_vfprintf_l
PUBLIC	__local_stdio_printf_options
PUBLIC	?g_pFindMeshByFriendlyName@@YAPEAUsMesh@@V?$basic_string@DU?$char_traits@D@std@@V?$allocator@D@2@@std@@_N@Z ; g_pFindMeshByFriendlyName
PUBLIC	?g_vecThreadData@@3V?$vector@PEAUsParticleThreadData@@V?$allocator@PEAUsParticleThreadData@@@std@@@std@@A ; g_vecThreadData
PUBLIC	?g_vecMeshesToDraw@@3V?$vector@PEAUsMesh@@V?$allocator@PEAUsMesh@@@std@@@std@@A ; g_vecMeshesToDraw
?g_vecThreadData@@3V?$vector@PEAUsParticleThreadData@@V?$allocator@PEAUsParticleThreadData@@@std@@@std@@A DB 018H DUP (?) ; g_vecThreadData
?g_vecMeshesToDraw@@3V?$vector@PEAUsMesh@@V?$allocator@PEAUsMesh@@@std@@@std@@A DB 018H DUP (?) ; g_vecMeshesToDraw
_BSS	ENDS
;	COMDAT pdata
pdata	SEGMENT
$pdata$??0?$pair@$$CBV?$basic_string@DU?$char_traits@D@std@@V?$allocator@D@2@@std@@U?$vec@$03M$0A@@glm@@@std@@QEAA@AEBU01@@Z DD imagerel $LN6@pair
	DD	imagerel $LN6@pair+43
	DD	imagerel $unwind$??0?$pair@$$CBV?$basic_string@DU?$char_traits@D@std@@V?$allocator@D@2@@std@@U?$vec@$03M$0A@@glm@@@std@@QEAA@AEBU01@@Z
pdata	ENDS
;	COMDAT pdata
pdata	SEGMENT
$pdata$??$construct@U?$pair@$$CBV?$basic_string@DU?$char_traits@D@std@@V?$allocator@D@2@@std@@U?$vec@$03M$0A@@glm@@@std@@AEAU12@@?$_Default_allocator_traits@V?$allocator@U?$_Tree_node@U?$pair@$$CBV?$basic_string@DU?$char_traits@D@std@@V?$allocator@D@2@@std@@U?$vec@$03M$0A@@glm@@@std@@PEAX@std@@@std@@@std@@SAXAEAV?$allocator@U?$_Tree_node@U?$pair@$$CBV?$basic_string@DU?$char_traits@D@std@@V?$allocator@D@2@@std@@U?$vec@$03M$0A@@glm@@@std@@PEAX@std@@@1@QEAU?$pair@$$CBV?$basic_string@DU?$char_traits@D@std@@V?$allocator@D@2@@std@@U?$vec@$03M$0A@@glm@@@1@AEAU31@@Z DD imagerel $LN8@construct
	DD	imagerel $LN8@construct+46
	DD	imagerel $unwind$??$construct@U?$pair@$$CBV?$basic_string@DU?$char_traits@D@std@@V?$allocator@D@2@@std@@U?$vec@$03M$0A@@glm@@@std@@AEAU12@@?$_Default_allocator_traits@V?$allocator@U?$_Tree_node@U?$pair@$$CBV?$basic_string@DU?$char_traits@D@std@@V?$allocator@D@2@@std@@U?$vec@$03M$0A@@glm@@@std@@PEAX@std@@@std@@@std@@SAXAEAV?$allocator@U?$_Tree_node@U?$pair@$$CBV?$basic_string@DU?$char_traits@D@std@@V?$allocator@D@2@@std@@U?$vec@$03M$0A@@glm@@@std@@PEAX@std@@@1@QEAU?$pair@$$CBV?$basic_string@DU?$char_traits@D@std@@V?$allocator@D@2@@std@@U?$vec@$03M$0A@@glm@@@1@AEAU31@@Z
pdata	ENDS
;	COMDAT pdata
pdata	SEGMENT
$pdata$?_Allocate@?$_Alloc_construct_ptr@V?$allocator@U?$_Tree_node@U?$pair@$$CBV?$basic_string@DU?$char_traits@D@std@@V?$allocator@D@2@@std@@U?$vec@$03M$0A@@glm@@@std@@PEAX@std@@@std@@@std@@QEAAXXZ DD imagerel $LN28@Allocate
	DD	imagerel $LN28@Allocate+37
	DD	imagerel $unwind$?_Allocate@?$_Alloc_construct_ptr@V?$allocator@U?$_Tree_node@U?$pair@$$CBV?$basic_string@DU?$char_traits@D@std@@V?$allocator@D@2@@std@@U?$vec@$03M$0A@@glm@@@std@@PEAX@std@@@std@@@std@@QEAAXXZ
pdata	ENDS
;	COMDAT pdata
pdata	SEGMENT
$pdata$??$_Buynode@V?$allocator@U?$_Tree_node@U?$pair@$$CBV?$basic_string@DU?$char_traits@D@std@@V?$allocator@D@2@@std@@U?$vec@$03M$0A@@glm@@@std@@PEAX@std@@@std@@AEAU?$pair@$$CBV?$basic_string@DU?$char_traits@D@std@@V?$allocator@D@2@@std@@U?$vec@$03M$0A@@glm@@@2@@?$_Tree_node@U?$pair@$$CBV?$basic_string@DU?$char_traits@D@std@@V?$allocator@D@2@@std@@U?$vec@$03M$0A@@glm@@@std@@PEAX@std@@SAPEAU01@AEAV?$allocator@U?$_Tree_node@U?$pair@$$CBV?$basic_string@DU?$char_traits@D@std@@V?$allocator@D@2@@std@@U?$vec@$03M$0A@@glm@@@std@@PEAX@std@@@1@PEAU01@AEAU?$pair@$$CBV?$basic_string@DU?$char_traits@D@std@@V?$allocator@D@2@@std@@U?$vec@$03M$0A@@glm@@@1@@Z DD imagerel $LN70@Buynode
	DD	imagerel $LN70@Buynode+119
	DD	imagerel $unwind$??$_Buynode@V?$allocator@U?$_Tree_node@U?$pair@$$CBV?$basic_string@DU?$char_traits@D@std@@V?$allocator@D@2@@std@@U?$vec@$03M$0A@@glm@@@std@@PEAX@std@@@std@@AEAU?$pair@$$CBV?$basic_string@DU?$char_traits@D@std@@V?$allocator@D@2@@std@@U?$vec@$03M$0A@@glm@@@2@@?$_Tree_node@U?$pair@$$CBV?$basic_string@DU?$char_traits@D@std@@V?$allocator@D@2@@std@@U?$vec@$03M$0A@@glm@@@std@@PEAX@std@@SAPEAU01@AEAV?$allocator@U?$_Tree_node@U?$pair@$$CBV?$basic_string@DU?$char_traits@D@std@@V?$allocator@D@2@@std@@U?$vec@$03M$0A@@glm@@@std@@PEAX@std@@@1@PEAU01@AEAU?$pair@$$CBV?$basic_string@DU?$char_traits@D@std@@V?$allocator@D@2@@std@@U?$vec@$03M$0A@@glm@@@1@@Z
pdata	ENDS
;	COMDAT pdata
pdata	SEGMENT
$pdata$??$_Buynode@AEAU?$pair@$$CBV?$basic_string@DU?$char_traits@D@std@@V?$allocator@D@2@@std@@U?$vec@$03M$0A@@glm@@@std@@@?$_Tree@V?$_Tmap_traits@V?$basic_string@DU?$char_traits@D@std@@V?$allocator@D@2@@std@@U?$vec@$03M$0A@@glm@@U?$less@V?$basic_string@DU?$char_traits@D@std@@V?$allocator@D@2@@std@@@2@V?$allocator@U?$pair@$$CBV?$basic_string@DU?$char_traits@D@std@@V?$allocator@D@2@@std@@U?$vec@$03M$0A@@glm@@@std@@@2@$0A@@std@@@std@@IEAAPEAU?$_Tree_node@U?$pair@$$CBV?$basic_string@DU?$char_traits@D@std@@V?$allocator@D@2@@std@@U?$vec@$03M$0A@@glm@@@std@@PEAX@1@AEAU?$pair@$$CBV?$basic_string@DU?$char_traits@D@std@@V?$allocator@D@2@@std@@U?$vec@$03M$0A@@glm@@@1@@Z DD imagerel $LN73@Buynode
	DD	imagerel $LN73@Buynode+119
	DD	imagerel $unwind$??$_Buynode@AEAU?$pair@$$CBV?$basic_string@DU?$char_traits@D@std@@V?$allocator@D@2@@std@@U?$vec@$03M$0A@@glm@@@std@@@?$_Tree@V?$_Tmap_traits@V?$basic_string@DU?$char_traits@D@std@@V?$allocator@D@2@@std@@U?$vec@$03M$0A@@glm@@U?$less@V?$basic_string@DU?$char_traits@D@std@@V?$allocator@D@2@@std@@@2@V?$allocator@U?$pair@$$CBV?$basic_string@DU?$char_traits@D@std@@V?$allocator@D@2@@std@@U?$vec@$03M$0A@@glm@@@std@@@2@$0A@@std@@@std@@IEAAPEAU?$_Tree_node@U?$pair@$$CBV?$basic_string@DU?$char_traits@D@std@@V?$allocator@D@2@@std@@U?$vec@$03M$0A@@glm@@@std@@PEAX@1@AEAU?$pair@$$CBV?$basic_string@DU?$char_traits@D@std@@V?$allocator@D@2@@std@@U?$vec@$03M$0A@@glm@@@1@@Z
pdata	ENDS
;	COMDAT pdata
pdata	SEGMENT
$pdata$??$_Erase_tree_and_orphan@V?$allocator@U?$_Tree_node@U?$pair@$$CBV?$basic_string@DU?$char_traits@D@std@@V?$allocator@D@2@@std@@U?$vec@$03M$0A@@glm@@@std@@PEAX@std@@@std@@@?$_Tree_val@U?$_Tree_simple_types@U?$pair@$$CBV?$basic_string@DU?$char_traits@D@std@@V?$allocator@D@2@@std@@U?$vec@$03M$0A@@glm@@@std@@@std@@@std@@QEAAXAEAV?$allocator@U?$_Tree_node@U?$pair@$$CBV?$basic_string@DU?$char_traits@D@std@@V?$allocator@D@2@@std@@U?$vec@$03M$0A@@glm@@@std@@PEAX@std@@@1@PEAU?$_Tree_node@U?$pair@$$CBV?$basic_string@DU?$char_traits@D@std@@V?$allocator@D@2@@std@@U?$vec@$03M$0A@@glm@@@std@@PEAX@1@@Z DD imagerel $LN102@Erase_tree
	DD	imagerel $LN102@Erase_tree+28
	DD	imagerel $unwind$??$_Erase_tree_and_orphan@V?$allocator@U?$_Tree_node@U?$pair@$$CBV?$basic_string@DU?$char_traits@D@std@@V?$allocator@D@2@@std@@U?$vec@$03M$0A@@glm@@@std@@PEAX@std@@@std@@@?$_Tree_val@U?$_Tree_simple_types@U?$pair@$$CBV?$basic_string@DU?$char_traits@D@std@@V?$allocator@D@2@@std@@U?$vec@$03M$0A@@glm@@@std@@@std@@@std@@QEAAXAEAV?$allocator@U?$_Tree_node@U?$pair@$$CBV?$basic_string@DU?$char_traits@D@std@@V?$allocator@D@2@@std@@U?$vec@$03M$0A@@glm@@@std@@PEAX@std@@@1@PEAU?$_Tree_node@U?$pair@$$CBV?$basic_string@DU?$char_traits@D@std@@V?$allocator@D@2@@std@@U?$vec@$03M$0A@@glm@@@std@@PEAX@1@@Z
pdata	ENDS
;	COMDAT pdata
pdata	SEGMENT
$pdata$1$??$_Erase_tree_and_orphan@V?$allocator@U?$_Tree_node@U?$pair@$$CBV?$basic_string@DU?$char_traits@D@std@@V?$allocator@D@2@@std@@U?$vec@$03M$0A@@glm@@@std@@PEAX@std@@@std@@@?$_Tree_val@U?$_Tree_simple_types@U?$pair@$$CBV?$basic_string@DU?$char_traits@D@std@@V?$allocator@D@2@@std@@U?$vec@$03M$0A@@glm@@@std@@@std@@@std@@QEAAXAEAV?$allocator@U?$_Tree_node@U?$pair@$$CBV?$basic_string@DU?$char_traits@D@std@@V?$allocator@D@2@@std@@U?$vec@$03M$0A@@glm@@@std@@PEAX@std@@@1@PEAU?$_Tree_node@U?$pair@$$CBV?$basic_string@DU?$char_traits@D@std@@V?$allocator@D@2@@std@@U?$vec@$03M$0A@@glm@@@std@@PEAX@1@@Z DD imagerel $LN102@Erase_tree+28
	DD	imagerel $LN102@Erase_tree+169
	DD	imagerel $chain$1$??$_Erase_tree_and_orphan@V?$allocator@U?$_Tree_node@U?$pair@$$CBV?$basic_string@DU?$char_traits@D@std@@V?$allocator@D@2@@std@@U?$vec@$03M$0A@@glm@@@std@@PEAX@std@@@std@@@?$_Tree_val@U?$_Tree_simple_types@U?$pair@$$CBV?$basic_string@DU?$char_traits@D@std@@V?$allocator@D@2@@std@@U?$vec@$03M$0A@@glm@@@std@@@std@@@std@@QEAAXAEAV?$allocator@U?$_Tree_node@U?$pair@$$CBV?$basic_string@DU?$char_traits@D@std@@V?$allocator@D@2@@std@@U?$vec@$03M$0A@@glm@@@std@@PEAX@std@@@1@PEAU?$_Tree_node@U?$pair@$$CBV?$basic_string@DU?$char_traits@D@std@@V?$allocator@D@2@@std@@U?$vec@$03M$0A@@glm@@@std@@PEAX@1@@Z
pdata	ENDS
;	COMDAT pdata
pdata	SEGMENT
$pdata$2$??$_Erase_tree_and_orphan@V?$allocator@U?$_Tree_node@U?$pair@$$CBV?$basic_string@DU?$char_traits@D@std@@V?$allocator@D@2@@std@@U?$vec@$03M$0A@@glm@@@std@@PEAX@std@@@std@@@?$_Tree_val@U?$_Tree_simple_types@U?$pair@$$CBV?$basic_string@DU?$char_traits@D@std@@V?$allocator@D@2@@std@@U?$vec@$03M$0A@@glm@@@std@@@std@@@std@@QEAAXAEAV?$allocator@U?$_Tree_node@U?$pair@$$CBV?$basic_string@DU?$char_traits@D@std@@V?$allocator@D@2@@std@@U?$vec@$03M$0A@@glm@@@std@@PEAX@std@@@1@PEAU?$_Tree_node@U?$pair@$$CBV?$basic_string@DU?$char_traits@D@std@@V?$allocator@D@2@@std@@U?$vec@$03M$0A@@glm@@@std@@PEAX@1@@Z DD imagerel $LN102@Erase_tree+169
	DD	imagerel $LN102@Erase_tree+177
	DD	imagerel $chain$2$??$_Erase_tree_and_orphan@V?$allocator@U?$_Tree_node@U?$pair@$$CBV?$basic_string@DU?$char_traits@D@std@@V?$allocator@D@2@@std@@U?$vec@$03M$0A@@glm@@@std@@PEAX@std@@@std@@@?$_Tree_val@U?$_Tree_simple_types@U?$pair@$$CBV?$basic_string@DU?$char_traits@D@std@@V?$allocator@D@2@@std@@U?$vec@$03M$0A@@glm@@@std@@@std@@@std@@QEAAXAEAV?$allocator@U?$_Tree_node@U?$pair@$$CBV?$basic_string@DU?$char_traits@D@std@@V?$allocator@D@2@@std@@U?$vec@$03M$0A@@glm@@@std@@PEAX@std@@@1@PEAU?$_Tree_node@U?$pair@$$CBV?$basic_string@DU?$char_traits@D@std@@V?$allocator@D@2@@std@@U?$vec@$03M$0A@@glm@@@std@@PEAX@1@@Z
pdata	ENDS
;	COMDAT pdata
pdata	SEGMENT
$pdata$3$??$_Erase_tree_and_orphan@V?$allocator@U?$_Tree_node@U?$pair@$$CBV?$basic_string@DU?$char_traits@D@std@@V?$allocator@D@2@@std@@U?$vec@$03M$0A@@glm@@@std@@PEAX@std@@@std@@@?$_Tree_val@U?$_Tree_simple_types@U?$pair@$$CBV?$basic_string@DU?$char_traits@D@std@@V?$allocator@D@2@@std@@U?$vec@$03M$0A@@glm@@@std@@@std@@@std@@QEAAXAEAV?$allocator@U?$_Tree_node@U?$pair@$$CBV?$basic_string@DU?$char_traits@D@std@@V?$allocator@D@2@@std@@U?$vec@$03M$0A@@glm@@@std@@PEAX@std@@@1@PEAU?$_Tree_node@U?$pair@$$CBV?$basic_string@DU?$char_traits@D@std@@V?$allocator@D@2@@std@@U?$vec@$03M$0A@@glm@@@std@@PEAX@1@@Z DD imagerel $LN102@Erase_tree+177
	DD	imagerel $LN102@Erase_tree+184
	DD	imagerel $chain$3$??$_Erase_tree_and_orphan@V?$allocator@U?$_Tree_node@U?$pair@$$CBV?$basic_string@DU?$char_traits@D@std@@V?$allocator@D@2@@std@@U?$vec@$03M$0A@@glm@@@std@@PEAX@std@@@std@@@?$_Tree_val@U?$_Tree_simple_types@U?$pair@$$CBV?$basic_string@DU?$char_traits@D@std@@V?$allocator@D@2@@std@@U?$vec@$03M$0A@@glm@@@std@@@std@@@std@@QEAAXAEAV?$allocator@U?$_Tree_node@U?$pair@$$CBV?$basic_string@DU?$char_traits@D@std@@V?$allocator@D@2@@std@@U?$vec@$03M$0A@@glm@@@std@@PEAX@std@@@1@PEAU?$_Tree_node@U?$pair@$$CBV?$basic_string@DU?$char_traits@D@std@@V?$allocator@D@2@@std@@U?$vec@$03M$0A@@glm@@@std@@PEAX@1@@Z
pdata	ENDS
;	COMDAT pdata
pdata	SEGMENT
$pdata$??$_Copy_or_move@$0A@U?$pair@$$CBV?$basic_string@DU?$char_traits@D@std@@V?$allocator@D@2@@std@@U?$vec@$03M$0A@@glm@@@std@@@?$_Tree@V?$_Tmap_traits@V?$basic_string@DU?$char_traits@D@std@@V?$allocator@D@2@@std@@U?$vec@$03M$0A@@glm@@U?$less@V?$basic_string@DU?$char_traits@D@std@@V?$allocator@D@2@@std@@@2@V?$allocator@U?$pair@$$CBV?$basic_string@DU?$char_traits@D@std@@V?$allocator@D@2@@std@@U?$vec@$03M$0A@@glm@@@std@@@2@$0A@@std@@@std@@IEAAPEAU?$_Tree_node@U?$pair@$$CBV?$basic_string@DU?$char_traits@D@std@@V?$allocator@D@2@@std@@U?$vec@$03M$0A@@glm@@@std@@PEAX@1@AEAU?$pair@$$CBV?$basic_string@DU?$char_traits@D@std@@V?$allocator@D@2@@std@@U?$vec@$03M$0A@@glm@@@1@@Z DD imagerel $LN76@Copy_or_mo
	DD	imagerel $LN76@Copy_or_mo+119
	DD	imagerel $unwind$??$_Copy_or_move@$0A@U?$pair@$$CBV?$basic_string@DU?$char_traits@D@std@@V?$allocator@D@2@@std@@U?$vec@$03M$0A@@glm@@@std@@@?$_Tree@V?$_Tmap_traits@V?$basic_string@DU?$char_traits@D@std@@V?$allocator@D@2@@std@@U?$vec@$03M$0A@@glm@@U?$less@V?$basic_string@DU?$char_traits@D@std@@V?$allocator@D@2@@std@@@2@V?$allocator@U?$pair@$$CBV?$basic_string@DU?$char_traits@D@std@@V?$allocator@D@2@@std@@U?$vec@$03M$0A@@glm@@@std@@@2@$0A@@std@@@std@@IEAAPEAU?$_Tree_node@U?$pair@$$CBV?$basic_string@DU?$char_traits@D@std@@V?$allocator@D@2@@std@@U?$vec@$03M$0A@@glm@@@std@@PEAX@1@AEAU?$pair@$$CBV?$basic_string@DU?$char_traits@D@std@@V?$allocator@D@2@@std@@U?$vec@$03M$0A@@glm@@@1@@Z
pdata	ENDS
;	COMDAT pdata
pdata	SEGMENT
$pdata$??$_Copy_memmove_tail@PEAPEAUsParticleThreadData@@@std@@YAPEAPEAUsParticleThreadData@@QEBDQEAPEAU1@_K2@Z DD imagerel $LN4@Copy_memmo
	DD	imagerel $LN4@Copy_memmo+42
	DD	imagerel $unwind$??$_Copy_memmove_tail@PEAPEAUsParticleThreadData@@@std@@YAPEAPEAUsParticleThreadData@@QEBDQEAPEAU1@_K2@Z
pdata	ENDS
;	COMDAT pdata
pdata	SEGMENT
$pdata$?_Alloc_sentinel_and_proxy@?$_Tree@V?$_Tmap_traits@V?$basic_string@DU?$char_traits@D@std@@V?$allocator@D@2@@std@@U?$vec@$03M$0A@@glm@@U?$less@V?$basic_string@DU?$char_traits@D@std@@V?$allocator@D@2@@std@@@2@V?$allocator@U?$pair@$$CBV?$basic_string@DU?$char_traits@D@std@@V?$allocator@D@2@@std@@U?$vec@$03M$0A@@glm@@@std@@@2@$0A@@std@@@std@@IEAAXXZ DD imagerel $LN31@Alloc_sent
	DD	imagerel $LN31@Alloc_sent+45
	DD	imagerel $unwind$?_Alloc_sentinel_and_proxy@?$_Tree@V?$_Tmap_traits@V?$basic_string@DU?$char_traits@D@std@@V?$allocator@D@2@@std@@U?$vec@$03M$0A@@glm@@U?$less@V?$basic_string@DU?$char_traits@D@std@@V?$allocator@D@2@@std@@@2@V?$allocator@U?$pair@$$CBV?$basic_string@DU?$char_traits@D@std@@V?$allocator@D@2@@std@@U?$vec@$03M$0A@@glm@@@std@@@2@$0A@@std@@@std@@IEAAXXZ
pdata	ENDS
;	COMDAT pdata
pdata	SEGMENT
$pdata$??0?$_Tree@V?$_Tmap_traits@V?$basic_string@DU?$char_traits@D@std@@V?$allocator@D@2@@std@@U?$vec@$03M$0A@@glm@@U?$less@V?$basic_string@DU?$char_traits@D@std@@V?$allocator@D@2@@std@@@2@V?$allocator@U?$pair@$$CBV?$basic_string@DU?$char_traits@D@std@@V?$allocator@D@2@@std@@U?$vec@$03M$0A@@glm@@@std@@@2@$0A@@std@@@std@@QEAA@$$QEAV01@@Z DD imagerel $LN52@Tree
	DD	imagerel $LN52@Tree+94
	DD	imagerel $unwind$??0?$_Tree@V?$_Tmap_traits@V?$basic_string@DU?$char_traits@D@std@@V?$allocator@D@2@@std@@U?$vec@$03M$0A@@glm@@U?$less@V?$basic_string@DU?$char_traits@D@std@@V?$allocator@D@2@@std@@@2@V?$allocator@U?$pair@$$CBV?$basic_string@DU?$char_traits@D@std@@V?$allocator@D@2@@std@@U?$vec@$03M$0A@@glm@@@std@@@2@$0A@@std@@@std@@QEAA@$$QEAV01@@Z
pdata	ENDS
;	COMDAT pdata
pdata	SEGMENT
$pdata$??0?$map@V?$basic_string@DU?$char_traits@D@std@@V?$allocator@D@2@@std@@U?$vec@$03M$0A@@glm@@U?$less@V?$basic_string@DU?$char_traits@D@std@@V?$allocator@D@2@@std@@@2@V?$allocator@U?$pair@$$CBV?$basic_string@DU?$char_traits@D@std@@V?$allocator@D@2@@std@@U?$vec@$03M$0A@@glm@@@std@@@2@@std@@QEAA@$$QEAV01@@Z DD imagerel $LN56@map
	DD	imagerel $LN56@map+94
	DD	imagerel $unwind$??0?$map@V?$basic_string@DU?$char_traits@D@std@@V?$allocator@D@2@@std@@U?$vec@$03M$0A@@glm@@U?$less@V?$basic_string@DU?$char_traits@D@std@@V?$allocator@D@2@@std@@@2@V?$allocator@U?$pair@$$CBV?$basic_string@DU?$char_traits@D@std@@V?$allocator@D@2@@std@@U?$vec@$03M$0A@@glm@@@std@@@2@@std@@QEAA@$$QEAV01@@Z
pdata	ENDS
;	COMDAT pdata
pdata	SEGMENT
$pdata$??1?$pair@$$CBV?$basic_string@DU?$char_traits@D@std@@V?$allocator@D@2@@std@@PEAVcSoftBodyVerlet@@@std@@QEAA@XZ DD imagerel $LN48@pair
	DD	imagerel $LN48@pair+95
	DD	imagerel $unwind$??1?$pair@$$CBV?$basic_string@DU?$char_traits@D@std@@V?$allocator@D@2@@std@@PEAVcSoftBodyVerlet@@@std@@QEAA@XZ
pdata	ENDS
;	COMDAT pdata
pdata	SEGMENT
$pdata$??_G?$pair@$$CBV?$basic_string@DU?$char_traits@D@std@@V?$allocator@D@2@@std@@PEAVcSoftBodyVerlet@@@std@@QEAAPEAXI@Z DD imagerel $LN55@scalar
	DD	imagerel $LN55@scalar+98
	DD	imagerel $unwind$??_G?$pair@$$CBV?$basic_string@DU?$char_traits@D@std@@V?$allocator@D@2@@std@@PEAVcSoftBodyVerlet@@@std@@QEAAPEAXI@Z
pdata	ENDS
;	COMDAT pdata
pdata	SEGMENT
$pdata$??0cPhysicsObjectTypes@@QEAA@$$QEAV0@@Z DD imagerel $LN90@cPhysicsOb
	DD	imagerel $LN90@cPhysicsOb+208
	DD	imagerel $unwind$??0cPhysicsObjectTypes@@QEAA@$$QEAV0@@Z
pdata	ENDS
;	COMDAT pdata
pdata	SEGMENT
$pdata$??0?$pair@$$CBV?$basic_string@DU?$char_traits@D@std@@V?$allocator@D@2@@std@@VcPhysicsObjectTypes@@@std@@QEAA@$$QEAU01@@Z DD imagerel $LN7@pair
	DD	imagerel $LN7@pair+55
	DD	imagerel $unwind$??0?$pair@$$CBV?$basic_string@DU?$char_traits@D@std@@V?$allocator@D@2@@std@@VcPhysicsObjectTypes@@@std@@QEAA@$$QEAU01@@Z
pdata	ENDS
;	COMDAT pdata
pdata	SEGMENT
$pdata$??$_Copy_nodes@$0A@@?$_Tree@V?$_Tmap_traits@V?$basic_string@DU?$char_traits@D@std@@V?$allocator@D@2@@std@@U?$vec@$03M$0A@@glm@@U?$less@V?$basic_string@DU?$char_traits@D@std@@V?$allocator@D@2@@std@@@2@V?$allocator@U?$pair@$$CBV?$basic_string@DU?$char_traits@D@std@@V?$allocator@D@2@@std@@U?$vec@$03M$0A@@glm@@@std@@@2@$0A@@std@@@std@@IEAAPEAU?$_Tree_node@U?$pair@$$CBV?$basic_string@DU?$char_traits@D@std@@V?$allocator@D@2@@std@@U?$vec@$03M$0A@@glm@@@std@@PEAX@1@PEAU21@0@Z DD imagerel $LN86@Copy_nodes
	DD	imagerel $LN86@Copy_nodes+207
	DD	imagerel $unwind$??$_Copy_nodes@$0A@@?$_Tree@V?$_Tmap_traits@V?$basic_string@DU?$char_traits@D@std@@V?$allocator@D@2@@std@@U?$vec@$03M$0A@@glm@@U?$less@V?$basic_string@DU?$char_traits@D@std@@V?$allocator@D@2@@std@@@2@V?$allocator@U?$pair@$$CBV?$basic_string@DU?$char_traits@D@std@@V?$allocator@D@2@@std@@U?$vec@$03M$0A@@glm@@@std@@@2@$0A@@std@@@std@@IEAAPEAU?$_Tree_node@U?$pair@$$CBV?$basic_string@DU?$char_traits@D@std@@V?$allocator@D@2@@std@@U?$vec@$03M$0A@@glm@@@std@@PEAX@1@PEAU21@0@Z
pdata	ENDS
;	COMDAT pdata
pdata	SEGMENT
$pdata$??$destroy@U?$pair@$$CBV?$basic_string@DU?$char_traits@D@std@@V?$allocator@D@2@@std@@PEAVcSoftBodyVerlet@@@std@@@?$_Default_allocator_traits@V?$allocator@U?$_Tree_node@U?$pair@$$CBV?$basic_string@DU?$char_traits@D@std@@V?$allocator@D@2@@std@@PEAVcSoftBodyVerlet@@@std@@PEAX@std@@@std@@@std@@SAXAEAV?$allocator@U?$_Tree_node@U?$pair@$$CBV?$basic_string@DU?$char_traits@D@std@@V?$allocator@D@2@@std@@PEAVcSoftBodyVerlet@@@std@@PEAX@std@@@1@QEAU?$pair@$$CBV?$basic_string@DU?$char_traits@D@std@@V?$allocator@D@2@@std@@PEAVcSoftBodyVerlet@@@1@@Z DD imagerel $LN58@destroy
	DD	imagerel $LN58@destroy+95
	DD	imagerel $unwind$??$destroy@U?$pair@$$CBV?$basic_string@DU?$char_traits@D@std@@V?$allocator@D@2@@std@@PEAVcSoftBodyVerlet@@@std@@@?$_Default_allocator_traits@V?$allocator@U?$_Tree_node@U?$pair@$$CBV?$basic_string@DU?$char_traits@D@std@@V?$allocator@D@2@@std@@PEAVcSoftBodyVerlet@@@std@@PEAX@std@@@std@@@std@@SAXAEAV?$allocator@U?$_Tree_node@U?$pair@$$CBV?$basic_string@DU?$char_traits@D@std@@V?$allocator@D@2@@std@@PEAVcSoftBodyVerlet@@@std@@PEAX@std@@@1@QEAU?$pair@$$CBV?$basic_string@DU?$char_traits@D@std@@V?$allocator@D@2@@std@@PEAVcSoftBodyVerlet@@@1@@Z
pdata	ENDS
;	COMDAT pdata
pdata	SEGMENT
$pdata$??$_Copy_memmove@PEAPEAUsParticleThreadData@@PEAPEAU1@@std@@YAPEAPEAUsParticleThreadData@@PEAPEAU1@00@Z DD imagerel $LN6@Copy_memmo
	DD	imagerel $LN6@Copy_memmo+48
	DD	imagerel $unwind$??$_Copy_memmove@PEAPEAUsParticleThreadData@@PEAPEAU1@@std@@YAPEAPEAUsParticleThreadData@@PEAPEAU1@00@Z
pdata	ENDS
;	COMDAT pdata
pdata	SEGMENT
$pdata$??$construct@U?$pair@$$CBV?$basic_string@DU?$char_traits@D@std@@V?$allocator@D@2@@std@@VcPhysicsObjectTypes@@@std@@U12@@?$_Default_allocator_traits@V?$allocator@U?$_Tree_node@U?$pair@$$CBV?$basic_string@DU?$char_traits@D@std@@V?$allocator@D@2@@std@@VcPhysicsObjectTypes@@@std@@PEAX@std@@@std@@@std@@SAXAEAV?$allocator@U?$_Tree_node@U?$pair@$$CBV?$basic_string@DU?$char_traits@D@std@@V?$allocator@D@2@@std@@VcPhysicsObjectTypes@@@std@@PEAX@std@@@1@QEAU?$pair@$$CBV?$basic_string@DU?$char_traits@D@std@@V?$allocator@D@2@@std@@VcPhysicsObjectTypes@@@1@$$QEAU31@@Z DD imagerel $LN9@construct
	DD	imagerel $LN9@construct+63
	DD	imagerel $unwind$??$construct@U?$pair@$$CBV?$basic_string@DU?$char_traits@D@std@@V?$allocator@D@2@@std@@VcPhysicsObjectTypes@@@std@@U12@@?$_Default_allocator_traits@V?$allocator@U?$_Tree_node@U?$pair@$$CBV?$basic_string@DU?$char_traits@D@std@@V?$allocator@D@2@@std@@VcPhysicsObjectTypes@@@std@@PEAX@std@@@std@@@std@@SAXAEAV?$allocator@U?$_Tree_node@U?$pair@$$CBV?$basic_string@DU?$char_traits@D@std@@V?$allocator@D@2@@std@@VcPhysicsObjectTypes@@@std@@PEAX@std@@@1@QEAU?$pair@$$CBV?$basic_string@DU?$char_traits@D@std@@V?$allocator@D@2@@std@@VcPhysicsObjectTypes@@@1@$$QEAU31@@Z
pdata	ENDS
;	COMDAT pdata
pdata	SEGMENT
$pdata$?_Allocate@?$_Alloc_construct_ptr@V?$allocator@U?$_Tree_node@U?$pair@$$CBV?$basic_string@DU?$char_traits@D@std@@V?$allocator@D@2@@std@@VcPhysicsObjectTypes@@@std@@PEAX@std@@@std@@@std@@QEAAXXZ DD imagerel $LN28@Allocate
	DD	imagerel $LN28@Allocate+37
	DD	imagerel $unwind$?_Allocate@?$_Alloc_construct_ptr@V?$allocator@U?$_Tree_node@U?$pair@$$CBV?$basic_string@DU?$char_traits@D@std@@V?$allocator@D@2@@std@@VcPhysicsObjectTypes@@@std@@PEAX@std@@@std@@@std@@QEAAXXZ
pdata	ENDS
;	COMDAT pdata
pdata	SEGMENT
$pdata$?allocate@?$allocator@PEAUsParticleThreadData@@@std@@QEAAPEAPEAUsParticleThreadData@@_K@Z DD imagerel $LN31@allocate
	DD	imagerel $LN31@allocate+112
	DD	imagerel $unwind$?allocate@?$allocator@PEAUsParticleThreadData@@@std@@QEAAPEAPEAUsParticleThreadData@@_K@Z
pdata	ENDS
;	COMDAT pdata
pdata	SEGMENT
$pdata$??0?$_Tree_temp_node_alloc@V?$allocator@U?$_Tree_node@U?$pair@$$CBV?$basic_string@DU?$char_traits@D@std@@V?$allocator@D@2@@std@@VcPhysicsObjectTypes@@@std@@PEAX@std@@@std@@@std@@QEAA@AEAV?$allocator@U?$_Tree_node@U?$pair@$$CBV?$basic_string@DU?$char_traits@D@std@@V?$allocator@D@2@@std@@VcPhysicsObjectTypes@@@std@@PEAX@std@@@1@@Z DD imagerel $LN35@Tree_temp_
	DD	imagerel $LN35@Tree_temp_+45
	DD	imagerel $unwind$??0?$_Tree_temp_node_alloc@V?$allocator@U?$_Tree_node@U?$pair@$$CBV?$basic_string@DU?$char_traits@D@std@@V?$allocator@D@2@@std@@VcPhysicsObjectTypes@@@std@@PEAX@std@@@std@@@std@@QEAA@AEAV?$allocator@U?$_Tree_node@U?$pair@$$CBV?$basic_string@DU?$char_traits@D@std@@V?$allocator@D@2@@std@@VcPhysicsObjectTypes@@@std@@PEAX@std@@@1@@Z
pdata	ENDS
;	COMDAT pdata
pdata	SEGMENT
$pdata$??$_Buyheadnode@V?$allocator@U?$_Tree_node@U?$pair@$$CBV?$basic_string@DU?$char_traits@D@std@@V?$allocator@D@2@@std@@U?$vec@$03M$0A@@glm@@@std@@PEAX@std@@@std@@@?$_Tree_node@U?$pair@$$CBV?$basic_string@DU?$char_traits@D@std@@V?$allocator@D@2@@std@@U?$vec@$03M$0A@@glm@@@std@@PEAX@std@@SAPEAU01@AEAV?$allocator@U?$_Tree_node@U?$pair@$$CBV?$basic_string@DU?$char_traits@D@std@@V?$allocator@D@2@@std@@U?$vec@$03M$0A@@glm@@@std@@PEAX@std@@@1@@Z DD imagerel $LN28@Buyheadnod
	DD	imagerel $LN28@Buyheadnod+36
	DD	imagerel $unwind$??$_Buyheadnode@V?$allocator@U?$_Tree_node@U?$pair@$$CBV?$basic_string@DU?$char_traits@D@std@@V?$allocator@D@2@@std@@U?$vec@$03M$0A@@glm@@@std@@PEAX@std@@@std@@@?$_Tree_node@U?$pair@$$CBV?$basic_string@DU?$char_traits@D@std@@V?$allocator@D@2@@std@@U?$vec@$03M$0A@@glm@@@std@@PEAX@std@@SAPEAU01@AEAV?$allocator@U?$_Tree_node@U?$pair@$$CBV?$basic_string@DU?$char_traits@D@std@@V?$allocator@D@2@@std@@U?$vec@$03M$0A@@glm@@@std@@PEAX@std@@@1@@Z
pdata	ENDS
;	COMDAT pdata
pdata	SEGMENT
$pdata$??$_Copy@$0A@@?$_Tree@V?$_Tmap_traits@V?$basic_string@DU?$char_traits@D@std@@V?$allocator@D@2@@std@@U?$vec@$03M$0A@@glm@@U?$less@V?$basic_string@DU?$char_traits@D@std@@V?$allocator@D@2@@std@@@2@V?$allocator@U?$pair@$$CBV?$basic_string@DU?$char_traits@D@std@@V?$allocator@D@2@@std@@U?$vec@$03M$0A@@glm@@@std@@@2@$0A@@std@@@std@@IEAAXAEBV01@@Z DD imagerel $LN28@Copy
	DD	imagerel $LN28@Copy+164
	DD	imagerel $unwind$??$_Copy@$0A@@?$_Tree@V?$_Tmap_traits@V?$basic_string@DU?$char_traits@D@std@@V?$allocator@D@2@@std@@U?$vec@$03M$0A@@glm@@U?$less@V?$basic_string@DU?$char_traits@D@std@@V?$allocator@D@2@@std@@@2@V?$allocator@U?$pair@$$CBV?$basic_string@DU?$char_traits@D@std@@V?$allocator@D@2@@std@@U?$vec@$03M$0A@@glm@@@std@@@2@$0A@@std@@@std@@IEAAXAEBV01@@Z
pdata	ENDS
;	COMDAT pdata
pdata	SEGMENT
$pdata$??$_Freenode@V?$allocator@U?$_Tree_node@U?$pair@$$CBV?$basic_string@DU?$char_traits@D@std@@V?$allocator@D@2@@std@@PEAVcSoftBodyVerlet@@@std@@PEAX@std@@@std@@@?$_Tree_node@U?$pair@$$CBV?$basic_string@DU?$char_traits@D@std@@V?$allocator@D@2@@std@@PEAVcSoftBodyVerlet@@@std@@PEAX@std@@SAXAEAV?$allocator@U?$_Tree_node@U?$pair@$$CBV?$basic_string@DU?$char_traits@D@std@@V?$allocator@D@2@@std@@PEAVcSoftBodyVerlet@@@std@@PEAX@std@@@1@PEAU01@@Z DD imagerel $LN85@Freenode
	DD	imagerel $LN85@Freenode+109
	DD	imagerel $unwind$??$_Freenode@V?$allocator@U?$_Tree_node@U?$pair@$$CBV?$basic_string@DU?$char_traits@D@std@@V?$allocator@D@2@@std@@PEAVcSoftBodyVerlet@@@std@@PEAX@std@@@std@@@?$_Tree_node@U?$pair@$$CBV?$basic_string@DU?$char_traits@D@std@@V?$allocator@D@2@@std@@PEAVcSoftBodyVerlet@@@std@@PEAX@std@@SAXAEAV?$allocator@U?$_Tree_node@U?$pair@$$CBV?$basic_string@DU?$char_traits@D@std@@V?$allocator@D@2@@std@@PEAVcSoftBodyVerlet@@@std@@PEAX@std@@@1@PEAU01@@Z
pdata	ENDS
;	COMDAT pdata
pdata	SEGMENT
$pdata$??$_Freenode@V?$allocator@U?$_Tree_node@U?$pair@$$CBV?$basic_string@DU?$char_traits@D@std@@V?$allocator@D@2@@std@@PEAVCTextureFromBMP@@@std@@PEAX@std@@@std@@@?$_Tree_node@U?$pair@$$CBV?$basic_string@DU?$char_traits@D@std@@V?$allocator@D@2@@std@@PEAVCTextureFromBMP@@@std@@PEAX@std@@SAXAEAV?$allocator@U?$_Tree_node@U?$pair@$$CBV?$basic_string@DU?$char_traits@D@std@@V?$allocator@D@2@@std@@PEAVCTextureFromBMP@@@std@@PEAX@std@@@1@PEAU01@@Z DD imagerel $LN85@Freenode
	DD	imagerel $LN85@Freenode+109
	DD	imagerel $unwind$??$_Freenode@V?$allocator@U?$_Tree_node@U?$pair@$$CBV?$basic_string@DU?$char_traits@D@std@@V?$allocator@D@2@@std@@PEAVCTextureFromBMP@@@std@@PEAX@std@@@std@@@?$_Tree_node@U?$pair@$$CBV?$basic_string@DU?$char_traits@D@std@@V?$allocator@D@2@@std@@PEAVCTextureFromBMP@@@std@@PEAX@std@@SAXAEAV?$allocator@U?$_Tree_node@U?$pair@$$CBV?$basic_string@DU?$char_traits@D@std@@V?$allocator@D@2@@std@@PEAVCTextureFromBMP@@@std@@PEAX@std@@@1@PEAU01@@Z
pdata	ENDS
;	COMDAT pdata
pdata	SEGMENT
$pdata$??$_Uninitialized_move@PEAPEAUsParticleThreadData@@V?$allocator@PEAUsParticleThreadData@@@std@@@std@@YAPEAPEAUsParticleThreadData@@QEAPEAU1@0PEAPEAU1@AEAV?$allocator@PEAUsParticleThreadData@@@0@@Z DD imagerel $LN21@Uninitiali
	DD	imagerel $LN21@Uninitiali+52
	DD	imagerel $unwind$??$_Uninitialized_move@PEAPEAUsParticleThreadData@@V?$allocator@PEAUsParticleThreadData@@@std@@@std@@YAPEAPEAUsParticleThreadData@@QEAPEAU1@0PEAPEAU1@AEAV?$allocator@PEAUsParticleThreadData@@@0@@Z
pdata	ENDS
;	COMDAT pdata
pdata	SEGMENT
$pdata$??$_Allocate_at_least_helper@V?$allocator@PEAUsParticleThreadData@@@std@@@std@@YAPEAPEAUsParticleThreadData@@AEAV?$allocator@PEAUsParticleThreadData@@@0@AEA_K@Z DD imagerel $LN34@Allocate_a
	DD	imagerel $LN34@Allocate_a+115
	DD	imagerel $unwind$??$_Allocate_at_least_helper@V?$allocator@PEAUsParticleThreadData@@@std@@@std@@YAPEAPEAUsParticleThreadData@@AEAV?$allocator@PEAUsParticleThreadData@@@0@AEA_K@Z
pdata	ENDS
;	COMDAT pdata
pdata	SEGMENT
$pdata$??$?0U?$pair@$$CBV?$basic_string@DU?$char_traits@D@std@@V?$allocator@D@2@@std@@VcPhysicsObjectTypes@@@std@@@?$_Tree_temp_node@V?$allocator@U?$_Tree_node@U?$pair@$$CBV?$basic_string@DU?$char_traits@D@std@@V?$allocator@D@2@@std@@VcPhysicsObjectTypes@@@std@@PEAX@std@@@std@@@std@@QEAA@AEAV?$allocator@U?$_Tree_node@U?$pair@$$CBV?$basic_string@DU?$char_traits@D@std@@V?$allocator@D@2@@std@@VcPhysicsObjectTypes@@@std@@PEAX@std@@@1@PEAU?$_Tree_node@U?$pair@$$CBV?$basic_string@DU?$char_traits@D@std@@V?$allocator@D@2@@std@@VcPhysicsObjectTypes@@@std@@PEAX@1@$$QEAU?$pair@$$CBV?$basic_string@DU?$char_traits@D@std@@V?$allocator@D@2@@std@@VcPhysicsObjectTypes@@@1@@Z DD imagerel $LN49@allocator
	DD	imagerel $LN49@allocator+141
	DD	imagerel $unwind$??$?0U?$pair@$$CBV?$basic_string@DU?$char_traits@D@std@@V?$allocator@D@2@@std@@VcPhysicsObjectTypes@@@std@@@?$_Tree_temp_node@V?$allocator@U?$_Tree_node@U?$pair@$$CBV?$basic_string@DU?$char_traits@D@std@@V?$allocator@D@2@@std@@VcPhysicsObjectTypes@@@std@@PEAX@std@@@std@@@std@@QEAA@AEAV?$allocator@U?$_Tree_node@U?$pair@$$CBV?$basic_string@DU?$char_traits@D@std@@V?$allocator@D@2@@std@@VcPhysicsObjectTypes@@@std@@PEAX@std@@@1@PEAU?$_Tree_node@U?$pair@$$CBV?$basic_string@DU?$char_traits@D@std@@V?$allocator@D@2@@std@@VcPhysicsObjectTypes@@@std@@PEAX@1@$$QEAU?$pair@$$CBV?$basic_string@DU?$char_traits@D@std@@V?$allocator@D@2@@std@@VcPhysicsObjectTypes@@@1@@Z
pdata	ENDS
;	COMDAT pdata
pdata	SEGMENT
$pdata$??$_Lower_bound_duplicate@V?$basic_string@DU?$char_traits@D@std@@V?$allocator@D@2@@std@@@?$_Tree@V?$_Tmap_traits@V?$basic_string@DU?$char_traits@D@std@@V?$allocator@D@2@@std@@VcPhysicsObjectTypes@@U?$less@V?$basic_string@DU?$char_traits@D@std@@V?$allocator@D@2@@std@@@2@V?$allocator@U?$pair@$$CBV?$basic_string@DU?$char_traits@D@std@@V?$allocator@D@2@@std@@VcPhysicsObjectTypes@@@std@@@2@$0A@@std@@@std@@IEBA_NQEAU?$_Tree_node@U?$pair@$$CBV?$basic_string@DU?$char_traits@D@std@@V?$allocator@D@2@@std@@VcPhysicsObjectTypes@@@std@@PEAX@1@AEBV?$basic_string@DU?$char_traits@D@std@@V?$allocator@D@2@@1@@Z DD imagerel $LN48@Lower_boun
	DD	imagerel $LN48@Lower_boun+106
	DD	imagerel $unwind$??$_Lower_bound_duplicate@V?$basic_string@DU?$char_traits@D@std@@V?$allocator@D@2@@std@@@?$_Tree@V?$_Tmap_traits@V?$basic_string@DU?$char_traits@D@std@@V?$allocator@D@2@@std@@VcPhysicsObjectTypes@@U?$less@V?$basic_string@DU?$char_traits@D@std@@V?$allocator@D@2@@std@@@2@V?$allocator@U?$pair@$$CBV?$basic_string@DU?$char_traits@D@std@@V?$allocator@D@2@@std@@VcPhysicsObjectTypes@@@std@@@2@$0A@@std@@@std@@IEBA_NQEAU?$_Tree_node@U?$pair@$$CBV?$basic_string@DU?$char_traits@D@std@@V?$allocator@D@2@@std@@VcPhysicsObjectTypes@@@std@@PEAX@1@AEBV?$basic_string@DU?$char_traits@D@std@@V?$allocator@D@2@@1@@Z
pdata	ENDS
;	COMDAT pdata
pdata	SEGMENT
$pdata$??$_Find_lower_bound@V?$basic_string@DU?$char_traits@D@std@@V?$allocator@D@2@@std@@@?$_Tree@V?$_Tmap_traits@V?$basic_string@DU?$char_traits@D@std@@V?$allocator@D@2@@std@@VcPhysicsObjectTypes@@U?$less@V?$basic_string@DU?$char_traits@D@std@@V?$allocator@D@2@@std@@@2@V?$allocator@U?$pair@$$CBV?$basic_string@DU?$char_traits@D@std@@V?$allocator@D@2@@std@@VcPhysicsObjectTypes@@@std@@@2@$0A@@std@@@std@@IEBA?AU?$_Tree_find_result@PEAU?$_Tree_node@U?$pair@$$CBV?$basic_string@DU?$char_traits@D@std@@V?$allocator@D@2@@std@@VcPhysicsObjectTypes@@@std@@PEAX@std@@@1@AEBV?$basic_string@DU?$char_traits@D@std@@V?$allocator@D@2@@1@@Z DD imagerel $LN54@Find_lower
	DD	imagerel $LN54@Find_lower+57
	DD	imagerel $unwind$??$_Find_lower_bound@V?$basic_string@DU?$char_traits@D@std@@V?$allocator@D@2@@std@@@?$_Tree@V?$_Tmap_traits@V?$basic_string@DU?$char_traits@D@std@@V?$allocator@D@2@@std@@VcPhysicsObjectTypes@@U?$less@V?$basic_string@DU?$char_traits@D@std@@V?$allocator@D@2@@std@@@2@V?$allocator@U?$pair@$$CBV?$basic_string@DU?$char_traits@D@std@@V?$allocator@D@2@@std@@VcPhysicsObjectTypes@@@std@@@2@$0A@@std@@@std@@IEBA?AU?$_Tree_find_result@PEAU?$_Tree_node@U?$pair@$$CBV?$basic_string@DU?$char_traits@D@std@@V?$allocator@D@2@@std@@VcPhysicsObjectTypes@@@std@@PEAX@std@@@1@AEBV?$basic_string@DU?$char_traits@D@std@@V?$allocator@D@2@@1@@Z
pdata	ENDS
;	COMDAT pdata
pdata	SEGMENT
$pdata$1$??$_Find_lower_bound@V?$basic_string@DU?$char_traits@D@std@@V?$allocator@D@2@@std@@@?$_Tree@V?$_Tmap_traits@V?$basic_string@DU?$char_traits@D@std@@V?$allocator@D@2@@std@@VcPhysicsObjectTypes@@U?$less@V?$basic_string@DU?$char_traits@D@std@@V?$allocator@D@2@@std@@@2@V?$allocator@U?$pair@$$CBV?$basic_string@DU?$char_traits@D@std@@V?$allocator@D@2@@std@@VcPhysicsObjectTypes@@@std@@@2@$0A@@std@@@std@@IEBA?AU?$_Tree_find_result@PEAU?$_Tree_node@U?$pair@$$CBV?$basic_string@DU?$char_traits@D@std@@V?$allocator@D@2@@std@@VcPhysicsObjectTypes@@@std@@PEAX@std@@@1@AEBV?$basic_string@DU?$char_traits@D@std@@V?$allocator@D@2@@1@@Z DD imagerel $LN54@Find_lower+57
	DD	imagerel $LN54@Find_lower+151
	DD	imagerel $chain$1$??$_Find_lower_bound@V?$basic_string@DU?$char_traits@D@std@@V?$allocator@D@2@@std@@@?$_Tree@V?$_Tmap_traits@V?$basic_string@DU?$char_traits@D@std@@V?$allocator@D@2@@std@@VcPhysicsObjectTypes@@U?$less@V?$basic_string@DU?$char_traits@D@std@@V?$allocator@D@2@@std@@@2@V?$allocator@U?$pair@$$CBV?$basic_string@DU?$char_traits@D@std@@V?$allocator@D@2@@std@@VcPhysicsObjectTypes@@@std@@@2@$0A@@std@@@std@@IEBA?AU?$_Tree_find_result@PEAU?$_Tree_node@U?$pair@$$CBV?$basic_string@DU?$char_traits@D@std@@V?$allocator@D@2@@std@@VcPhysicsObjectTypes@@@std@@PEAX@std@@@1@AEBV?$basic_string@DU?$char_traits@D@std@@V?$allocator@D@2@@1@@Z
pdata	ENDS
;	COMDAT pdata
pdata	SEGMENT
$pdata$2$??$_Find_lower_bound@V?$basic_string@DU?$char_traits@D@std@@V?$allocator@D@2@@std@@@?$_Tree@V?$_Tmap_traits@V?$basic_string@DU?$char_traits@D@std@@V?$allocator@D@2@@std@@VcPhysicsObjectTypes@@U?$less@V?$basic_string@DU?$char_traits@D@std@@V?$allocator@D@2@@std@@@2@V?$allocator@U?$pair@$$CBV?$basic_string@DU?$char_traits@D@std@@V?$allocator@D@2@@std@@VcPhysicsObjectTypes@@@std@@@2@$0A@@std@@@std@@IEBA?AU?$_Tree_find_result@PEAU?$_Tree_node@U?$pair@$$CBV?$basic_string@DU?$char_traits@D@std@@V?$allocator@D@2@@std@@VcPhysicsObjectTypes@@@std@@PEAX@std@@@1@AEBV?$basic_string@DU?$char_traits@D@std@@V?$allocator@D@2@@1@@Z DD imagerel $LN54@Find_lower+151
	DD	imagerel $LN54@Find_lower+168
	DD	imagerel $chain$2$??$_Find_lower_bound@V?$basic_string@DU?$char_traits@D@std@@V?$allocator@D@2@@std@@@?$_Tree@V?$_Tmap_traits@V?$basic_string@DU?$char_traits@D@std@@V?$allocator@D@2@@std@@VcPhysicsObjectTypes@@U?$less@V?$basic_string@DU?$char_traits@D@std@@V?$allocator@D@2@@std@@@2@V?$allocator@U?$pair@$$CBV?$basic_string@DU?$char_traits@D@std@@V?$allocator@D@2@@std@@VcPhysicsObjectTypes@@@std@@@2@$0A@@std@@@std@@IEBA?AU?$_Tree_find_result@PEAU?$_Tree_node@U?$pair@$$CBV?$basic_string@DU?$char_traits@D@std@@V?$allocator@D@2@@std@@VcPhysicsObjectTypes@@@std@@PEAX@std@@@1@AEBV?$basic_string@DU?$char_traits@D@std@@V?$allocator@D@2@@1@@Z
pdata	ENDS
;	COMDAT pdata
pdata	SEGMENT
$pdata$3$??$_Find_lower_bound@V?$basic_string@DU?$char_traits@D@std@@V?$allocator@D@2@@std@@@?$_Tree@V?$_Tmap_traits@V?$basic_string@DU?$char_traits@D@std@@V?$allocator@D@2@@std@@VcPhysicsObjectTypes@@U?$less@V?$basic_string@DU?$char_traits@D@std@@V?$allocator@D@2@@std@@@2@V?$allocator@U?$pair@$$CBV?$basic_string@DU?$char_traits@D@std@@V?$allocator@D@2@@std@@VcPhysicsObjectTypes@@@std@@@2@$0A@@std@@@std@@IEBA?AU?$_Tree_find_result@PEAU?$_Tree_node@U?$pair@$$CBV?$basic_string@DU?$char_traits@D@std@@V?$allocator@D@2@@std@@VcPhysicsObjectTypes@@@std@@PEAX@std@@@1@AEBV?$basic_string@DU?$char_traits@D@std@@V?$allocator@D@2@@1@@Z DD imagerel $LN54@Find_lower+168
	DD	imagerel $LN54@Find_lower+189
	DD	imagerel $chain$3$??$_Find_lower_bound@V?$basic_string@DU?$char_traits@D@std@@V?$allocator@D@2@@std@@@?$_Tree@V?$_Tmap_traits@V?$basic_string@DU?$char_traits@D@std@@V?$allocator@D@2@@std@@VcPhysicsObjectTypes@@U?$less@V?$basic_string@DU?$char_traits@D@std@@V?$allocator@D@2@@std@@@2@V?$allocator@U?$pair@$$CBV?$basic_string@DU?$char_traits@D@std@@V?$allocator@D@2@@std@@VcPhysicsObjectTypes@@@std@@@2@$0A@@std@@@std@@IEBA?AU?$_Tree_find_result@PEAU?$_Tree_node@U?$pair@$$CBV?$basic_string@DU?$char_traits@D@std@@V?$allocator@D@2@@std@@VcPhysicsObjectTypes@@@std@@PEAX@std@@@1@AEBV?$basic_string@DU?$char_traits@D@std@@V?$allocator@D@2@@1@@Z
pdata	ENDS
;	COMDAT pdata
pdata	SEGMENT
$pdata$?_Change_array@?$vector@PEAUsParticleThreadData@@V?$allocator@PEAUsParticleThreadData@@@std@@@std@@AEAAXQEAPEAUsParticleThreadData@@_K1@Z DD imagerel $LN31@Change_arr
	DD	imagerel $LN31@Change_arr+140
	DD	imagerel $unwind$?_Change_array@?$vector@PEAUsParticleThreadData@@V?$allocator@PEAUsParticleThreadData@@@std@@@std@@AEAAXQEAPEAUsParticleThreadData@@_K1@Z
pdata	ENDS
;	COMDAT pdata
pdata	SEGMENT
$pdata$?_Xlength@?$vector@PEAUsParticleThreadData@@V?$allocator@PEAUsParticleThreadData@@@std@@@std@@CAXXZ DD imagerel $LN4@Xlength
	DD	imagerel $LN4@Xlength+18
	DD	imagerel $unwind$?_Xlength@?$vector@PEAUsParticleThreadData@@V?$allocator@PEAUsParticleThreadData@@@std@@@std@@CAXXZ
pdata	ENDS
;	COMDAT pdata
pdata	SEGMENT
$pdata$?_Check_grow_by_1@?$_Tree@V?$_Tmap_traits@V?$basic_string@DU?$char_traits@D@std@@V?$allocator@D@2@@std@@VcPhysicsObjectTypes@@U?$less@V?$basic_string@DU?$char_traits@D@std@@V?$allocator@D@2@@std@@@2@V?$allocator@U?$pair@$$CBV?$basic_string@DU?$char_traits@D@std@@V?$allocator@D@2@@std@@VcPhysicsObjectTypes@@@std@@@2@$0A@@std@@@std@@IEAAXXZ DD imagerel $LN7@Check_grow
	DD	imagerel $LN7@Check_grow+34
	DD	imagerel $unwind$?_Check_grow_by_1@?$_Tree@V?$_Tmap_traits@V?$basic_string@DU?$char_traits@D@std@@V?$allocator@D@2@@std@@VcPhysicsObjectTypes@@U?$less@V?$basic_string@DU?$char_traits@D@std@@V?$allocator@D@2@@std@@@2@V?$allocator@U?$pair@$$CBV?$basic_string@DU?$char_traits@D@std@@V?$allocator@D@2@@std@@VcPhysicsObjectTypes@@@std@@@2@$0A@@std@@@std@@IEAAXXZ
pdata	ENDS
;	COMDAT pdata
pdata	SEGMENT
$pdata$??1?$_Tree_temp_node@V?$allocator@U?$_Tree_node@U?$pair@$$CBV?$basic_string@DU?$char_traits@D@std@@V?$allocator@D@2@@std@@VcPhysicsObjectTypes@@@std@@PEAX@std@@@std@@@std@@QEAA@XZ DD imagerel $LN46@Tree_temp_
	DD	imagerel $LN46@Tree_temp_+57
	DD	imagerel $unwind$??1?$_Tree_temp_node@V?$allocator@U?$_Tree_node@U?$pair@$$CBV?$basic_string@DU?$char_traits@D@std@@V?$allocator@D@2@@std@@VcPhysicsObjectTypes@@@std@@PEAX@std@@@std@@@std@@QEAA@XZ
pdata	ENDS
;	COMDAT pdata
pdata	SEGMENT
$pdata$??1_Reallocation_guard@?$vector@PEAUsParticleThreadData@@V?$allocator@PEAUsParticleThreadData@@@std@@@std@@QEAA@XZ DD imagerel $LN28@Reallocati
	DD	imagerel $LN28@Reallocati+78
	DD	imagerel $unwind$??1_Reallocation_guard@?$vector@PEAUsParticleThreadData@@V?$allocator@PEAUsParticleThreadData@@@std@@@std@@QEAA@XZ
pdata	ENDS
;	COMDAT pdata
pdata	SEGMENT
$pdata$??0?$_Tree_head_scoped_ptr@V?$allocator@U?$_Tree_node@U?$pair@$$CBV?$basic_string@DU?$char_traits@D@std@@V?$allocator@D@2@@std@@U?$vec@$03M$0A@@glm@@@std@@PEAX@std@@@std@@V?$_Tree_val@U?$_Tree_simple_types@U?$pair@$$CBV?$basic_string@DU?$char_traits@D@std@@V?$allocator@D@2@@std@@U?$vec@$03M$0A@@glm@@@std@@@std@@@2@@std@@QEAA@AEAV?$allocator@U?$_Tree_node@U?$pair@$$CBV?$basic_string@DU?$char_traits@D@std@@V?$allocator@D@2@@std@@U?$vec@$03M$0A@@glm@@@std@@PEAX@std@@@1@AEAV?$_Tree_val@U?$_Tree_simple_types@U?$pair@$$CBV?$basic_string@DU?$char_traits@D@std@@V?$allocator@D@2@@std@@U?$vec@$03M$0A@@glm@@@std@@@std@@@1@@Z DD imagerel $LN31@Tree_head_
	DD	imagerel $LN31@Tree_head_+59
	DD	imagerel $unwind$??0?$_Tree_head_scoped_ptr@V?$allocator@U?$_Tree_node@U?$pair@$$CBV?$basic_string@DU?$char_traits@D@std@@V?$allocator@D@2@@std@@U?$vec@$03M$0A@@glm@@@std@@PEAX@std@@@std@@V?$_Tree_val@U?$_Tree_simple_types@U?$pair@$$CBV?$basic_string@DU?$char_traits@D@std@@V?$allocator@D@2@@std@@U?$vec@$03M$0A@@glm@@@std@@@std@@@2@@std@@QEAA@AEAV?$allocator@U?$_Tree_node@U?$pair@$$CBV?$basic_string@DU?$char_traits@D@std@@V?$allocator@D@2@@std@@U?$vec@$03M$0A@@glm@@@std@@PEAX@std@@@1@AEAV?$_Tree_val@U?$_Tree_simple_types@U?$pair@$$CBV?$basic_string@DU?$char_traits@D@std@@V?$allocator@D@2@@std@@U?$vec@$03M$0A@@glm@@@std@@@std@@@1@@Z
pdata	ENDS
;	COMDAT pdata
pdata	SEGMENT
$pdata$??1?$_Tree_head_scoped_ptr@V?$allocator@U?$_Tree_node@U?$pair@$$CBV?$basic_string@DU?$char_traits@D@std@@V?$allocator@D@2@@std@@U?$vec@$03M$0A@@glm@@@std@@PEAX@std@@@std@@V?$_Tree_val@U?$_Tree_simple_types@U?$pair@$$CBV?$basic_string@DU?$char_traits@D@std@@V?$allocator@D@2@@std@@U?$vec@$03M$0A@@glm@@@std@@@std@@@2@@std@@QEAA@XZ DD imagerel $LN36@Tree_head_
	DD	imagerel $LN36@Tree_head_+57
	DD	imagerel $unwind$??1?$_Tree_head_scoped_ptr@V?$allocator@U?$_Tree_node@U?$pair@$$CBV?$basic_string@DU?$char_traits@D@std@@V?$allocator@D@2@@std@@U?$vec@$03M$0A@@glm@@@std@@PEAX@std@@@std@@V?$_Tree_val@U?$_Tree_simple_types@U?$pair@$$CBV?$basic_string@DU?$char_traits@D@std@@V?$allocator@D@2@@std@@U?$vec@$03M$0A@@glm@@@std@@@std@@@2@@std@@QEAA@XZ
pdata	ENDS
;	COMDAT pdata
pdata	SEGMENT
$pdata$??$?0V?$allocator@U?$_Tree_node@U?$pair@$$CBV?$basic_string@DU?$char_traits@D@std@@V?$allocator@D@2@@std@@U?$vec@$03M$0A@@glm@@@std@@PEAX@std@@@std@@@?$_Tree@V?$_Tmap_traits@V?$basic_string@DU?$char_traits@D@std@@V?$allocator@D@2@@std@@U?$vec@$03M$0A@@glm@@U?$less@V?$basic_string@DU?$char_traits@D@std@@V?$allocator@D@2@@std@@@2@V?$allocator@U?$pair@$$CBV?$basic_string@DU?$char_traits@D@std@@V?$allocator@D@2@@std@@U?$vec@$03M$0A@@glm@@@std@@@2@$0A@@std@@@std@@QEAA@AEBV01@$$QEAV?$allocator@U?$_Tree_node@U?$pair@$$CBV?$basic_string@DU?$char_traits@D@std@@V?$allocator@D@2@@std@@U?$vec@$03M$0A@@glm@@@std@@PEAX@std@@@1@@Z DD imagerel $LN100@vec
	DD	imagerel $LN100@vec+206
	DD	imagerel $unwind$??$?0V?$allocator@U?$_Tree_node@U?$pair@$$CBV?$basic_string@DU?$char_traits@D@std@@V?$allocator@D@2@@std@@U?$vec@$03M$0A@@glm@@@std@@PEAX@std@@@std@@@?$_Tree@V?$_Tmap_traits@V?$basic_string@DU?$char_traits@D@std@@V?$allocator@D@2@@std@@U?$vec@$03M$0A@@glm@@U?$less@V?$basic_string@DU?$char_traits@D@std@@V?$allocator@D@2@@std@@@2@V?$allocator@U?$pair@$$CBV?$basic_string@DU?$char_traits@D@std@@V?$allocator@D@2@@std@@U?$vec@$03M$0A@@glm@@@std@@@2@$0A@@std@@@std@@QEAA@AEBV01@$$QEAV?$allocator@U?$_Tree_node@U?$pair@$$CBV?$basic_string@DU?$char_traits@D@std@@V?$allocator@D@2@@std@@U?$vec@$03M$0A@@glm@@@std@@PEAX@std@@@1@@Z
pdata	ENDS
;	COMDAT pdata
pdata	SEGMENT
$pdata$??$_Erase_tree@V?$allocator@U?$_Tree_node@U?$pair@$$CBV?$basic_string@DU?$char_traits@D@std@@V?$allocator@D@2@@std@@PEAVcSoftBodyVerlet@@@std@@PEAX@std@@@std@@@?$_Tree_val@U?$_Tree_simple_types@U?$pair@$$CBV?$basic_string@DU?$char_traits@D@std@@V?$allocator@D@2@@std@@PEAVcSoftBodyVerlet@@@std@@@std@@@std@@QEAAXAEAV?$allocator@U?$_Tree_node@U?$pair@$$CBV?$basic_string@DU?$char_traits@D@std@@V?$allocator@D@2@@std@@PEAVcSoftBodyVerlet@@@std@@PEAX@std@@@1@PEAU?$_Tree_node@U?$pair@$$CBV?$basic_string@DU?$char_traits@D@std@@V?$allocator@D@2@@std@@PEAVcSoftBodyVerlet@@@std@@PEAX@1@@Z DD imagerel $LN102@Erase_tree
	DD	imagerel $LN102@Erase_tree+28
	DD	imagerel $unwind$??$_Erase_tree@V?$allocator@U?$_Tree_node@U?$pair@$$CBV?$basic_string@DU?$char_traits@D@std@@V?$allocator@D@2@@std@@PEAVcSoftBodyVerlet@@@std@@PEAX@std@@@std@@@?$_Tree_val@U?$_Tree_simple_types@U?$pair@$$CBV?$basic_string@DU?$char_traits@D@std@@V?$allocator@D@2@@std@@PEAVcSoftBodyVerlet@@@std@@@std@@@std@@QEAAXAEAV?$allocator@U?$_Tree_node@U?$pair@$$CBV?$basic_string@DU?$char_traits@D@std@@V?$allocator@D@2@@std@@PEAVcSoftBodyVerlet@@@std@@PEAX@std@@@1@PEAU?$_Tree_node@U?$pair@$$CBV?$basic_string@DU?$char_traits@D@std@@V?$allocator@D@2@@std@@PEAVcSoftBodyVerlet@@@std@@PEAX@1@@Z
pdata	ENDS
;	COMDAT pdata
pdata	SEGMENT
$pdata$1$??$_Erase_tree@V?$allocator@U?$_Tree_node@U?$pair@$$CBV?$basic_string@DU?$char_traits@D@std@@V?$allocator@D@2@@std@@PEAVcSoftBodyVerlet@@@std@@PEAX@std@@@std@@@?$_Tree_val@U?$_Tree_simple_types@U?$pair@$$CBV?$basic_string@DU?$char_traits@D@std@@V?$allocator@D@2@@std@@PEAVcSoftBodyVerlet@@@std@@@std@@@std@@QEAAXAEAV?$allocator@U?$_Tree_node@U?$pair@$$CBV?$basic_string@DU?$char_traits@D@std@@V?$allocator@D@2@@std@@PEAVcSoftBodyVerlet@@@std@@PEAX@std@@@1@PEAU?$_Tree_node@U?$pair@$$CBV?$basic_string@DU?$char_traits@D@std@@V?$allocator@D@2@@std@@PEAVcSoftBodyVerlet@@@std@@PEAX@1@@Z DD imagerel $LN102@Erase_tree+28
	DD	imagerel $LN102@Erase_tree+169
	DD	imagerel $chain$1$??$_Erase_tree@V?$allocator@U?$_Tree_node@U?$pair@$$CBV?$basic_string@DU?$char_traits@D@std@@V?$allocator@D@2@@std@@PEAVcSoftBodyVerlet@@@std@@PEAX@std@@@std@@@?$_Tree_val@U?$_Tree_simple_types@U?$pair@$$CBV?$basic_string@DU?$char_traits@D@std@@V?$allocator@D@2@@std@@PEAVcSoftBodyVerlet@@@std@@@std@@@std@@QEAAXAEAV?$allocator@U?$_Tree_node@U?$pair@$$CBV?$basic_string@DU?$char_traits@D@std@@V?$allocator@D@2@@std@@PEAVcSoftBodyVerlet@@@std@@PEAX@std@@@1@PEAU?$_Tree_node@U?$pair@$$CBV?$basic_string@DU?$char_traits@D@std@@V?$allocator@D@2@@std@@PEAVcSoftBodyVerlet@@@std@@PEAX@1@@Z
pdata	ENDS
;	COMDAT pdata
pdata	SEGMENT
$pdata$2$??$_Erase_tree@V?$allocator@U?$_Tree_node@U?$pair@$$CBV?$basic_string@DU?$char_traits@D@std@@V?$allocator@D@2@@std@@PEAVcSoftBodyVerlet@@@std@@PEAX@std@@@std@@@?$_Tree_val@U?$_Tree_simple_types@U?$pair@$$CBV?$basic_string@DU?$char_traits@D@std@@V?$allocator@D@2@@std@@PEAVcSoftBodyVerlet@@@std@@@std@@@std@@QEAAXAEAV?$allocator@U?$_Tree_node@U?$pair@$$CBV?$basic_string@DU?$char_traits@D@std@@V?$allocator@D@2@@std@@PEAVcSoftBodyVerlet@@@std@@PEAX@std@@@1@PEAU?$_Tree_node@U?$pair@$$CBV?$basic_string@DU?$char_traits@D@std@@V?$allocator@D@2@@std@@PEAVcSoftBodyVerlet@@@std@@PEAX@1@@Z DD imagerel $LN102@Erase_tree+169
	DD	imagerel $LN102@Erase_tree+177
	DD	imagerel $chain$2$??$_Erase_tree@V?$allocator@U?$_Tree_node@U?$pair@$$CBV?$basic_string@DU?$char_traits@D@std@@V?$allocator@D@2@@std@@PEAVcSoftBodyVerlet@@@std@@PEAX@std@@@std@@@?$_Tree_val@U?$_Tree_simple_types@U?$pair@$$CBV?$basic_string@DU?$char_traits@D@std@@V?$allocator@D@2@@std@@PEAVcSoftBodyVerlet@@@std@@@std@@@std@@QEAAXAEAV?$allocator@U?$_Tree_node@U?$pair@$$CBV?$basic_string@DU?$char_traits@D@std@@V?$allocator@D@2@@std@@PEAVcSoftBodyVerlet@@@std@@PEAX@std@@@1@PEAU?$_Tree_node@U?$pair@$$CBV?$basic_string@DU?$char_traits@D@std@@V?$allocator@D@2@@std@@PEAVcSoftBodyVerlet@@@std@@PEAX@1@@Z
pdata	ENDS
;	COMDAT pdata
pdata	SEGMENT
$pdata$3$??$_Erase_tree@V?$allocator@U?$_Tree_node@U?$pair@$$CBV?$basic_string@DU?$char_traits@D@std@@V?$allocator@D@2@@std@@PEAVcSoftBodyVerlet@@@std@@PEAX@std@@@std@@@?$_Tree_val@U?$_Tree_simple_types@U?$pair@$$CBV?$basic_string@DU?$char_traits@D@std@@V?$allocator@D@2@@std@@PEAVcSoftBodyVerlet@@@std@@@std@@@std@@QEAAXAEAV?$allocator@U?$_Tree_node@U?$pair@$$CBV?$basic_string@DU?$char_traits@D@std@@V?$allocator@D@2@@std@@PEAVcSoftBodyVerlet@@@std@@PEAX@std@@@1@PEAU?$_Tree_node@U?$pair@$$CBV?$basic_string@DU?$char_traits@D@std@@V?$allocator@D@2@@std@@PEAVcSoftBodyVerlet@@@std@@PEAX@1@@Z DD imagerel $LN102@Erase_tree+177
	DD	imagerel $LN102@Erase_tree+184
	DD	imagerel $chain$3$??$_Erase_tree@V?$allocator@U?$_Tree_node@U?$pair@$$CBV?$basic_string@DU?$char_traits@D@std@@V?$allocator@D@2@@std@@PEAVcSoftBodyVerlet@@@std@@PEAX@std@@@std@@@?$_Tree_val@U?$_Tree_simple_types@U?$pair@$$CBV?$basic_string@DU?$char_traits@D@std@@V?$allocator@D@2@@std@@PEAVcSoftBodyVerlet@@@std@@@std@@@std@@QEAAXAEAV?$allocator@U?$_Tree_node@U?$pair@$$CBV?$basic_string@DU?$char_traits@D@std@@V?$allocator@D@2@@std@@PEAVcSoftBodyVerlet@@@std@@PEAX@std@@@1@PEAU?$_Tree_node@U?$pair@$$CBV?$basic_string@DU?$char_traits@D@std@@V?$allocator@D@2@@std@@PEAVcSoftBodyVerlet@@@std@@PEAX@1@@Z
pdata	ENDS
;	COMDAT pdata
pdata	SEGMENT
$pdata$??$_Erase_tree@V?$allocator@U?$_Tree_node@U?$pair@$$CB_KPEAVcBroad_Cube@cPhysics@@@std@@PEAX@std@@@std@@@?$_Tree_val@U?$_Tree_simple_types@U?$pair@$$CB_KPEAVcBroad_Cube@cPhysics@@@std@@@std@@@std@@QEAAXAEAV?$allocator@U?$_Tree_node@U?$pair@$$CB_KPEAVcBroad_Cube@cPhysics@@@std@@PEAX@std@@@1@PEAU?$_Tree_node@U?$pair@$$CB_KPEAVcBroad_Cube@cPhysics@@@std@@PEAX@1@@Z DD imagerel $LN45@Erase_tree
	DD	imagerel $LN45@Erase_tree+77
	DD	imagerel $unwind$??$_Erase_tree@V?$allocator@U?$_Tree_node@U?$pair@$$CB_KPEAVcBroad_Cube@cPhysics@@@std@@PEAX@std@@@std@@@?$_Tree_val@U?$_Tree_simple_types@U?$pair@$$CB_KPEAVcBroad_Cube@cPhysics@@@std@@@std@@@std@@QEAAXAEAV?$allocator@U?$_Tree_node@U?$pair@$$CB_KPEAVcBroad_Cube@cPhysics@@@std@@PEAX@std@@@1@PEAU?$_Tree_node@U?$pair@$$CB_KPEAVcBroad_Cube@cPhysics@@@std@@PEAX@1@@Z
pdata	ENDS
;	COMDAT pdata
pdata	SEGMENT
$pdata$??$_Erase_tree@V?$allocator@U?$_Tree_node@U?$pair@$$CBV?$basic_string@DU?$char_traits@D@std@@V?$allocator@D@2@@std@@PEAVCTextureFromBMP@@@std@@PEAX@std@@@std@@@?$_Tree_val@U?$_Tree_simple_types@U?$pair@$$CBV?$basic_string@DU?$char_traits@D@std@@V?$allocator@D@2@@std@@PEAVCTextureFromBMP@@@std@@@std@@@std@@QEAAXAEAV?$allocator@U?$_Tree_node@U?$pair@$$CBV?$basic_string@DU?$char_traits@D@std@@V?$allocator@D@2@@std@@PEAVCTextureFromBMP@@@std@@PEAX@std@@@1@PEAU?$_Tree_node@U?$pair@$$CBV?$basic_string@DU?$char_traits@D@std@@V?$allocator@D@2@@std@@PEAVCTextureFromBMP@@@std@@PEAX@1@@Z DD imagerel $LN102@Erase_tree
	DD	imagerel $LN102@Erase_tree+28
	DD	imagerel $unwind$??$_Erase_tree@V?$allocator@U?$_Tree_node@U?$pair@$$CBV?$basic_string@DU?$char_traits@D@std@@V?$allocator@D@2@@std@@PEAVCTextureFromBMP@@@std@@PEAX@std@@@std@@@?$_Tree_val@U?$_Tree_simple_types@U?$pair@$$CBV?$basic_string@DU?$char_traits@D@std@@V?$allocator@D@2@@std@@PEAVCTextureFromBMP@@@std@@@std@@@std@@QEAAXAEAV?$allocator@U?$_Tree_node@U?$pair@$$CBV?$basic_string@DU?$char_traits@D@std@@V?$allocator@D@2@@std@@PEAVCTextureFromBMP@@@std@@PEAX@std@@@1@PEAU?$_Tree_node@U?$pair@$$CBV?$basic_string@DU?$char_traits@D@std@@V?$allocator@D@2@@std@@PEAVCTextureFromBMP@@@std@@PEAX@1@@Z
pdata	ENDS
;	COMDAT pdata
pdata	SEGMENT
$pdata$1$??$_Erase_tree@V?$allocator@U?$_Tree_node@U?$pair@$$CBV?$basic_string@DU?$char_traits@D@std@@V?$allocator@D@2@@std@@PEAVCTextureFromBMP@@@std@@PEAX@std@@@std@@@?$_Tree_val@U?$_Tree_simple_types@U?$pair@$$CBV?$basic_string@DU?$char_traits@D@std@@V?$allocator@D@2@@std@@PEAVCTextureFromBMP@@@std@@@std@@@std@@QEAAXAEAV?$allocator@U?$_Tree_node@U?$pair@$$CBV?$basic_string@DU?$char_traits@D@std@@V?$allocator@D@2@@std@@PEAVCTextureFromBMP@@@std@@PEAX@std@@@1@PEAU?$_Tree_node@U?$pair@$$CBV?$basic_string@DU?$char_traits@D@std@@V?$allocator@D@2@@std@@PEAVCTextureFromBMP@@@std@@PEAX@1@@Z DD imagerel $LN102@Erase_tree+28
	DD	imagerel $LN102@Erase_tree+169
	DD	imagerel $chain$1$??$_Erase_tree@V?$allocator@U?$_Tree_node@U?$pair@$$CBV?$basic_string@DU?$char_traits@D@std@@V?$allocator@D@2@@std@@PEAVCTextureFromBMP@@@std@@PEAX@std@@@std@@@?$_Tree_val@U?$_Tree_simple_types@U?$pair@$$CBV?$basic_string@DU?$char_traits@D@std@@V?$allocator@D@2@@std@@PEAVCTextureFromBMP@@@std@@@std@@@std@@QEAAXAEAV?$allocator@U?$_Tree_node@U?$pair@$$CBV?$basic_string@DU?$char_traits@D@std@@V?$allocator@D@2@@std@@PEAVCTextureFromBMP@@@std@@PEAX@std@@@1@PEAU?$_Tree_node@U?$pair@$$CBV?$basic_string@DU?$char_traits@D@std@@V?$allocator@D@2@@std@@PEAVCTextureFromBMP@@@std@@PEAX@1@@Z
pdata	ENDS
;	COMDAT pdata
pdata	SEGMENT
$pdata$2$??$_Erase_tree@V?$allocator@U?$_Tree_node@U?$pair@$$CBV?$basic_string@DU?$char_traits@D@std@@V?$allocator@D@2@@std@@PEAVCTextureFromBMP@@@std@@PEAX@std@@@std@@@?$_Tree_val@U?$_Tree_simple_types@U?$pair@$$CBV?$basic_string@DU?$char_traits@D@std@@V?$allocator@D@2@@std@@PEAVCTextureFromBMP@@@std@@@std@@@std@@QEAAXAEAV?$allocator@U?$_Tree_node@U?$pair@$$CBV?$basic_string@DU?$char_traits@D@std@@V?$allocator@D@2@@std@@PEAVCTextureFromBMP@@@std@@PEAX@std@@@1@PEAU?$_Tree_node@U?$pair@$$CBV?$basic_string@DU?$char_traits@D@std@@V?$allocator@D@2@@std@@PEAVCTextureFromBMP@@@std@@PEAX@1@@Z DD imagerel $LN102@Erase_tree+169
	DD	imagerel $LN102@Erase_tree+177
	DD	imagerel $chain$2$??$_Erase_tree@V?$allocator@U?$_Tree_node@U?$pair@$$CBV?$basic_string@DU?$char_traits@D@std@@V?$allocator@D@2@@std@@PEAVCTextureFromBMP@@@std@@PEAX@std@@@std@@@?$_Tree_val@U?$_Tree_simple_types@U?$pair@$$CBV?$basic_string@DU?$char_traits@D@std@@V?$allocator@D@2@@std@@PEAVCTextureFromBMP@@@std@@@std@@@std@@QEAAXAEAV?$allocator@U?$_Tree_node@U?$pair@$$CBV?$basic_string@DU?$char_traits@D@std@@V?$allocator@D@2@@std@@PEAVCTextureFromBMP@@@std@@PEAX@std@@@1@PEAU?$_Tree_node@U?$pair@$$CBV?$basic_string@DU?$char_traits@D@std@@V?$allocator@D@2@@std@@PEAVCTextureFromBMP@@@std@@PEAX@1@@Z
pdata	ENDS
;	COMDAT pdata
pdata	SEGMENT
$pdata$3$??$_Erase_tree@V?$allocator@U?$_Tree_node@U?$pair@$$CBV?$basic_string@DU?$char_traits@D@std@@V?$allocator@D@2@@std@@PEAVCTextureFromBMP@@@std@@PEAX@std@@@std@@@?$_Tree_val@U?$_Tree_simple_types@U?$pair@$$CBV?$basic_string@DU?$char_traits@D@std@@V?$allocator@D@2@@std@@PEAVCTextureFromBMP@@@std@@@std@@@std@@QEAAXAEAV?$allocator@U?$_Tree_node@U?$pair@$$CBV?$basic_string@DU?$char_traits@D@std@@V?$allocator@D@2@@std@@PEAVCTextureFromBMP@@@std@@PEAX@std@@@1@PEAU?$_Tree_node@U?$pair@$$CBV?$basic_string@DU?$char_traits@D@std@@V?$allocator@D@2@@std@@PEAVCTextureFromBMP@@@std@@PEAX@1@@Z DD imagerel $LN102@Erase_tree+177
	DD	imagerel $LN102@Erase_tree+184
	DD	imagerel $chain$3$??$_Erase_tree@V?$allocator@U?$_Tree_node@U?$pair@$$CBV?$basic_string@DU?$char_traits@D@std@@V?$allocator@D@2@@std@@PEAVCTextureFromBMP@@@std@@PEAX@std@@@std@@@?$_Tree_val@U?$_Tree_simple_types@U?$pair@$$CBV?$basic_string@DU?$char_traits@D@std@@V?$allocator@D@2@@std@@PEAVCTextureFromBMP@@@std@@@std@@@std@@QEAAXAEAV?$allocator@U?$_Tree_node@U?$pair@$$CBV?$basic_string@DU?$char_traits@D@std@@V?$allocator@D@2@@std@@PEAVCTextureFromBMP@@@std@@PEAX@std@@@1@PEAU?$_Tree_node@U?$pair@$$CBV?$basic_string@DU?$char_traits@D@std@@V?$allocator@D@2@@std@@PEAVCTextureFromBMP@@@std@@PEAX@1@@Z
pdata	ENDS
;	COMDAT pdata
pdata	SEGMENT
$pdata$??$_Emplace_reallocate@AEBQEAUsParticleThreadData@@@?$vector@PEAUsParticleThreadData@@V?$allocator@PEAUsParticleThreadData@@@std@@@std@@AEAAPEAPEAUsParticleThreadData@@QEAPEAU2@AEBQEAU2@@Z DD imagerel $LN168@Emplace_re
	DD	imagerel $LN168@Emplace_re+75
	DD	imagerel $unwind$??$_Emplace_reallocate@AEBQEAUsParticleThreadData@@@?$vector@PEAUsParticleThreadData@@V?$allocator@PEAUsParticleThreadData@@@std@@@std@@AEAAPEAPEAUsParticleThreadData@@QEAPEAU2@AEBQEAU2@@Z
pdata	ENDS
;	COMDAT pdata
pdata	SEGMENT
$pdata$2$??$_Emplace_reallocate@AEBQEAUsParticleThreadData@@@?$vector@PEAUsParticleThreadData@@V?$allocator@PEAUsParticleThreadData@@@std@@@std@@AEAAPEAPEAUsParticleThreadData@@QEAPEAU2@AEBQEAU2@@Z DD imagerel $LN168@Emplace_re+75
	DD	imagerel $LN168@Emplace_re+410
	DD	imagerel $chain$2$??$_Emplace_reallocate@AEBQEAUsParticleThreadData@@@?$vector@PEAUsParticleThreadData@@V?$allocator@PEAUsParticleThreadData@@@std@@@std@@AEAAPEAPEAUsParticleThreadData@@QEAPEAU2@AEBQEAU2@@Z
pdata	ENDS
;	COMDAT pdata
pdata	SEGMENT
$pdata$4$??$_Emplace_reallocate@AEBQEAUsParticleThreadData@@@?$vector@PEAUsParticleThreadData@@V?$allocator@PEAUsParticleThreadData@@@std@@@std@@AEAAPEAPEAUsParticleThreadData@@QEAPEAU2@AEBQEAU2@@Z DD imagerel $LN168@Emplace_re+410
	DD	imagerel $LN168@Emplace_re+417
	DD	imagerel $chain$4$??$_Emplace_reallocate@AEBQEAUsParticleThreadData@@@?$vector@PEAUsParticleThreadData@@V?$allocator@PEAUsParticleThreadData@@@std@@@std@@AEAAPEAPEAUsParticleThreadData@@QEAPEAU2@AEBQEAU2@@Z
pdata	ENDS
;	COMDAT pdata
pdata	SEGMENT
$pdata$5$??$_Emplace_reallocate@AEBQEAUsParticleThreadData@@@?$vector@PEAUsParticleThreadData@@V?$allocator@PEAUsParticleThreadData@@@std@@@std@@AEAAPEAPEAUsParticleThreadData@@QEAPEAU2@AEBQEAU2@@Z DD imagerel $LN168@Emplace_re+417
	DD	imagerel $LN168@Emplace_re+423
	DD	imagerel $chain$5$??$_Emplace_reallocate@AEBQEAUsParticleThreadData@@@?$vector@PEAUsParticleThreadData@@V?$allocator@PEAUsParticleThreadData@@@std@@@std@@AEAAPEAPEAUsParticleThreadData@@QEAPEAU2@AEBQEAU2@@Z
pdata	ENDS
;	COMDAT pdata
pdata	SEGMENT
$pdata$6$??$_Emplace_reallocate@AEBQEAUsParticleThreadData@@@?$vector@PEAUsParticleThreadData@@V?$allocator@PEAUsParticleThreadData@@@std@@@std@@AEAAPEAPEAUsParticleThreadData@@QEAPEAU2@AEBQEAU2@@Z DD imagerel $LN168@Emplace_re+423
	DD	imagerel $LN168@Emplace_re+429
	DD	imagerel $chain$6$??$_Emplace_reallocate@AEBQEAUsParticleThreadData@@@?$vector@PEAUsParticleThreadData@@V?$allocator@PEAUsParticleThreadData@@@std@@@std@@AEAAPEAPEAUsParticleThreadData@@QEAPEAU2@AEBQEAU2@@Z
pdata	ENDS
;	COMDAT pdata
pdata	SEGMENT
$pdata$??$_Emplace@U?$pair@$$CBV?$basic_string@DU?$char_traits@D@std@@V?$allocator@D@2@@std@@VcPhysicsObjectTypes@@@std@@@?$_Tree@V?$_Tmap_traits@V?$basic_string@DU?$char_traits@D@std@@V?$allocator@D@2@@std@@VcPhysicsObjectTypes@@U?$less@V?$basic_string@DU?$char_traits@D@std@@V?$allocator@D@2@@std@@@2@V?$allocator@U?$pair@$$CBV?$basic_string@DU?$char_traits@D@std@@V?$allocator@D@2@@std@@VcPhysicsObjectTypes@@@std@@@2@$0A@@std@@@std@@IEAA?AU?$pair@PEAU?$_Tree_node@U?$pair@$$CBV?$basic_string@DU?$char_traits@D@std@@V?$allocator@D@2@@std@@VcPhysicsObjectTypes@@@std@@PEAX@std@@_N@1@$$QEAU?$pair@$$CBV?$basic_string@DU?$char_traits@D@std@@V?$allocator@D@2@@std@@VcPhysicsObjectTypes@@@1@@Z DD imagerel $LN198@Emplace
	DD	imagerel $LN198@Emplace+467
	DD	imagerel $unwind$??$_Emplace@U?$pair@$$CBV?$basic_string@DU?$char_traits@D@std@@V?$allocator@D@2@@std@@VcPhysicsObjectTypes@@@std@@@?$_Tree@V?$_Tmap_traits@V?$basic_string@DU?$char_traits@D@std@@V?$allocator@D@2@@std@@VcPhysicsObjectTypes@@U?$less@V?$basic_string@DU?$char_traits@D@std@@V?$allocator@D@2@@std@@@2@V?$allocator@U?$pair@$$CBV?$basic_string@DU?$char_traits@D@std@@V?$allocator@D@2@@std@@VcPhysicsObjectTypes@@@std@@@2@$0A@@std@@@std@@IEAA?AU?$pair@PEAU?$_Tree_node@U?$pair@$$CBV?$basic_string@DU?$char_traits@D@std@@V?$allocator@D@2@@std@@VcPhysicsObjectTypes@@@std@@PEAX@std@@_N@1@$$QEAU?$pair@$$CBV?$basic_string@DU?$char_traits@D@std@@V?$allocator@D@2@@std@@VcPhysicsObjectTypes@@@1@@Z
pdata	ENDS
;	COMDAT pdata
pdata	SEGMENT
$pdata$??$lookAtRH@M$0A@@glm@@YA?AU?$mat@$03$03M$0A@@0@AEBU?$vec@$02M$0A@@0@00@Z DD imagerel $LN347@lookAtRH
	DD	imagerel $LN347@lookAtRH+733
	DD	imagerel $unwind$??$lookAtRH@M$0A@@glm@@YA?AU?$mat@$03$03M$0A@@0@AEBU?$vec@$02M$0A@@0@00@Z
pdata	ENDS
;	COMDAT pdata
pdata	SEGMENT
$pdata$??0?$map@V?$basic_string@DU?$char_traits@D@std@@V?$allocator@D@2@@std@@U?$vec@$03M$0A@@glm@@U?$less@V?$basic_string@DU?$char_traits@D@std@@V?$allocator@D@2@@std@@@2@V?$allocator@U?$pair@$$CBV?$basic_string@DU?$char_traits@D@std@@V?$allocator@D@2@@std@@U?$vec@$03M$0A@@glm@@@std@@@2@@std@@QEAA@AEBV01@@Z DD imagerel $LN104@map
	DD	imagerel $LN104@map+206
	DD	imagerel $unwind$??0?$map@V?$basic_string@DU?$char_traits@D@std@@V?$allocator@D@2@@std@@U?$vec@$03M$0A@@glm@@U?$less@V?$basic_string@DU?$char_traits@D@std@@V?$allocator@D@2@@std@@@2@V?$allocator@U?$pair@$$CBV?$basic_string@DU?$char_traits@D@std@@V?$allocator@D@2@@std@@U?$vec@$03M$0A@@glm@@@std@@@2@@std@@QEAA@AEBV01@@Z
pdata	ENDS
;	COMDAT pdata
pdata	SEGMENT
$pdata$??$_Buyheadnode@V?$allocator@U?$_Tree_node@U?$pair@$$CBV?$basic_string@DU?$char_traits@D@std@@V?$allocator@D@2@@std@@PEAVcSoftBodyVerlet@@@std@@PEAX@std@@@std@@@?$_Tree_node@U?$pair@$$CBV?$basic_string@DU?$char_traits@D@std@@V?$allocator@D@2@@std@@PEAVcSoftBodyVerlet@@@std@@PEAX@std@@SAPEAU01@AEAV?$allocator@U?$_Tree_node@U?$pair@$$CBV?$basic_string@DU?$char_traits@D@std@@V?$allocator@D@2@@std@@PEAVcSoftBodyVerlet@@@std@@PEAX@std@@@1@@Z DD imagerel $LN31@Buyheadnod
	DD	imagerel $LN31@Buyheadnod+36
	DD	imagerel $unwind$??$_Buyheadnode@V?$allocator@U?$_Tree_node@U?$pair@$$CBV?$basic_string@DU?$char_traits@D@std@@V?$allocator@D@2@@std@@PEAVcSoftBodyVerlet@@@std@@PEAX@std@@@std@@@?$_Tree_node@U?$pair@$$CBV?$basic_string@DU?$char_traits@D@std@@V?$allocator@D@2@@std@@PEAVcSoftBodyVerlet@@@std@@PEAX@std@@SAPEAU01@AEAV?$allocator@U?$_Tree_node@U?$pair@$$CBV?$basic_string@DU?$char_traits@D@std@@V?$allocator@D@2@@std@@PEAVcSoftBodyVerlet@@@std@@PEAX@std@@@1@@Z
pdata	ENDS
;	COMDAT pdata
pdata	SEGMENT
$pdata$??$_Buyheadnode@V?$allocator@U?$_Tree_node@U?$pair@$$CB_KPEAVcBroad_Cube@cPhysics@@@std@@PEAX@std@@@std@@@?$_Tree_node@U?$pair@$$CB_KPEAVcBroad_Cube@cPhysics@@@std@@PEAX@std@@SAPEAU01@AEAV?$allocator@U?$_Tree_node@U?$pair@$$CB_KPEAVcBroad_Cube@cPhysics@@@std@@PEAX@std@@@1@@Z DD imagerel $LN31@Buyheadnod
	DD	imagerel $LN31@Buyheadnod+36
	DD	imagerel $unwind$??$_Buyheadnode@V?$allocator@U?$_Tree_node@U?$pair@$$CB_KPEAVcBroad_Cube@cPhysics@@@std@@PEAX@std@@@std@@@?$_Tree_node@U?$pair@$$CB_KPEAVcBroad_Cube@cPhysics@@@std@@PEAX@std@@SAPEAU01@AEAV?$allocator@U?$_Tree_node@U?$pair@$$CB_KPEAVcBroad_Cube@cPhysics@@@std@@PEAX@std@@@1@@Z
pdata	ENDS
;	COMDAT pdata
pdata	SEGMENT
$pdata$??$_Buyheadnode@V?$allocator@U?$_Tree_node@U?$pair@$$CBV?$basic_string@DU?$char_traits@D@std@@V?$allocator@D@2@@std@@PEAVCTextureFromBMP@@@std@@PEAX@std@@@std@@@?$_Tree_node@U?$pair@$$CBV?$basic_string@DU?$char_traits@D@std@@V?$allocator@D@2@@std@@PEAVCTextureFromBMP@@@std@@PEAX@std@@SAPEAU01@AEAV?$allocator@U?$_Tree_node@U?$pair@$$CBV?$basic_string@DU?$char_traits@D@std@@V?$allocator@D@2@@std@@PEAVCTextureFromBMP@@@std@@PEAX@std@@@1@@Z DD imagerel $LN31@Buyheadnod
	DD	imagerel $LN31@Buyheadnod+36
	DD	imagerel $unwind$??$_Buyheadnode@V?$allocator@U?$_Tree_node@U?$pair@$$CBV?$basic_string@DU?$char_traits@D@std@@V?$allocator@D@2@@std@@PEAVCTextureFromBMP@@@std@@PEAX@std@@@std@@@?$_Tree_node@U?$pair@$$CBV?$basic_string@DU?$char_traits@D@std@@V?$allocator@D@2@@std@@PEAVCTextureFromBMP@@@std@@PEAX@std@@SAPEAU01@AEAV?$allocator@U?$_Tree_node@U?$pair@$$CBV?$basic_string@DU?$char_traits@D@std@@V?$allocator@D@2@@std@@PEAVCTextureFromBMP@@@std@@PEAX@std@@@1@@Z
pdata	ENDS
;	COMDAT pdata
pdata	SEGMENT
$pdata$??$_Erase_head@V?$allocator@U?$_Tree_node@U?$pair@$$CBV?$basic_string@DU?$char_traits@D@std@@V?$allocator@D@2@@std@@PEAVcSoftBodyVerlet@@@std@@PEAX@std@@@std@@@?$_Tree_val@U?$_Tree_simple_types@U?$pair@$$CBV?$basic_string@DU?$char_traits@D@std@@V?$allocator@D@2@@std@@PEAVcSoftBodyVerlet@@@std@@@std@@@std@@QEAAXAEAV?$allocator@U?$_Tree_node@U?$pair@$$CBV?$basic_string@DU?$char_traits@D@std@@V?$allocator@D@2@@std@@PEAVcSoftBodyVerlet@@@std@@PEAX@std@@@1@@Z DD imagerel $LN30@Erase_head
	DD	imagerel $LN30@Erase_head+39
	DD	imagerel $unwind$??$_Erase_head@V?$allocator@U?$_Tree_node@U?$pair@$$CBV?$basic_string@DU?$char_traits@D@std@@V?$allocator@D@2@@std@@PEAVcSoftBodyVerlet@@@std@@PEAX@std@@@std@@@?$_Tree_val@U?$_Tree_simple_types@U?$pair@$$CBV?$basic_string@DU?$char_traits@D@std@@V?$allocator@D@2@@std@@PEAVcSoftBodyVerlet@@@std@@@std@@@std@@QEAAXAEAV?$allocator@U?$_Tree_node@U?$pair@$$CBV?$basic_string@DU?$char_traits@D@std@@V?$allocator@D@2@@std@@PEAVcSoftBodyVerlet@@@std@@PEAX@std@@@1@@Z
pdata	ENDS
;	COMDAT pdata
pdata	SEGMENT
$pdata$??$_Erase_head@V?$allocator@U?$_Tree_node@U?$pair@$$CB_KPEAVcBroad_Cube@cPhysics@@@std@@PEAX@std@@@std@@@?$_Tree_val@U?$_Tree_simple_types@U?$pair@$$CB_KPEAVcBroad_Cube@cPhysics@@@std@@@std@@@std@@QEAAXAEAV?$allocator@U?$_Tree_node@U?$pair@$$CB_KPEAVcBroad_Cube@cPhysics@@@std@@PEAX@std@@@1@@Z DD imagerel $LN73@Erase_head
	DD	imagerel $LN73@Erase_head+113
	DD	imagerel $unwind$??$_Erase_head@V?$allocator@U?$_Tree_node@U?$pair@$$CB_KPEAVcBroad_Cube@cPhysics@@@std@@PEAX@std@@@std@@@?$_Tree_val@U?$_Tree_simple_types@U?$pair@$$CB_KPEAVcBroad_Cube@cPhysics@@@std@@@std@@@std@@QEAAXAEAV?$allocator@U?$_Tree_node@U?$pair@$$CB_KPEAVcBroad_Cube@cPhysics@@@std@@PEAX@std@@@1@@Z
pdata	ENDS
;	COMDAT pdata
pdata	SEGMENT
$pdata$??$_Erase_head@V?$allocator@U?$_Tree_node@U?$pair@$$CBV?$basic_string@DU?$char_traits@D@std@@V?$allocator@D@2@@std@@PEAVCTextureFromBMP@@@std@@PEAX@std@@@std@@@?$_Tree_val@U?$_Tree_simple_types@U?$pair@$$CBV?$basic_string@DU?$char_traits@D@std@@V?$allocator@D@2@@std@@PEAVCTextureFromBMP@@@std@@@std@@@std@@QEAAXAEAV?$allocator@U?$_Tree_node@U?$pair@$$CBV?$basic_string@DU?$char_traits@D@std@@V?$allocator@D@2@@std@@PEAVCTextureFromBMP@@@std@@PEAX@std@@@1@@Z DD imagerel $LN30@Erase_head
	DD	imagerel $LN30@Erase_head+39
	DD	imagerel $unwind$??$_Erase_head@V?$allocator@U?$_Tree_node@U?$pair@$$CBV?$basic_string@DU?$char_traits@D@std@@V?$allocator@D@2@@std@@PEAVCTextureFromBMP@@@std@@PEAX@std@@@std@@@?$_Tree_val@U?$_Tree_simple_types@U?$pair@$$CBV?$basic_string@DU?$char_traits@D@std@@V?$allocator@D@2@@std@@PEAVCTextureFromBMP@@@std@@@std@@@std@@QEAAXAEAV?$allocator@U?$_Tree_node@U?$pair@$$CBV?$basic_string@DU?$char_traits@D@std@@V?$allocator@D@2@@std@@PEAVCTextureFromBMP@@@std@@PEAX@std@@@1@@Z
pdata	ENDS
;	COMDAT pdata
pdata	SEGMENT
$pdata$??$insert@$0A@$0A@@?$_Tree@V?$_Tmap_traits@V?$basic_string@DU?$char_traits@D@std@@V?$allocator@D@2@@std@@VcPhysicsObjectTypes@@U?$less@V?$basic_string@DU?$char_traits@D@std@@V?$allocator@D@2@@std@@@2@V?$allocator@U?$pair@$$CBV?$basic_string@DU?$char_traits@D@std@@V?$allocator@D@2@@std@@VcPhysicsObjectTypes@@@std@@@2@$0A@@std@@@std@@QEAA?AU?$pair@V?$_Tree_iterator@V?$_Tree_val@U?$_Tree_simple_types@U?$pair@$$CBV?$basic_string@DU?$char_traits@D@std@@V?$allocator@D@2@@std@@VcPhysicsObjectTypes@@@std@@@std@@@std@@@std@@_N@1@$$QEAU?$pair@$$CBV?$basic_string@DU?$char_traits@D@std@@V?$allocator@D@2@@std@@VcPhysicsObjectTypes@@@1@@Z DD imagerel $LN17@insert
	DD	imagerel $LN17@insert+44
	DD	imagerel $unwind$??$insert@$0A@$0A@@?$_Tree@V?$_Tmap_traits@V?$basic_string@DU?$char_traits@D@std@@V?$allocator@D@2@@std@@VcPhysicsObjectTypes@@U?$less@V?$basic_string@DU?$char_traits@D@std@@V?$allocator@D@2@@std@@@2@V?$allocator@U?$pair@$$CBV?$basic_string@DU?$char_traits@D@std@@V?$allocator@D@2@@std@@VcPhysicsObjectTypes@@@std@@@2@$0A@@std@@@std@@QEAA?AU?$pair@V?$_Tree_iterator@V?$_Tree_val@U?$_Tree_simple_types@U?$pair@$$CBV?$basic_string@DU?$char_traits@D@std@@V?$allocator@D@2@@std@@VcPhysicsObjectTypes@@@std@@@std@@@std@@@std@@_N@1@$$QEAU?$pair@$$CBV?$basic_string@DU?$char_traits@D@std@@V?$allocator@D@2@@std@@VcPhysicsObjectTypes@@@1@@Z
pdata	ENDS
;	COMDAT pdata
pdata	SEGMENT
$pdata$??0cPhysicsObjectTypes@@QEAA@AEBV0@@Z DD imagerel $LN108@cPhysicsOb
	DD	imagerel $LN108@cPhysicsOb+289
	DD	imagerel $unwind$??0cPhysicsObjectTypes@@QEAA@AEBV0@@Z
pdata	ENDS
;	COMDAT pdata
pdata	SEGMENT
$pdata$??$?0AEAV?$basic_string@DU?$char_traits@D@std@@V?$allocator@D@2@@std@@AEAVcPhysicsObjectTypes@@$0A@@?$pair@$$CBV?$basic_string@DU?$char_traits@D@std@@V?$allocator@D@2@@std@@VcPhysicsObjectTypes@@@std@@QEAA@AEAV?$basic_string@DU?$char_traits@D@std@@V?$allocator@D@2@@1@AEAVcPhysicsObjectTypes@@@Z DD imagerel $LN7@allocator
	DD	imagerel $LN7@allocator+54
	DD	imagerel $unwind$??$?0AEAV?$basic_string@DU?$char_traits@D@std@@V?$allocator@D@2@@std@@AEAVcPhysicsObjectTypes@@$0A@@?$pair@$$CBV?$basic_string@DU?$char_traits@D@std@@V?$allocator@D@2@@std@@VcPhysicsObjectTypes@@@std@@QEAA@AEAV?$basic_string@DU?$char_traits@D@std@@V?$allocator@D@2@@1@AEAVcPhysicsObjectTypes@@@Z
pdata	ENDS
;	COMDAT pdata
pdata	SEGMENT
$pdata$??$lookAt@M$0A@@glm@@YA?AU?$mat@$03$03M$0A@@0@AEBU?$vec@$02M$0A@@0@00@Z DD imagerel $LN4@lookAt
	DD	imagerel $LN4@lookAt+23
	DD	imagerel $unwind$??$lookAt@M$0A@@glm@@YA?AU?$mat@$03$03M$0A@@0@AEBU?$vec@$02M$0A@@0@00@Z
pdata	ENDS
;	COMDAT pdata
pdata	SEGMENT
$pdata$?_Alloc_sentinel_and_proxy@?$_Tree@V?$_Tmap_traits@V?$basic_string@DU?$char_traits@D@std@@V?$allocator@D@2@@std@@PEAVcSoftBodyVerlet@@U?$less@V?$basic_string@DU?$char_traits@D@std@@V?$allocator@D@2@@std@@@2@V?$allocator@U?$pair@$$CBV?$basic_string@DU?$char_traits@D@std@@V?$allocator@D@2@@std@@PEAVcSoftBodyVerlet@@@std@@@2@$0A@@std@@@std@@IEAAXXZ DD imagerel $LN34@Alloc_sent
	DD	imagerel $LN34@Alloc_sent+45
	DD	imagerel $unwind$?_Alloc_sentinel_and_proxy@?$_Tree@V?$_Tmap_traits@V?$basic_string@DU?$char_traits@D@std@@V?$allocator@D@2@@std@@PEAVcSoftBodyVerlet@@U?$less@V?$basic_string@DU?$char_traits@D@std@@V?$allocator@D@2@@std@@@2@V?$allocator@U?$pair@$$CBV?$basic_string@DU?$char_traits@D@std@@V?$allocator@D@2@@std@@PEAVcSoftBodyVerlet@@@std@@@2@$0A@@std@@@std@@IEAAXXZ
pdata	ENDS
;	COMDAT pdata
pdata	SEGMENT
$pdata$?_Alloc_sentinel_and_proxy@?$_Tree@V?$_Tmap_traits@_KPEAVcBroad_Cube@cPhysics@@U?$less@_K@std@@V?$allocator@U?$pair@$$CB_KPEAVcBroad_Cube@cPhysics@@@std@@@4@$0A@@std@@@std@@IEAAXXZ DD imagerel $LN34@Alloc_sent
	DD	imagerel $LN34@Alloc_sent+45
	DD	imagerel $unwind$?_Alloc_sentinel_and_proxy@?$_Tree@V?$_Tmap_traits@_KPEAVcBroad_Cube@cPhysics@@U?$less@_K@std@@V?$allocator@U?$pair@$$CB_KPEAVcBroad_Cube@cPhysics@@@std@@@4@$0A@@std@@@std@@IEAAXXZ
pdata	ENDS
;	COMDAT pdata
pdata	SEGMENT
$pdata$?deallocate@?$allocator@PEAUsSphere@cPhysics@@@std@@QEAAXQEAPEAUsSphere@cPhysics@@_K@Z DD imagerel $LN23@deallocate
	DD	imagerel $LN23@deallocate+67
	DD	imagerel $unwind$?deallocate@?$allocator@PEAUsSphere@cPhysics@@@std@@QEAAXQEAPEAUsSphere@cPhysics@@_K@Z
pdata	ENDS
;	COMDAT pdata
pdata	SEGMENT
$pdata$?deallocate@?$allocator@PEAUsAABB@cPhysics@@@std@@QEAAXQEAPEAUsAABB@cPhysics@@_K@Z DD imagerel $LN23@deallocate
	DD	imagerel $LN23@deallocate+67
	DD	imagerel $unwind$?deallocate@?$allocator@PEAUsAABB@cPhysics@@@std@@QEAAXQEAPEAUsAABB@cPhysics@@_K@Z
pdata	ENDS
;	COMDAT pdata
pdata	SEGMENT
$pdata$?_Alloc_sentinel_and_proxy@?$_Tree@V?$_Tmap_traits@V?$basic_string@DU?$char_traits@D@std@@V?$allocator@D@2@@std@@PEAVCTextureFromBMP@@U?$less@V?$basic_string@DU?$char_traits@D@std@@V?$allocator@D@2@@std@@@2@V?$allocator@U?$pair@$$CBV?$basic_string@DU?$char_traits@D@std@@V?$allocator@D@2@@std@@PEAVCTextureFromBMP@@@std@@@2@$0A@@std@@@std@@IEAAXXZ DD imagerel $LN34@Alloc_sent
	DD	imagerel $LN34@Alloc_sent+45
	DD	imagerel $unwind$?_Alloc_sentinel_and_proxy@?$_Tree@V?$_Tmap_traits@V?$basic_string@DU?$char_traits@D@std@@V?$allocator@D@2@@std@@PEAVCTextureFromBMP@@U?$less@V?$basic_string@DU?$char_traits@D@std@@V?$allocator@D@2@@std@@@2@V?$allocator@U?$pair@$$CBV?$basic_string@DU?$char_traits@D@std@@V?$allocator@D@2@@std@@PEAVCTextureFromBMP@@@std@@@2@$0A@@std@@@std@@IEAAXXZ
pdata	ENDS
;	COMDAT pdata
pdata	SEGMENT
$pdata$?deallocate@?$allocator@PEAUsParticleThreadData@@@std@@QEAAXQEAPEAUsParticleThreadData@@_K@Z DD imagerel $LN23@deallocate
	DD	imagerel $LN23@deallocate+67
	DD	imagerel $unwind$?deallocate@?$allocator@PEAUsParticleThreadData@@@std@@QEAAXQEAPEAUsParticleThreadData@@_K@Z
pdata	ENDS
;	COMDAT pdata
pdata	SEGMENT
$pdata$??0?$_Tree@V?$_Tmap_traits@V?$basic_string@DU?$char_traits@D@std@@V?$allocator@D@2@@std@@PEAVcSoftBodyVerlet@@U?$less@V?$basic_string@DU?$char_traits@D@std@@V?$allocator@D@2@@std@@@2@V?$allocator@U?$pair@$$CBV?$basic_string@DU?$char_traits@D@std@@V?$allocator@D@2@@std@@PEAVcSoftBodyVerlet@@@std@@@2@$0A@@std@@@std@@QEAA@AEBU?$less@V?$basic_string@DU?$char_traits@D@std@@V?$allocator@D@2@@std@@@1@@Z DD imagerel $LN47@Tree
	DD	imagerel $LN47@Tree+57
	DD	imagerel $unwind$??0?$_Tree@V?$_Tmap_traits@V?$basic_string@DU?$char_traits@D@std@@V?$allocator@D@2@@std@@PEAVcSoftBodyVerlet@@U?$less@V?$basic_string@DU?$char_traits@D@std@@V?$allocator@D@2@@std@@@2@V?$allocator@U?$pair@$$CBV?$basic_string@DU?$char_traits@D@std@@V?$allocator@D@2@@std@@PEAVcSoftBodyVerlet@@@std@@@2@$0A@@std@@@std@@QEAA@AEBU?$less@V?$basic_string@DU?$char_traits@D@std@@V?$allocator@D@2@@std@@@1@@Z
pdata	ENDS
;	COMDAT pdata
pdata	SEGMENT
$pdata$??0?$_Tree@V?$_Tmap_traits@_KPEAVcBroad_Cube@cPhysics@@U?$less@_K@std@@V?$allocator@U?$pair@$$CB_KPEAVcBroad_Cube@cPhysics@@@std@@@4@$0A@@std@@@std@@QEAA@AEBU?$less@_K@1@@Z DD imagerel $LN47@Tree
	DD	imagerel $LN47@Tree+57
	DD	imagerel $unwind$??0?$_Tree@V?$_Tmap_traits@_KPEAVcBroad_Cube@cPhysics@@U?$less@_K@std@@V?$allocator@U?$pair@$$CB_KPEAVcBroad_Cube@cPhysics@@@std@@@4@$0A@@std@@@std@@QEAA@AEBU?$less@_K@1@@Z
pdata	ENDS
;	COMDAT pdata
pdata	SEGMENT
$pdata$?_Tidy@?$vector@PEAUsSphere@cPhysics@@V?$allocator@PEAUsSphere@cPhysics@@@std@@@std@@AEAAXXZ DD imagerel $LN31@Tidy
	DD	imagerel $LN31@Tidy+92
	DD	imagerel $unwind$?_Tidy@?$vector@PEAUsSphere@cPhysics@@V?$allocator@PEAUsSphere@cPhysics@@@std@@@std@@AEAAXXZ
pdata	ENDS
;	COMDAT pdata
pdata	SEGMENT
$pdata$?_Tidy@?$vector@PEAUsAABB@cPhysics@@V?$allocator@PEAUsAABB@cPhysics@@@std@@@std@@AEAAXXZ DD imagerel $LN31@Tidy
	DD	imagerel $LN31@Tidy+92
	DD	imagerel $unwind$?_Tidy@?$vector@PEAUsAABB@cPhysics@@V?$allocator@PEAUsAABB@cPhysics@@@std@@@std@@AEAAXXZ
pdata	ENDS
;	COMDAT pdata
pdata	SEGMENT
$pdata$?_Tidy@?$vector@PEAUsTriangleMesh@cPhysics@@V?$allocator@PEAUsTriangleMesh@cPhysics@@@std@@@std@@AEAAXXZ DD imagerel $LN31@Tidy
	DD	imagerel $LN31@Tidy+92
	DD	imagerel $unwind$?_Tidy@?$vector@PEAUsTriangleMesh@cPhysics@@V?$allocator@PEAUsTriangleMesh@cPhysics@@@std@@@std@@AEAAXXZ
pdata	ENDS
;	COMDAT pdata
pdata	SEGMENT
$pdata$?_Tidy@?$vector@UsCollision_SphereAABB@cPhysics@@V?$allocator@UsCollision_SphereAABB@cPhysics@@@std@@@std@@AEAAXXZ DD imagerel $LN31@Tidy
	DD	imagerel $LN31@Tidy+119
	DD	imagerel $unwind$?_Tidy@?$vector@UsCollision_SphereAABB@cPhysics@@V?$allocator@UsCollision_SphereAABB@cPhysics@@@std@@@std@@AEAAXXZ
pdata	ENDS
;	COMDAT pdata
pdata	SEGMENT
$pdata$?_Tidy@?$vector@UsCollision_RayTriangleInMesh@cPhysics@@V?$allocator@UsCollision_RayTriangleInMesh@cPhysics@@@std@@@std@@AEAAXXZ DD imagerel $LN48@Tidy
	DD	imagerel $LN48@Tidy+25
	DD	imagerel $unwind$?_Tidy@?$vector@UsCollision_RayTriangleInMesh@cPhysics@@V?$allocator@UsCollision_RayTriangleInMesh@cPhysics@@@std@@@std@@AEAAXXZ
pdata	ENDS
;	COMDAT pdata
pdata	SEGMENT
$pdata$0$?_Tidy@?$vector@UsCollision_RayTriangleInMesh@cPhysics@@V?$allocator@UsCollision_RayTriangleInMesh@cPhysics@@@std@@@std@@AEAAXXZ DD imagerel $LN48@Tidy+25
	DD	imagerel $LN48@Tidy+111
	DD	imagerel $chain$0$?_Tidy@?$vector@UsCollision_RayTriangleInMesh@cPhysics@@V?$allocator@UsCollision_RayTriangleInMesh@cPhysics@@@std@@@std@@AEAAXXZ
pdata	ENDS
;	COMDAT pdata
pdata	SEGMENT
$pdata$1$?_Tidy@?$vector@UsCollision_RayTriangleInMesh@cPhysics@@V?$allocator@UsCollision_RayTriangleInMesh@cPhysics@@@std@@@std@@AEAAXXZ DD imagerel $LN48@Tidy+111
	DD	imagerel $LN48@Tidy+174
	DD	imagerel $chain$1$?_Tidy@?$vector@UsCollision_RayTriangleInMesh@cPhysics@@V?$allocator@UsCollision_RayTriangleInMesh@cPhysics@@@std@@@std@@AEAAXXZ
pdata	ENDS
;	COMDAT pdata
pdata	SEGMENT
$pdata$??0?$_Tree@V?$_Tmap_traits@V?$basic_string@DU?$char_traits@D@std@@V?$allocator@D@2@@std@@PEAVCTextureFromBMP@@U?$less@V?$basic_string@DU?$char_traits@D@std@@V?$allocator@D@2@@std@@@2@V?$allocator@U?$pair@$$CBV?$basic_string@DU?$char_traits@D@std@@V?$allocator@D@2@@std@@PEAVCTextureFromBMP@@@std@@@2@$0A@@std@@@std@@QEAA@AEBU?$less@V?$basic_string@DU?$char_traits@D@std@@V?$allocator@D@2@@std@@@1@@Z DD imagerel $LN47@Tree
	DD	imagerel $LN47@Tree+57
	DD	imagerel $unwind$??0?$_Tree@V?$_Tmap_traits@V?$basic_string@DU?$char_traits@D@std@@V?$allocator@D@2@@std@@PEAVCTextureFromBMP@@U?$less@V?$basic_string@DU?$char_traits@D@std@@V?$allocator@D@2@@std@@@2@V?$allocator@U?$pair@$$CBV?$basic_string@DU?$char_traits@D@std@@V?$allocator@D@2@@std@@PEAVCTextureFromBMP@@@std@@@2@$0A@@std@@@std@@QEAA@AEBU?$less@V?$basic_string@DU?$char_traits@D@std@@V?$allocator@D@2@@std@@@1@@Z
pdata	ENDS
;	COMDAT pdata
pdata	SEGMENT
$pdata$?_Tidy@?$vector@PEAUsParticleThreadData@@V?$allocator@PEAUsParticleThreadData@@@std@@@std@@AEAAXXZ DD imagerel $LN31@Tidy
	DD	imagerel $LN31@Tidy+92
	DD	imagerel $unwind$?_Tidy@?$vector@PEAUsParticleThreadData@@V?$allocator@PEAUsParticleThreadData@@@std@@@std@@AEAAXXZ
pdata	ENDS
;	COMDAT pdata
pdata	SEGMENT
$pdata$??1?$_Tree@V?$_Tmap_traits@V?$basic_string@DU?$char_traits@D@std@@V?$allocator@D@2@@std@@PEAVcSoftBodyVerlet@@U?$less@V?$basic_string@DU?$char_traits@D@std@@V?$allocator@D@2@@std@@@2@V?$allocator@U?$pair@$$CBV?$basic_string@DU?$char_traits@D@std@@V?$allocator@D@2@@std@@PEAVcSoftBodyVerlet@@@std@@@2@$0A@@std@@@std@@QEAA@XZ DD imagerel $LN34@Tree
	DD	imagerel $LN34@Tree+42
	DD	imagerel $unwind$??1?$_Tree@V?$_Tmap_traits@V?$basic_string@DU?$char_traits@D@std@@V?$allocator@D@2@@std@@PEAVcSoftBodyVerlet@@U?$less@V?$basic_string@DU?$char_traits@D@std@@V?$allocator@D@2@@std@@@2@V?$allocator@U?$pair@$$CBV?$basic_string@DU?$char_traits@D@std@@V?$allocator@D@2@@std@@PEAVcSoftBodyVerlet@@@std@@@2@$0A@@std@@@std@@QEAA@XZ
pdata	ENDS
;	COMDAT pdata
pdata	SEGMENT
$pdata$??0?$map@V?$basic_string@DU?$char_traits@D@std@@V?$allocator@D@2@@std@@PEAVcSoftBodyVerlet@@U?$less@V?$basic_string@DU?$char_traits@D@std@@V?$allocator@D@2@@std@@@2@V?$allocator@U?$pair@$$CBV?$basic_string@DU?$char_traits@D@std@@V?$allocator@D@2@@std@@PEAVcSoftBodyVerlet@@@std@@@2@@std@@QEAA@XZ DD imagerel $LN51@map
	DD	imagerel $LN51@map+57
	DD	imagerel $unwind$??0?$map@V?$basic_string@DU?$char_traits@D@std@@V?$allocator@D@2@@std@@PEAVcSoftBodyVerlet@@U?$less@V?$basic_string@DU?$char_traits@D@std@@V?$allocator@D@2@@std@@@2@V?$allocator@U?$pair@$$CBV?$basic_string@DU?$char_traits@D@std@@V?$allocator@D@2@@std@@PEAVcSoftBodyVerlet@@@std@@@2@@std@@QEAA@XZ
pdata	ENDS
;	COMDAT pdata
pdata	SEGMENT
$pdata$??1?$_Tree@V?$_Tmap_traits@_KPEAVcBroad_Cube@cPhysics@@U?$less@_K@std@@V?$allocator@U?$pair@$$CB_KPEAVcBroad_Cube@cPhysics@@@std@@@4@$0A@@std@@@std@@QEAA@XZ DD imagerel $LN77@Tree
	DD	imagerel $LN77@Tree+92
	DD	imagerel $unwind$??1?$_Tree@V?$_Tmap_traits@_KPEAVcBroad_Cube@cPhysics@@U?$less@_K@std@@V?$allocator@U?$pair@$$CB_KPEAVcBroad_Cube@cPhysics@@@std@@@4@$0A@@std@@@std@@QEAA@XZ
pdata	ENDS
;	COMDAT pdata
pdata	SEGMENT
$pdata$??0?$map@_KPEAVcBroad_Cube@cPhysics@@U?$less@_K@std@@V?$allocator@U?$pair@$$CB_KPEAVcBroad_Cube@cPhysics@@@std@@@4@@std@@QEAA@XZ DD imagerel $LN51@map
	DD	imagerel $LN51@map+57
	DD	imagerel $unwind$??0?$map@_KPEAVcBroad_Cube@cPhysics@@U?$less@_K@std@@V?$allocator@U?$pair@$$CB_KPEAVcBroad_Cube@cPhysics@@@std@@@4@@std@@QEAA@XZ
pdata	ENDS
;	COMDAT pdata
pdata	SEGMENT
$pdata$??1?$vector@PEAUsSphere@cPhysics@@V?$allocator@PEAUsSphere@cPhysics@@@std@@@std@@QEAA@XZ DD imagerel $LN35@vector
	DD	imagerel $LN35@vector+92
	DD	imagerel $unwind$??1?$vector@PEAUsSphere@cPhysics@@V?$allocator@PEAUsSphere@cPhysics@@@std@@@std@@QEAA@XZ
pdata	ENDS
;	COMDAT pdata
pdata	SEGMENT
$pdata$??1?$vector@PEAUsAABB@cPhysics@@V?$allocator@PEAUsAABB@cPhysics@@@std@@@std@@QEAA@XZ DD imagerel $LN35@vector
	DD	imagerel $LN35@vector+92
	DD	imagerel $unwind$??1?$vector@PEAUsAABB@cPhysics@@V?$allocator@PEAUsAABB@cPhysics@@@std@@@std@@QEAA@XZ
pdata	ENDS
;	COMDAT pdata
pdata	SEGMENT
$pdata$??1?$vector@PEAUsTriangleMesh@cPhysics@@V?$allocator@PEAUsTriangleMesh@cPhysics@@@std@@@std@@QEAA@XZ DD imagerel $LN35@vector
	DD	imagerel $LN35@vector+92
	DD	imagerel $unwind$??1?$vector@PEAUsTriangleMesh@cPhysics@@V?$allocator@PEAUsTriangleMesh@cPhysics@@@std@@@std@@QEAA@XZ
pdata	ENDS
;	COMDAT pdata
pdata	SEGMENT
$pdata$??1?$vector@UsCollision_SphereAABB@cPhysics@@V?$allocator@UsCollision_SphereAABB@cPhysics@@@std@@@std@@QEAA@XZ DD imagerel $LN35@vector
	DD	imagerel $LN35@vector+119
	DD	imagerel $unwind$??1?$vector@UsCollision_SphereAABB@cPhysics@@V?$allocator@UsCollision_SphereAABB@cPhysics@@@std@@@std@@QEAA@XZ
pdata	ENDS
;	COMDAT pdata
pdata	SEGMENT
$pdata$??1?$vector@UsCollision_RayTriangleInMesh@cPhysics@@V?$allocator@UsCollision_RayTriangleInMesh@cPhysics@@@std@@@std@@QEAA@XZ DD imagerel $LN52@vector
	DD	imagerel $LN52@vector+25
	DD	imagerel $unwind$??1?$vector@UsCollision_RayTriangleInMesh@cPhysics@@V?$allocator@UsCollision_RayTriangleInMesh@cPhysics@@@std@@@std@@QEAA@XZ
pdata	ENDS
;	COMDAT pdata
pdata	SEGMENT
$pdata$0$??1?$vector@UsCollision_RayTriangleInMesh@cPhysics@@V?$allocator@UsCollision_RayTriangleInMesh@cPhysics@@@std@@@std@@QEAA@XZ DD imagerel $LN52@vector+25
	DD	imagerel $LN52@vector+111
	DD	imagerel $chain$0$??1?$vector@UsCollision_RayTriangleInMesh@cPhysics@@V?$allocator@UsCollision_RayTriangleInMesh@cPhysics@@@std@@@std@@QEAA@XZ
pdata	ENDS
;	COMDAT pdata
pdata	SEGMENT
$pdata$1$??1?$vector@UsCollision_RayTriangleInMesh@cPhysics@@V?$allocator@UsCollision_RayTriangleInMesh@cPhysics@@@std@@@std@@QEAA@XZ DD imagerel $LN52@vector+111
	DD	imagerel $LN52@vector+174
	DD	imagerel $chain$1$??1?$vector@UsCollision_RayTriangleInMesh@cPhysics@@V?$allocator@UsCollision_RayTriangleInMesh@cPhysics@@@std@@@std@@QEAA@XZ
pdata	ENDS
;	COMDAT pdata
pdata	SEGMENT
$pdata$??1?$_Tree@V?$_Tmap_traits@V?$basic_string@DU?$char_traits@D@std@@V?$allocator@D@2@@std@@PEAVCTextureFromBMP@@U?$less@V?$basic_string@DU?$char_traits@D@std@@V?$allocator@D@2@@std@@@2@V?$allocator@U?$pair@$$CBV?$basic_string@DU?$char_traits@D@std@@V?$allocator@D@2@@std@@PEAVCTextureFromBMP@@@std@@@2@$0A@@std@@@std@@QEAA@XZ DD imagerel $LN34@Tree
	DD	imagerel $LN34@Tree+42
	DD	imagerel $unwind$??1?$_Tree@V?$_Tmap_traits@V?$basic_string@DU?$char_traits@D@std@@V?$allocator@D@2@@std@@PEAVCTextureFromBMP@@U?$less@V?$basic_string@DU?$char_traits@D@std@@V?$allocator@D@2@@std@@@2@V?$allocator@U?$pair@$$CBV?$basic_string@DU?$char_traits@D@std@@V?$allocator@D@2@@std@@PEAVCTextureFromBMP@@@std@@@2@$0A@@std@@@std@@QEAA@XZ
pdata	ENDS
;	COMDAT pdata
pdata	SEGMENT
$pdata$??0?$map@V?$basic_string@DU?$char_traits@D@std@@V?$allocator@D@2@@std@@PEAVCTextureFromBMP@@U?$less@V?$basic_string@DU?$char_traits@D@std@@V?$allocator@D@2@@std@@@2@V?$allocator@U?$pair@$$CBV?$basic_string@DU?$char_traits@D@std@@V?$allocator@D@2@@std@@PEAVCTextureFromBMP@@@std@@@2@@std@@QEAA@XZ DD imagerel $LN51@map
	DD	imagerel $LN51@map+57
	DD	imagerel $unwind$??0?$map@V?$basic_string@DU?$char_traits@D@std@@V?$allocator@D@2@@std@@PEAVCTextureFromBMP@@U?$less@V?$basic_string@DU?$char_traits@D@std@@V?$allocator@D@2@@std@@@2@V?$allocator@U?$pair@$$CBV?$basic_string@DU?$char_traits@D@std@@V?$allocator@D@2@@std@@PEAVCTextureFromBMP@@@std@@@2@@std@@QEAA@XZ
pdata	ENDS
;	COMDAT pdata
pdata	SEGMENT
$pdata$??1?$vector@PEAUsParticleThreadData@@V?$allocator@PEAUsParticleThreadData@@@std@@@std@@QEAA@XZ DD imagerel $LN35@vector
	DD	imagerel $LN35@vector+92
	DD	imagerel $unwind$??1?$vector@PEAUsParticleThreadData@@V?$allocator@PEAUsParticleThreadData@@@std@@@std@@QEAA@XZ
pdata	ENDS
;	COMDAT pdata
pdata	SEGMENT
$pdata$?CreateThreads@@YAXH@Z DD imagerel $LN28@CreateThre
	DD	imagerel $LN28@CreateThre+225
	DD	imagerel $unwind$?CreateThreads@@YAXH@Z
pdata	ENDS
;	COMDAT pdata
pdata	SEGMENT
$pdata$?AddToPhysXMap@@YAXV?$basic_string@DU?$char_traits@D@std@@V?$allocator@D@2@@std@@I@Z DD imagerel $LN128@AddToPhysX
	DD	imagerel $LN128@AddToPhysX+435
	DD	imagerel $unwind$?AddToPhysXMap@@YAXV?$basic_string@DU?$char_traits@D@std@@V?$allocator@D@2@@std@@I@Z
pdata	ENDS
;	COMDAT pdata
pdata	SEGMENT
$pdata$?LoadTextures@@YAXXZ DD imagerel $LN2878@LoadTextur
	DD	imagerel $LN2878@LoadTextur+5031
	DD	imagerel $unwind$?LoadTextures@@YAXXZ
pdata	ENDS
;	COMDAT pdata
pdata	SEGMENT
$pdata$?ModelsToVAO@@YAXI@Z DD imagerel $LN158@ModelsToVA
	DD	imagerel $LN158@ModelsToVA+645
	DD	imagerel $unwind$?ModelsToVAO@@YAXI@Z
pdata	ENDS
;	COMDAT pdata
pdata	SEGMENT
$pdata$?SetCameraPosition@@YAXXZ DD imagerel $LN99@SetCameraP
	DD	imagerel $LN99@SetCameraP+567
	DD	imagerel $unwind$?SetCameraPosition@@YAXXZ
pdata	ENDS
;	COMDAT pdata
pdata	SEGMENT
$pdata$?LoadLights@@YAXXZ DD imagerel $LN347@LoadLights
	DD	imagerel $LN347@LoadLights+1117
	DD	imagerel $unwind$?LoadLights@@YAXXZ
pdata	ENDS
;	COMDAT pdata
pdata	SEGMENT
$pdata$??1cPhysics@@QEAA@XZ DD imagerel $LN249@cPhysics
	DD	imagerel $LN249@cPhysics+351
	DD	imagerel $unwind$??1cPhysics@@QEAA@XZ
pdata	ENDS
;	COMDAT pdata
pdata	SEGMENT
$pdata$0$??1cPhysics@@QEAA@XZ DD imagerel $LN249@cPhysics+351
	DD	imagerel $LN249@cPhysics+467
	DD	imagerel $chain$0$??1cPhysics@@QEAA@XZ
pdata	ENDS
;	COMDAT pdata
pdata	SEGMENT
$pdata$1$??1cPhysics@@QEAA@XZ DD imagerel $LN249@cPhysics+467
	DD	imagerel $LN249@cPhysics+474
	DD	imagerel $chain$1$??1cPhysics@@QEAA@XZ
pdata	ENDS
;	COMDAT pdata
pdata	SEGMENT
$pdata$??1?$map@V?$basic_string@DU?$char_traits@D@std@@V?$allocator@D@2@@std@@PEAVCTextureFromBMP@@U?$less@V?$basic_string@DU?$char_traits@D@std@@V?$allocator@D@2@@std@@@2@V?$allocator@U?$pair@$$CBV?$basic_string@DU?$char_traits@D@std@@V?$allocator@D@2@@std@@PEAVCTextureFromBMP@@@std@@@2@@std@@QEAA@XZ DD imagerel $LN38@map
	DD	imagerel $LN38@map+42
	DD	imagerel $unwind$??1?$map@V?$basic_string@DU?$char_traits@D@std@@V?$allocator@D@2@@std@@PEAVCTextureFromBMP@@U?$less@V?$basic_string@DU?$char_traits@D@std@@V?$allocator@D@2@@std@@@2@V?$allocator@U?$pair@$$CBV?$basic_string@DU?$char_traits@D@std@@V?$allocator@D@2@@std@@PEAVCTextureFromBMP@@@std@@@2@@std@@QEAA@XZ
pdata	ENDS
;	COMDAT pdata
pdata	SEGMENT
$pdata$??_GcPhysXWraper@@QEAAPEAXI@Z DD imagerel $LN63@scalar
	DD	imagerel $LN63@scalar+92
	DD	imagerel $unwind$??_GcPhysXWraper@@QEAAPEAXI@Z
pdata	ENDS
;	COMDAT pdata
pdata	SEGMENT
$pdata$??_GcPhysics@@QEAAPEAXI@Z DD imagerel $LN7@scalar
	DD	imagerel $LN7@scalar+36
	DD	imagerel $unwind$??_GcPhysics@@QEAAPEAXI@Z
pdata	ENDS
;	COMDAT pdata
pdata	SEGMENT
$pdata$??0cBasicTextureManager@@QEAA@XZ DD imagerel $LN97@cBasicText
	DD	imagerel $LN97@cBasicText+119
	DD	imagerel $unwind$??0cBasicTextureManager@@QEAA@XZ
pdata	ENDS
;	COMDAT pdata
pdata	SEGMENT
$pdata$??1cLowPassFilter@@QEAA@XZ DD imagerel $LN39@cLowPassFi
	DD	imagerel $LN39@cLowPassFi+92
	DD	imagerel $unwind$??1cLowPassFilter@@QEAA@XZ
pdata	ENDS
;	COMDAT pdata
pdata	SEGMENT
$pdata$??1?$map@_KPEAVcBroad_Cube@cPhysics@@U?$less@_K@std@@V?$allocator@U?$pair@$$CB_KPEAVcBroad_Cube@cPhysics@@@std@@@4@@std@@QEAA@XZ DD imagerel $LN81@map
	DD	imagerel $LN81@map+92
	DD	imagerel $unwind$??1?$map@_KPEAVcBroad_Cube@cPhysics@@U?$less@_K@std@@V?$allocator@U?$pair@$$CB_KPEAVcBroad_Cube@cPhysics@@@std@@@4@@std@@QEAA@XZ
pdata	ENDS
;	COMDAT pdata
pdata	SEGMENT
$pdata$??1?$map@V?$basic_string@DU?$char_traits@D@std@@V?$allocator@D@2@@std@@PEAVcSoftBodyVerlet@@U?$less@V?$basic_string@DU?$char_traits@D@std@@V?$allocator@D@2@@std@@@2@V?$allocator@U?$pair@$$CBV?$basic_string@DU?$char_traits@D@std@@V?$allocator@D@2@@std@@PEAVcSoftBodyVerlet@@@std@@@2@@std@@QEAA@XZ DD imagerel $LN38@map
	DD	imagerel $LN38@map+42
	DD	imagerel $unwind$??1?$map@V?$basic_string@DU?$char_traits@D@std@@V?$allocator@D@2@@std@@PEAVcSoftBodyVerlet@@U?$less@V?$basic_string@DU?$char_traits@D@std@@V?$allocator@D@2@@std@@@2@V?$allocator@U?$pair@$$CBV?$basic_string@DU?$char_traits@D@std@@V?$allocator@D@2@@std@@PEAVcSoftBodyVerlet@@@std@@@2@@std@@QEAA@XZ
pdata	ENDS
;	COMDAT pdata
pdata	SEGMENT
$pdata$??0cPhysics@@QEAA@XZ DD imagerel $LN174@cPhysics
	DD	imagerel $LN174@cPhysics+262
	DD	imagerel $unwind$??0cPhysics@@QEAA@XZ
pdata	ENDS
;	COMDAT pdata
pdata	SEGMENT
$pdata$main DD	imagerel $LN120@main
	DD	imagerel $LN120@main+4247
	DD	imagerel $unwind$main
pdata	ENDS
;	COMDAT pdata
pdata	SEGMENT
$pdata$main$dtor$0 DD imagerel main$dtor$0
	DD	imagerel main$dtor$0+32
	DD	imagerel $unwind$main$dtor$0
pdata	ENDS
;	COMDAT pdata
pdata	SEGMENT
$pdata$main$dtor$9 DD imagerel main$dtor$9
	DD	imagerel main$dtor$9+32
	DD	imagerel $unwind$main$dtor$9
pdata	ENDS
;	COMDAT pdata
pdata	SEGMENT
$pdata$main$dtor$12 DD imagerel main$dtor$12
	DD	imagerel main$dtor$12+32
	DD	imagerel $unwind$main$dtor$12
pdata	ENDS
;	COMDAT pdata
pdata	SEGMENT
$pdata$main$dtor$13 DD imagerel main$dtor$13
	DD	imagerel main$dtor$13+32
	DD	imagerel $unwind$main$dtor$13
pdata	ENDS
;	COMDAT pdata
pdata	SEGMENT
$pdata$main$dtor$22 DD imagerel main$dtor$22
	DD	imagerel main$dtor$22+32
	DD	imagerel $unwind$main$dtor$22
pdata	ENDS
;	COMDAT pdata
pdata	SEGMENT
$pdata$main$dtor$25 DD imagerel main$dtor$25
	DD	imagerel main$dtor$25+32
	DD	imagerel $unwind$main$dtor$25
pdata	ENDS
;	COMDAT pdata
pdata	SEGMENT
$pdata$?g_pFindChildMeshByFriendlyName@@YAPEAUsMesh@@PEAU1@V?$basic_string@DU?$char_traits@D@std@@V?$allocator@D@2@@std@@@Z DD imagerel $LN176@g_pFindChi
	DD	imagerel $LN176@g_pFindChi+475
	DD	imagerel $unwind$?g_pFindChildMeshByFriendlyName@@YAPEAUsMesh@@PEAU1@V?$basic_string@DU?$char_traits@D@std@@V?$allocator@D@2@@std@@@Z
pdata	ENDS
;	COMDAT pdata
pdata	SEGMENT
$pdata$?error_callback@@YAXHPEBD@Z DD imagerel ?error_callback@@YAXHPEBD@Z
	DD	imagerel ?error_callback@@YAXHPEBD@Z+43
	DD	imagerel $unwind$?error_callback@@YAXHPEBD@Z
pdata	ENDS
;	COMDAT pdata
